 CourseworkBase2020

 Timestamp is 645470ee (Fri May  5 03:58:54 2023)

 Preferred load address is 00400000

 Start         Length     Name                   Class
 0001:00000000 000051c0H .text$di                CODE
 0001:000051c0 000380f0H .text$mn                CODE
 0001:0003d2b0 00003750H .text$x                 CODE
 0001:00040a00 00001012H .text$yd                CODE
 0002:00000000 00000104H .CRT$XCA                DATA
 0002:00000104 00000104H .CRT$XCAA               DATA
 0002:00000208 00000104H .CRT$XCL                DATA
 0002:0000030c 00000104H .CRT$XCZ                DATA
 0002:00000410 00000104H .CRT$XIA                DATA
 0002:00000514 00000104H .CRT$XIAA               DATA
 0002:00000618 00000104H .CRT$XIAC               DATA
 0002:0000071c 00000104H .CRT$XIZ                DATA
 0002:00000820 00000104H .CRT$XPA                DATA
 0002:00000924 00000104H .CRT$XPZ                DATA
 0002:00000a28 00000104H .CRT$XTA                DATA
 0002:00000b2c 00000114H .CRT$XTZ                DATA
 0002:00000c40 0000ad40H .rdata                  DATA
 0002:0000b980 00000180H .rdata$CastGuardVftablesA DATA
 0002:0000bb00 0000014cH .rdata$CastGuardVftablesC DATA
 0002:0000bc4c 000016d4H .rdata$r                DATA
 0002:0000d320 000003bcH .rdata$sxdata           DATA
 0002:0000d6dc 0000017cH .rdata$zzzdbg           DATA
 0002:0000d858 00000104H .rtc$IAA                DATA
 0002:0000d95c 00000104H .rtc$IZZ                DATA
 0002:0000da60 00000104H .rtc$TAA                DATA
 0002:0000db64 00000104H .rtc$TZZ                DATA
 0002:0000dc68 00002405H .xdata$x                DATA
 0002:0001006d 00000000H .edata                  DATA
 0003:00000000 00000134H .data                   DATA
 0003:00000134 0000019cH .data$r                 DATA
 0003:000002d0 00000998H .data$rs                DATA
 0003:00000c68 000004dcH .bss                    DATA
 0004:00000000 000004a4H .idata$5                DATA
 0004:000004a4 0000008cH .idata$2                DATA
 0004:00000530 00000014H .idata$3                DATA
 0004:00000544 000004a4H .idata$4                DATA
 0004:000009e8 00001b24H .idata$6                DATA
 0005:00000000 0000010eH .00cfg                  DATA
 0006:00000000 00000170H .rsrc$01                DATA
 0006:00000170 000002ccH .rsrc$02                DATA

  Address         Publics by Value              Rva+Base       Lib:Object

 0000:00000000       ___AbsoluteZero            00000000     <absolute>
 0000:00000000       ___arm64x_extra_rfe_table  00000000     <absolute>
 0000:00000000       ___arm64x_extra_rfe_table_size 00000000     <absolute>
 0000:00000000       ___arm64x_native_entrypoint 00000000     <absolute>
 0000:00000000       ___arm64x_redirection_metadata 00000000     <absolute>
 0000:00000000       ___arm64x_redirection_metadata_count 00000000     <absolute>
 0000:00000000       ___dynamic_value_reloc_table 00000000     <absolute>
 0000:00000000       ___enclave_config          00000000     <absolute>
 0000:00000000       ___guard_check_icall_a64n_fptr 00000000     <absolute>
 0000:00000000       ___guard_eh_cont_count     00000000     <absolute>
 0000:00000000       ___guard_eh_cont_table     00000000     <absolute>
 0000:00000000       ___guard_fids_count        00000000     <absolute>
 0000:00000000       ___guard_fids_table        00000000     <absolute>
 0000:00000000       ___guard_iat_count         00000000     <absolute>
 0000:00000000       ___guard_iat_table         00000000     <absolute>
 0000:00000000       ___guard_longjmp_count     00000000     <absolute>
 0000:00000000       ___guard_longjmp_table     00000000     <absolute>
 0000:00000000       ___hybrid_auxiliary_iat    00000000     <absolute>
 0000:00000000       ___hybrid_auxiliary_iat_copy 00000000     <absolute>
 0000:00000000       ___hybrid_code_map         00000000     <absolute>
 0000:00000000       ___hybrid_code_map_count   00000000     <absolute>
 0000:00000000       ___volatile_metadata       00000000     <absolute>
 0000:00000000       ___x64_code_ranges_to_entry_points 00000000     <absolute>
 0000:00000000       ___x64_code_ranges_to_entry_points_count 00000000     <absolute>
 0000:00000092       ___safe_se_handler_count   00000092     <absolute>
 0000:00000100       ___guard_flags             00000100     <absolute>
 0000:00000000       ___ImageBase               00400000     <linker-defined>
 0001:000051c0       ?virtDraw@Ball@@UAEXXZ     004061c0 f   Ball.obj
 0001:00005240       ?virtDoUpdate@Ball@@UAEXH@Z 00406240 f   Ball.obj
 0001:00005300       ?isAlive@Ball@@QAE_NXZ     00406300 f   Ball.obj
 0001:00005340       ?detectCollision@Ball@@QAEXXZ 00406340 f   Ball.obj
 0001:00005490       ?resetObject@Ball@@UAEXXZ  00406490 f   Ball.obj
 0001:000055a0       ??$?CVRawImageData@@$0A@@?$shared_ptr@VRawImageData@@@std@@QBEPAVRawImageData@@XZ 004065a0 f i Ball.obj
 0001:000055c0       ??$_Copy_construct_from@VRawImageData@@@?$_Ptr_base@VRawImageData@@@std@@IAEXABV?$shared_ptr@VRawImageData@@@1@@Z 004065c0 f i Ball.obj
 0001:00005600       ??$move@AAPAVRawImageData@@@std@@YA$$QAPAVRawImageData@@AAPAV1@@Z 00406600 f i Ball.obj
 0001:00005610       ??$move@AAPAV_Ref_count_base@std@@@std@@YA$$QAPAV_Ref_count_base@0@AAPAV10@@Z 00406610 f i Ball.obj
 0001:00005620       ??$swap@PAVRawImageData@@$0A@@std@@YAXAAPAVRawImageData@@0@Z 00406620 f i Ball.obj
 0001:00005670       ??$swap@PAV_Ref_count_base@std@@$0A@@std@@YAXAAPAV_Ref_count_base@0@0@Z 00406670 f i Ball.obj
 0001:000056c0       ??0?$_Ptr_base@VRawImageData@@@std@@IAE@XZ 004066c0 f i Ball.obj
 0001:000056f0       ??0?$shared_ptr@VRawImageData@@@std@@QAE@ABV01@@Z 004066f0 f i Ball.obj
 0001:00005720       ??0DisplayableObject@@QAE@ABV0@@Z 00406720 f i Ball.obj
 0001:000057f0       ??0GameObject@@QAE@ABV0@@Z 004067f0 f i Ball.obj
 0001:00005870       ??0ImagePixelMapping@@QAE@ABV0@@Z 00406870 f i Ball.obj
 0001:00005890       ??0ImagePixelMappingRotate@@QAE@ABV0@@Z 00406890 f i Ball.obj
 0001:000058e0       ??0ImagePixelMappingRotateAndColour@@QAE@ABV0@@Z 004068e0 f i Ball.obj
 0001:000059c0       ??0ObjectMapper@@QAE@ABV0@@Z 004069c0 f i Ball.obj
 0001:000059f0       ??0SimpleImage@@QAE@ABV0@@Z 004069f0 f i Ball.obj
 0001:00005a40       ??1?$shared_ptr@VRawImageData@@@std@@QAE@XZ 00406a40 f i Ball.obj
 0001:00005a60       ??1GameObject@@UAE@XZ      00406a60 f i Ball.obj
 0001:00005aa0       ??1ImagePixelMappingRotateAndColour@@UAE@XZ 00406aa0 f i Ball.obj
 0001:00005ac0       ??1ObjectMapper@@UAE@XZ    00406ac0 f i Ball.obj
 0001:00005ae0       ??1SimpleImage@@QAE@XZ     00406ae0 f i Ball.obj
 0001:00005b30       ??4?$shared_ptr@VRawImageData@@@std@@QAEAAV01@ABV01@@Z 00406b30 f i Ball.obj
 0001:00005b70       ??4SimpleImage@@QAEAAV0@ABV0@@Z 00406b70 f i Ball.obj
 0001:00005bc0       ??A?$vector@PAVDisplayableObject@@V?$allocator@PAVDisplayableObject@@@std@@@std@@QBEABQAVDisplayableObject@@I@Z 00406bc0 f i Ball.obj
 0001:00005c70       ??_EDisplayableObject@@UAEPAXI@Z 00406c70 f i Ball.obj
 0001:00005c70       ??_GDisplayableObject@@UAEPAXI@Z 00406c70 f i Ball.obj
 0001:00005cb0       ??_EGameObject@@UAEPAXI@Z  00406cb0 f i Ball.obj
 0001:00005cb0       ??_GGameObject@@UAEPAXI@Z  00406cb0 f i Ball.obj
 0001:00005cf0       ??_EImagePixelMappingRotateAndColour@@UAEPAXI@Z 00406cf0 f i Ball.obj
 0001:00005cf0       ??_GImagePixelMappingRotateAndColour@@UAEPAXI@Z 00406cf0 f i Ball.obj
 0001:00005d30       ??_EObjectMapper@@UAEPAXI@Z 00406d30 f i Ball.obj
 0001:00005d30       ??_GObjectMapper@@UAEPAXI@Z 00406d30 f i Ball.obj
 0001:00005d70       ?_Decref@?$_Ptr_base@VRawImageData@@@std@@IAEXXZ 00406d70 f i Ball.obj
 0001:00005da0       ?_Decref@_Ref_count_base@std@@QAEXXZ 00406da0 f i Ball.obj
 0001:00005de0       ?_Decwref@_Ref_count_base@std@@QAEXXZ 00406de0 f i Ball.obj
 0001:00005e20       ?_Incref@?$_Ptr_base@VRawImageData@@@std@@IBEXXZ 00406e20 f i Ball.obj
 0001:00005e50       ?_Incref@_Ref_count_base@std@@QAEXXZ 00406e50 f i Ball.obj
 0001:00005e70       ?_Swap@?$_Ptr_base@VRawImageData@@@std@@IAEXAAV12@@Z 00406e70 f i Ball.obj
 0001:00005eb0       ?__empty_global_delete@@YAXPAX@Z 00406eb0 f i Ball.obj
 0001:00005ec0       ?__empty_global_delete@@YAXPAXI@Z 00406ec0 f i Ball.obj
 0001:00005ec0       ?__global_delete@@YAXPAXI@Z 00406ec0 f i Ball.obj
 0001:00005ed0       ?changePixelColour@ImagePixelMapping@@UAE_NHHAAHPAVDrawingSurface@@@Z 00406ed0 f i Ball.obj
 0001:00005ef0       ?changePixelColour@ImagePixelMappingRotateAndColour@@UAE_NHHAAHPAVDrawingSurface@@@Z 00406ef0 f i Ball.obj
 0001:000062d0       ?deleteOnRemoval@DisplayableObject@@UBE_NXZ 004072d0 f i Ball.obj
 0001:000062f0       ?get@?$_Ptr_base@VRawImageData@@@std@@IBEPAVRawImageData@@XZ 004072f0 f i Ball.obj
 0001:00006310       ?getDisplayableObject@DisplayableObjectContainer@@QBEPAVDisplayableObject@@H@Z 00407310 f i Ball.obj
 0001:00006350       ?getEngine@DisplayableObject@@QBEPAVBaseEngine@@XZ 00407350 f i Ball.obj
 0001:00006370       ?getForegroundSurface@BaseEngine@@QAEPAVDrawingSurface@@XZ 00407370 f i Ball.obj
 0001:00006390       ?getHeight@GameObject@@QAEHXZ 00407390 f i Ball.obj
 0001:000063b0       ?getHeight@RawImageData@@QBEHXZ 004073b0 f i Ball.obj
 0001:000063d0       ?getHeight@SimpleImage@@QBEHXZ 004073d0 f i Ball.obj
 0001:00006400       ?getIntsPerWindowRow@DrawingSurface@@QBEIXZ 00407400 f i Ball.obj
 0001:00006420       ?getPixel@DrawingSurface@@QAEIHH@Z 00407420 f i Ball.obj
 0001:00006490       ?getSpeedX@GameObject@@QAEHXZ 00407490 f i Ball.obj
 0001:000064b0       ?getSpeedY@GameObject@@QAEHXZ 004074b0 f i Ball.obj
 0001:000064d0       ?getSurfaceHeight@DrawingSurface@@QBEHXZ 004074d0 f i Ball.obj
 0001:000064f0       ?getSurfaceWidth@DrawingSurface@@QBEHXZ 004074f0 f i Ball.obj
 0001:00006510       ?getWidth@GameObject@@QAEHXZ 00407510 f i Ball.obj
 0001:00006530       ?getWidth@RawImageData@@QBEHXZ 00407530 f i Ball.obj
 0001:00006550       ?getWidth@SimpleImage@@QBEHXZ 00407550 f i Ball.obj
 0001:00006580       ?getWindowHeight@BaseEngine@@QBEHXZ 00407580 f i Ball.obj
 0001:000065a0       ?getWindowWidth@BaseEngine@@QBEHXZ 004075a0 f i Ball.obj
 0001:000065c0       ?getX@GameObject@@QAEHXZ   004075c0 f i Ball.obj
 0001:000065e0       ?getY@GameObject@@QAEHXZ   004075e0 f i Ball.obj
 0001:00006600       ?isVisible@DisplayableObject@@QBE_NXZ 00407600 f i Ball.obj
 0001:00006620       ?mapCoordinates@ImagePixelMappingRotate@@UAE_NAAN0ABVSimpleImage@@@Z 00407620 f i Ball.obj
 0001:00006910       ?mapCoordinates@ImagePixelMappingRotateAndColour@@UAE_NAAN0ABVSimpleImage@@@Z 00407910 f i Ball.obj
 0001:00006c30       ?pause@BaseEngine@@QAEXXZ  00407c30 f i Ball.obj
 0001:00006c60       ?rawGetPixel@DrawingSurface@@QBEIHH@Z 00407c60 f i Ball.obj
 0001:00006cd0       ?redrawDisplay@BaseEngine@@QAEXXZ 00407cd0 f i Ball.obj
 0001:00006cf0       ?setPosition@DisplayableObject@@UAEXHH@Z 00407cf0 f i Ball.obj
 0001:00006d30       ?setSpeedX@GameObject@@QAEXH@Z 00407d30 f i Ball.obj
 0001:00006d50       ?setSpeedY@GameObject@@QAEXH@Z 00407d50 f i Ball.obj
 0001:00006d70       ?setX@GameObject@@QAEXH@Z  00407d70 f i Ball.obj
 0001:00006d90       ?setY@GameObject@@QAEXH@Z  00407d90 f i Ball.obj
 0001:00006db0       ?size@?$vector@PAVDisplayableObject@@V?$allocator@PAVDisplayableObject@@@std@@@std@@QBEIXZ 00407db0 f i Ball.obj
 0001:00006de0       ?swap@?$shared_ptr@VRawImageData@@@std@@QAEXAAV12@@Z 00407de0 f i Ball.obj
 0001:00006e00       ?virtIsPositionWithinObject@DisplayableObject@@UAE_NHH@Z 00407e00 f i Ball.obj
 0001:00006e90       ?virtKeyDown@DisplayableObject@@UAEXH@Z 00407e90 f i Ball.obj
 0001:00006ea0       ?virtKeyUp@DisplayableObject@@UAEXH@Z 00407ea0 f i Ball.obj
 0001:00006eb0       ?virtMouseDown@DisplayableObject@@UAEXHHH@Z 00407eb0 f i Ball.obj
 0001:00006ec0       ?virtMouseMoved@DisplayableObject@@UAEXHH@Z 00407ec0 f i Ball.obj
 0001:00006ed0       ?virtMouseUp@DisplayableObject@@UAEXHHH@Z 00407ed0 f i Ball.obj
 0001:00006ee0       ?virtNotify@DisplayableObject@@UAEJHHH@Z 00407ee0 f i Ball.obj
 0001:00006f00       ?virtSingleItemMouseDown@DisplayableObject@@UAE_NHHH@Z 00407f00 f i Ball.obj
 0001:00006f20       ?initialiseState@Leaderboard@@UAEXXZ 00407f20 f   Leaderboard.obj
 0001:00007000       ?drawForegroundString@BaseEngine@@QAEXHHPBDIPAVFont@@@Z 00408000 f i Leaderboard.obj
 0001:00007040       ?lockForegroundForDrawing@BaseEngine@@QAEXXZ 00408040 f i Leaderboard.obj
 0001:00007060       ?mySDLLockSurface@DrawingSurface@@QAEXXZ 00408060 f i Leaderboard.obj
 0001:000070b0       ?mySDLUnlockSurface@DrawingSurface@@QAEXXZ 004080b0 f i Leaderboard.obj
 0001:00007100       ?unlockForegroundForDrawing@BaseEngine@@QAEXXZ 00408100 f i Leaderboard.obj
 0001:00007120       ?virtDraw@Rock@@UAEXXZ     00408120 f   Rock.obj
 0001:000071a0       ?virtDoUpdate@Rock@@UAEXH@Z 004081a0 f   Rock.obj
 0001:000075c0       ?resetObject@Rock@@UAEXXZ  004085c0 f   Rock.obj
 0001:00007680       ?calculatePath@Rock@@QAEXXZ 00408680 f   Rock.obj
 0001:00007910       ??$?0$$V@?$_Compressed_pair@V?$allocator@D@std@@V?$_String_val@U?$_Simple_types@D@std@@@2@$00@std@@QAE@U_Zero_then_variadic_args_t@1@@Z 00408910 f i Rock.obj
 0001:00007940       ??$?0$$V@?$_Compressed_pair@V?$allocator@U?$_Tree_node@U?$pair@$$CBV?$basic_string@DU?$char_traits@D@std@@V?$allocator@D@2@@std@@V?$shared_ptr@VRawImageData@@@2@@std@@PAX@std@@@std@@V?$_Tree_val@U?$_Tree_simple_types@U?$pair@$$CBV?$basic_string@DU?$char_traits@D@std@@V?$allocator@D@2@@std@@V?$shared_ptr@VRawImageData@@@2@@std@@@std@@@2@$00@std@@QAE@U_Zero_then_variadic_args_t@1@@Z 00408940 f i Rock.obj
 0001:00007970       ??$?0$$V@?$_Compressed_pair@V?$allocator@U?$_Tree_node@U?$pair@$$CBV?$basic_string@DU?$char_traits@D@std@@V?$allocator@D@2@@std@@V?$weak_ptr@VRawImageData@@@2@@std@@PAX@std@@@std@@V?$_Tree_val@U?$_Tree_simple_types@U?$pair@$$CBV?$basic_string@DU?$char_traits@D@std@@V?$allocator@D@2@@std@@V?$weak_ptr@VRawImageData@@@2@@std@@@std@@@2@$00@std@@QAE@U_Zero_then_variadic_args_t@1@@Z 00408970 f i Rock.obj
 0001:000079a0       ??$?0AAPAU?$_Tree_node@U?$pair@$$CBV?$basic_string@DU?$char_traits@D@std@@V?$allocator@D@2@@std@@V?$shared_ptr@VRawImageData@@@2@@std@@PAX@std@@_N$0A@@?$pair@PAU?$_Tree_node@U?$pair@$$CBV?$basic_string@DU?$char_traits@D@std@@V?$allocator@D@2@@std@@V?$shared_ptr@VRawImageData@@@2@@std@@PAX@std@@_N@std@@QAE@AAPAU?$_Tree_node@U?$pair@$$CBV?$basic_string@DU?$char_traits@D@std@@V?$allocator@D@2@@std@@V?$shared_ptr@VRawImageData@@@2@@std@@PAX@1@$$QA_N@Z 004089a0 f i Rock.obj
 0001:000079f0       ??$?0AAPAU?$_Tree_node@U?$pair@$$CBV?$basic_string@DU?$char_traits@D@std@@V?$allocator@D@2@@std@@V?$weak_ptr@VRawImageData@@@2@@std@@PAX@std@@_N$0A@@?$pair@PAU?$_Tree_node@U?$pair@$$CBV?$basic_string@DU?$char_traits@D@std@@V?$allocator@D@2@@std@@V?$weak_ptr@VRawImageData@@@2@@std@@PAX@std@@_N@std@@QAE@AAPAU?$_Tree_node@U?$pair@$$CBV?$basic_string@DU?$char_traits@D@std@@V?$allocator@D@2@@std@@V?$weak_ptr@VRawImageData@@@2@@std@@PAX@1@$$QA_N@Z 004089f0 f i Rock.obj
 0001:00007a40       ??$?0AAV?$basic_string@DU?$char_traits@D@std@@V?$allocator@D@2@@std@@AAV?$shared_ptr@VRawImageData@@@1@$0A@@?$pair@V?$basic_string@DU?$char_traits@D@std@@V?$allocator@D@2@@std@@V?$shared_ptr@VRawImageData@@@2@@std@@QAE@AAV?$basic_string@DU?$char_traits@D@std@@V?$allocator@D@2@@1@AAV?$shared_ptr@VRawImageData@@@1@@Z 00408a40 f i Rock.obj
 0001:00007a90       ??$?0AAV?$basic_string@DU?$char_traits@D@std@@V?$allocator@D@2@@std@@AAV?$weak_ptr@VRawImageData@@@1@$0A@@?$pair@V?$basic_string@DU?$char_traits@D@std@@V?$allocator@D@2@@std@@V?$weak_ptr@VRawImageData@@@2@@std@@QAE@AAV?$basic_string@DU?$char_traits@D@std@@V?$allocator@D@2@@1@AAV?$weak_ptr@VRawImageData@@@1@@Z 00408a90 f i Rock.obj
 0001:00007ae0       ??$?0ABU?$less@V?$basic_string@DU?$char_traits@D@std@@V?$allocator@D@2@@std@@@std@@U_Zero_then_variadic_args_t@1@@?$_Compressed_pair@U?$less@V?$basic_string@DU?$char_traits@D@std@@V?$allocator@D@2@@std@@@std@@V?$_Compressed_pair@V?$allocator@U?$_Tree_node@U?$pair@$$CBV?$basic_string@DU?$char_traits@D@std@@V?$allocator@D@2@@std@@V?$shared_ptr@VRawImageData@@@2@@std@@PAX@std@@@std@@V?$_Tree_val@U?$_Tree_simple_types@U?$pair@$$CBV?$basic_string@DU?$char_traits@D@std@@V?$allocator@D@2@@std@@V?$shared_ptr@VRawImageData@@@2@@std@@@std@@@2@$00@2@$00@std@@QAE@U_One_then_variadic_args_t@1@ABU?$less@V?$basic_string@DU?$char_traits@D@std@@V?$allocator@D@2@@std@@@1@$$QAU_Zero_then_variadic_args_t@1@@Z 00408ae0 f i Rock.obj
 0001:00007b30       ??$?0ABU?$less@V?$basic_string@DU?$char_traits@D@std@@V?$allocator@D@2@@std@@@std@@U_Zero_then_variadic_args_t@1@@?$_Compressed_pair@U?$less@V?$basic_string@DU?$char_traits@D@std@@V?$allocator@D@2@@std@@@std@@V?$_Compressed_pair@V?$allocator@U?$_Tree_node@U?$pair@$$CBV?$basic_string@DU?$char_traits@D@std@@V?$allocator@D@2@@std@@V?$weak_ptr@VRawImageData@@@2@@std@@PAX@std@@@std@@V?$_Tree_val@U?$_Tree_simple_types@U?$pair@$$CBV?$basic_string@DU?$char_traits@D@std@@V?$allocator@D@2@@std@@V?$weak_ptr@VRawImageData@@@2@@std@@@std@@@2@$00@2@$00@std@@QAE@U_One_then_variadic_args_t@1@ABU?$less@V?$basic_string@DU?$char_traits@D@std@@V?$allocator@D@2@@std@@@1@$$QAU_Zero_then_variadic_args_t@1@@Z 00408b30 f i Rock.obj
 0001:00007b80       ??$?0D@?$allocator@U_Container_proxy@std@@@std@@QAE@ABV?$allocator@D@1@@Z 00408b80 f i Rock.obj
 0001:00007ba0       ??$?0PAU?$_Tree_node@U?$pair@$$CBV?$basic_string@DU?$char_traits@D@std@@V?$allocator@D@2@@std@@V?$shared_ptr@VRawImageData@@@2@@std@@PAX@std@@_N$0A@@?$pair@PAU?$_Tree_node@U?$pair@$$CBV?$basic_string@DU?$char_traits@D@std@@V?$allocator@D@2@@std@@V?$shared_ptr@VRawImageData@@@2@@std@@PAX@std@@_N@std@@QAE@$$QAPAU?$_Tree_node@U?$pair@$$CBV?$basic_string@DU?$char_traits@D@std@@V?$allocator@D@2@@std@@V?$shared_ptr@VRawImageData@@@2@@std@@PAX@1@$$QA_N@Z 00408ba0 f i Rock.obj
 0001:00007bf0       ??$?0PAU?$_Tree_node@U?$pair@$$CBV?$basic_string@DU?$char_traits@D@std@@V?$allocator@D@2@@std@@V?$weak_ptr@VRawImageData@@@2@@std@@PAX@std@@_N$0A@@?$pair@PAU?$_Tree_node@U?$pair@$$CBV?$basic_string@DU?$char_traits@D@std@@V?$allocator@D@2@@std@@V?$weak_ptr@VRawImageData@@@2@@std@@PAX@std@@_N@std@@QAE@$$QAPAU?$_Tree_node@U?$pair@$$CBV?$basic_string@DU?$char_traits@D@std@@V?$allocator@D@2@@std@@V?$weak_ptr@VRawImageData@@@2@@std@@PAX@1@$$QA_N@Z 00408bf0 f i Rock.obj
 0001:00007c40       ??$?0U?$_Tree_node@U?$pair@$$CBV?$basic_string@DU?$char_traits@D@std@@V?$allocator@D@2@@std@@V?$shared_ptr@VRawImageData@@@2@@std@@PAX@std@@@?$allocator@U_Container_proxy@std@@@std@@QAE@ABV?$allocator@U?$_Tree_node@U?$pair@$$CBV?$basic_string@DU?$char_traits@D@std@@V?$allocator@D@2@@std@@V?$shared_ptr@VRawImageData@@@2@@std@@PAX@std@@@1@@Z 00408c40 f i Rock.obj
 0001:00007c60       ??$?0U?$_Tree_node@U?$pair@$$CBV?$basic_string@DU?$char_traits@D@std@@V?$allocator@D@2@@std@@V?$weak_ptr@VRawImageData@@@2@@std@@PAX@std@@@?$allocator@U_Container_proxy@std@@@std@@QAE@ABV?$allocator@U?$_Tree_node@U?$pair@$$CBV?$basic_string@DU?$char_traits@D@std@@V?$allocator@D@2@@std@@V?$weak_ptr@VRawImageData@@@2@@std@@PAX@std@@@1@@Z 00408c60 f i Rock.obj
 0001:00007c80       ??$?0U?$pair@V?$basic_string@DU?$char_traits@D@std@@V?$allocator@D@2@@std@@V?$shared_ptr@VRawImageData@@@2@@std@@@?$_Tree_temp_node@V?$allocator@U?$_Tree_node@U?$pair@$$CBV?$basic_string@DU?$char_traits@D@std@@V?$allocator@D@2@@std@@V?$shared_ptr@VRawImageData@@@2@@std@@PAX@std@@@std@@@std@@QAE@AAV?$allocator@U?$_Tree_node@U?$pair@$$CBV?$basic_string@DU?$char_traits@D@std@@V?$allocator@D@2@@std@@V?$shared_ptr@VRawImageData@@@2@@std@@PAX@std@@@1@PAU?$_Tree_node@U?$pair@$$CBV?$basic_string@DU?$char_traits@D@std@@V?$allocator@D@2@@std@@V?$shared_ptr@VRawImageData@@@2@@std@@PAX@1@$$QAU?$pair@V?$basic_string@DU?$char_traits@D@std@@V?$allocator@D@2@@std@@V?$shared_ptr@VRawImageData@@@2@@1@@Z 00408c80 f i Rock.obj
 0001:00007d90       ??$?0U?$pair@V?$basic_string@DU?$char_traits@D@std@@V?$allocator@D@2@@std@@V?$weak_ptr@VRawImageData@@@2@@std@@@?$_Tree_temp_node@V?$allocator@U?$_Tree_node@U?$pair@$$CBV?$basic_string@DU?$char_traits@D@std@@V?$allocator@D@2@@std@@V?$weak_ptr@VRawImageData@@@2@@std@@PAX@std@@@std@@@std@@QAE@AAV?$allocator@U?$_Tree_node@U?$pair@$$CBV?$basic_string@DU?$char_traits@D@std@@V?$allocator@D@2@@std@@V?$weak_ptr@VRawImageData@@@2@@std@@PAX@std@@@1@PAU?$_Tree_node@U?$pair@$$CBV?$basic_string@DU?$char_traits@D@std@@V?$allocator@D@2@@std@@V?$weak_ptr@VRawImageData@@@2@@std@@PAX@1@$$QAU?$pair@V?$basic_string@DU?$char_traits@D@std@@V?$allocator@D@2@@std@@V?$weak_ptr@VRawImageData@@@2@@1@@Z 00408d90 f i Rock.obj
 0001:00007ea0       ??$?0V?$_Tree_iterator@V?$_Tree_val@U?$_Tree_simple_types@U?$pair@$$CBV?$basic_string@DU?$char_traits@D@std@@V?$allocator@D@2@@std@@V?$shared_ptr@VRawImageData@@@2@@std@@@std@@@std@@@std@@AB_N$0A@@?$pair@V?$_Tree_iterator@V?$_Tree_val@U?$_Tree_simple_types@U?$pair@$$CBV?$basic_string@DU?$char_traits@D@std@@V?$allocator@D@2@@std@@V?$shared_ptr@VRawImageData@@@2@@std@@@std@@@std@@@std@@_N@std@@QAE@$$QAV?$_Tree_iterator@V?$_Tree_val@U?$_Tree_simple_types@U?$pair@$$CBV?$basic_string@DU?$char_traits@D@std@@V?$allocator@D@2@@std@@V?$shared_ptr@VRawImageData@@@2@@std@@@std@@@std@@@1@AB_N@Z 00408ea0 f i Rock.obj
 0001:00007ef0       ??$?0V?$_Tree_iterator@V?$_Tree_val@U?$_Tree_simple_types@U?$pair@$$CBV?$basic_string@DU?$char_traits@D@std@@V?$allocator@D@2@@std@@V?$weak_ptr@VRawImageData@@@2@@std@@@std@@@std@@@std@@AB_N$0A@@?$pair@V?$_Tree_iterator@V?$_Tree_val@U?$_Tree_simple_types@U?$pair@$$CBV?$basic_string@DU?$char_traits@D@std@@V?$allocator@D@2@@std@@V?$weak_ptr@VRawImageData@@@2@@std@@@std@@@std@@@std@@_N@std@@QAE@$$QAV?$_Tree_iterator@V?$_Tree_val@U?$_Tree_simple_types@U?$pair@$$CBV?$basic_string@DU?$char_traits@D@std@@V?$allocator@D@2@@std@@V?$weak_ptr@VRawImageData@@@2@@std@@@std@@@std@@@1@AB_N@Z 00408ef0 f i Rock.obj
 0001:00007f40       ??$?0V?$allocator@D@std@@$$V@?$_Compressed_pair@V?$allocator@D@std@@V?$_String_val@U?$_Simple_types@D@std@@@2@$00@std@@QAE@U_One_then_variadic_args_t@1@$$QAV?$allocator@D@1@@Z 00408f40 f i Rock.obj
 0001:00007f70       ??$?0V?$basic_string@DU?$char_traits@D@std@@V?$allocator@D@2@@std@@V?$shared_ptr@VRawImageData@@@1@$0A@@?$pair@$$CBV?$basic_string@DU?$char_traits@D@std@@V?$allocator@D@2@@std@@V?$shared_ptr@VRawImageData@@@2@@std@@QAE@$$QAU?$pair@V?$basic_string@DU?$char_traits@D@std@@V?$allocator@D@2@@std@@V?$shared_ptr@VRawImageData@@@2@@1@@Z 00408f70 f i Rock.obj
 0001:00007fc0       ??$?0V?$basic_string@DU?$char_traits@D@std@@V?$allocator@D@2@@std@@V?$weak_ptr@VRawImageData@@@1@$0A@@?$pair@$$CBV?$basic_string@DU?$char_traits@D@std@@V?$allocator@D@2@@std@@V?$weak_ptr@VRawImageData@@@2@@std@@QAE@$$QAU?$pair@V?$basic_string@DU?$char_traits@D@std@@V?$allocator@D@2@@std@@V?$weak_ptr@VRawImageData@@@2@@1@@Z 00408fc0 f i Rock.obj
 0001:00008010       ??$?0VRawImageData@@$0A@@?$shared_ptr@VRawImageData@@@std@@QAE@PAVRawImageData@@@Z 00409010 f i Rock.obj
 0001:00008100       ??$?0VRawImageData@@$0A@@?$weak_ptr@VRawImageData@@@std@@QAE@ABV?$shared_ptr@VRawImageData@@@1@@Z 00409100 f i Rock.obj
 0001:00008130       ??$?6DU?$char_traits@D@std@@V?$allocator@D@1@@std@@YAAAV?$basic_ostream@DU?$char_traits@D@std@@@0@AAV10@ABV?$basic_string@DU?$char_traits@D@std@@V?$allocator@D@2@@0@@Z 00409130 f i Rock.obj
 0001:00008160       ??$?6U?$char_traits@D@std@@@std@@YAAAV?$basic_ostream@DU?$char_traits@D@std@@@0@AAV10@PBD@Z 00409160 f i Rock.obj
 0001:00008560       ??$?9VRawImageData@@@std@@YA_NABV?$shared_ptr@VRawImageData@@@0@$$T@Z 00409560 f i Rock.obj
 0001:000085a0       ??$?MDU?$char_traits@D@std@@V?$allocator@D@1@@std@@YA_NABV?$basic_string@DU?$char_traits@D@std@@V?$allocator@D@2@@0@0@Z 004095a0 f i Rock.obj
 0001:000085e0       ??$_Adl_verify_range@V?$_Vector_iterator@V?$_Vector_val@U?$_Simple_types@PAVDisplayableObject@@@std@@@std@@@std@@V12@@std@@YAXABV?$_Vector_iterator@V?$_Vector_val@U?$_Simple_types@PAVDisplayableObject@@@std@@@std@@@0@0@Z 004095e0 f i Rock.obj
 0001:00008600       ??$_Alloc_proxy@V?$allocator@U_Container_proxy@std@@@std@@@_Container_base12@std@@QAEX$$QAV?$allocator@U_Container_proxy@std@@@1@@Z 00409600 f i Rock.obj
 0001:00008660       ??$_Allocate@$07U_Default_allocate_traits@std@@$0A@@std@@YAPAXI@Z 00409660 f i Rock.obj
 0001:000086a0       ??$_Allocate_manually_vector_aligned@U_Default_allocate_traits@std@@@std@@YAPAXI@Z 004096a0 f i Rock.obj
 0001:00008790       ??$_Buyheadnode@V?$allocator@U?$_Tree_node@U?$pair@$$CBV?$basic_string@DU?$char_traits@D@std@@V?$allocator@D@2@@std@@V?$shared_ptr@VRawImageData@@@2@@std@@PAX@std@@@std@@@?$_Tree_node@U?$pair@$$CBV?$basic_string@DU?$char_traits@D@std@@V?$allocator@D@2@@std@@V?$shared_ptr@VRawImageData@@@2@@std@@PAX@std@@SAPAU01@AAV?$allocator@U?$_Tree_node@U?$pair@$$CBV?$basic_string@DU?$char_traits@D@std@@V?$allocator@D@2@@std@@V?$shared_ptr@VRawImageData@@@2@@std@@PAX@std@@@1@@Z 00409790 f i Rock.obj
 0001:00008810       ??$_Buyheadnode@V?$allocator@U?$_Tree_node@U?$pair@$$CBV?$basic_string@DU?$char_traits@D@std@@V?$allocator@D@2@@std@@V?$weak_ptr@VRawImageData@@@2@@std@@PAX@std@@@std@@@?$_Tree_node@U?$pair@$$CBV?$basic_string@DU?$char_traits@D@std@@V?$allocator@D@2@@std@@V?$weak_ptr@VRawImageData@@@2@@std@@PAX@std@@SAPAU01@AAV?$allocator@U?$_Tree_node@U?$pair@$$CBV?$basic_string@DU?$char_traits@D@std@@V?$allocator@D@2@@std@@V?$weak_ptr@VRawImageData@@@2@@std@@PAX@std@@@1@@Z 00409810 f i Rock.obj
 0001:00008890       ??$_Construct@$00PBD@?$basic_string@DU?$char_traits@D@std@@V?$allocator@D@2@@std@@AAEXQBDI@Z 00409890 f i Rock.obj
 0001:00008a90       ??$_Construct@$01PBD@?$basic_string@DU?$char_traits@D@std@@V?$allocator@D@2@@std@@AAEXQBDI@Z 00409a90 f i Rock.obj
 0001:00008c40       ??$_Construct_from_weak@VRawImageData@@@?$_Ptr_base@VRawImageData@@@std@@IAE_NABV?$weak_ptr@VRawImageData@@@1@@Z 00409c40 f i Rock.obj
 0001:00008ca0       ??$_Construct_in_place@PADAAPAD@std@@YAXAAPAD0@Z 00409ca0 f i Rock.obj
 0001:00008cf0       ??$_Construct_in_place@PADABQAD@std@@YAXAAPADABQAD@Z 00409cf0 f i Rock.obj
 0001:00008d40       ??$_Construct_in_place@PAU?$_Tree_node@U?$pair@$$CBV?$basic_string@DU?$char_traits@D@std@@V?$allocator@D@2@@std@@V?$shared_ptr@VRawImageData@@@2@@std@@PAX@std@@AAPAU12@@std@@YAXAAPAU?$_Tree_node@U?$pair@$$CBV?$basic_string@DU?$char_traits@D@std@@V?$allocator@D@2@@std@@V?$shared_ptr@VRawImageData@@@2@@std@@PAX@0@0@Z 00409d40 f i Rock.obj
 0001:00008d90       ??$_Construct_in_place@PAU?$_Tree_node@U?$pair@$$CBV?$basic_string@DU?$char_traits@D@std@@V?$allocator@D@2@@std@@V?$shared_ptr@VRawImageData@@@2@@std@@PAX@std@@ABQAU12@@std@@YAXAAPAU?$_Tree_node@U?$pair@$$CBV?$basic_string@DU?$char_traits@D@std@@V?$allocator@D@2@@std@@V?$shared_ptr@VRawImageData@@@2@@std@@PAX@0@ABQAU10@@Z 00409d90 f i Rock.obj
 0001:00008de0       ??$_Construct_in_place@PAU?$_Tree_node@U?$pair@$$CBV?$basic_string@DU?$char_traits@D@std@@V?$allocator@D@2@@std@@V?$weak_ptr@VRawImageData@@@2@@std@@PAX@std@@AAPAU12@@std@@YAXAAPAU?$_Tree_node@U?$pair@$$CBV?$basic_string@DU?$char_traits@D@std@@V?$allocator@D@2@@std@@V?$weak_ptr@VRawImageData@@@2@@std@@PAX@0@0@Z 00409de0 f i Rock.obj
 0001:00008e30       ??$_Construct_in_place@PAU?$_Tree_node@U?$pair@$$CBV?$basic_string@DU?$char_traits@D@std@@V?$allocator@D@2@@std@@V?$weak_ptr@VRawImageData@@@2@@std@@PAX@std@@ABQAU12@@std@@YAXAAPAU?$_Tree_node@U?$pair@$$CBV?$basic_string@DU?$char_traits@D@std@@V?$allocator@D@2@@std@@V?$weak_ptr@VRawImageData@@@2@@std@@PAX@0@ABQAU10@@Z 00409e30 f i Rock.obj
 0001:00008e80       ??$_Construct_in_place@U_Container_proxy@std@@PAU_Container_base12@2@@std@@YAXAAU_Container_proxy@0@$$QAPAU_Container_base12@0@@Z 00409e80 f i Rock.obj
 0001:00008ee0       ??$_Convert_size@II@std@@YAII@Z 00409ee0 f i Rock.obj
 0001:00008ef0       ??$_Copy_memmove@PAPAVDisplayableObject@@PAPAV1@@std@@YAPAPAVDisplayableObject@@PAPAV1@00@Z 00409ef0 f i Rock.obj
 0001:00008f80       ??$_Could_compare_equal_to_value_type@PAPAVDisplayableObject@@PAV1@@std@@YA_NABQAVDisplayableObject@@@Z 00409f80 f i Rock.obj
 0001:00008f90       ??$_Deallocate@$07$0A@@std@@YAXPAXI@Z 00409f90 f i Rock.obj
 0001:00009010       ??$_Deallocate_plain@V?$allocator@U_Container_proxy@std@@@std@@@std@@YAXAAV?$allocator@U_Container_proxy@std@@@0@QAU_Container_proxy@0@@Z 0040a010 f i Rock.obj
 0001:00009070       ??$_Debug_lt_pred@ABU?$less@V?$basic_string@DU?$char_traits@D@std@@V?$allocator@D@2@@std@@@std@@ABV?$basic_string@DU?$char_traits@D@std@@V?$allocator@D@2@@2@ABV32@$0A@@std@@YA_NABU?$less@V?$basic_string@DU?$char_traits@D@std@@V?$allocator@D@2@@std@@@0@ABV?$basic_string@DU?$char_traits@D@std@@V?$allocator@D@2@@0@1@Z 0040a070 f i Rock.obj
 0001:00009130       ??$_Delete_plain_internal@V?$allocator@U_Container_proxy@std@@@std@@@std@@YAXAAV?$allocator@U_Container_proxy@std@@@0@QAU_Container_proxy@0@@Z 0040a130 f i Rock.obj
 0001:00009150       ??$_Destroy_in_place@PAD@std@@YAXAAPAD@Z 0040a150 f i Rock.obj
 0001:00009160       ??$_Destroy_in_place@PAU?$_Tree_node@U?$pair@$$CBV?$basic_string@DU?$char_traits@D@std@@V?$allocator@D@2@@std@@V?$shared_ptr@VRawImageData@@@2@@std@@PAX@std@@@std@@YAXAAPAU?$_Tree_node@U?$pair@$$CBV?$basic_string@DU?$char_traits@D@std@@V?$allocator@D@2@@std@@V?$shared_ptr@VRawImageData@@@2@@std@@PAX@0@@Z 0040a160 f i Rock.obj
 0001:00009170       ??$_Destroy_in_place@PAU?$_Tree_node@U?$pair@$$CBV?$basic_string@DU?$char_traits@D@std@@V?$allocator@D@2@@std@@V?$weak_ptr@VRawImageData@@@2@@std@@PAX@std@@@std@@YAXAAPAU?$_Tree_node@U?$pair@$$CBV?$basic_string@DU?$char_traits@D@std@@V?$allocator@D@2@@std@@V?$weak_ptr@VRawImageData@@@2@@std@@PAX@0@@Z 0040a170 f i Rock.obj
 0001:00009180       ??$_Emplace@U?$pair@V?$basic_string@DU?$char_traits@D@std@@V?$allocator@D@2@@std@@V?$shared_ptr@VRawImageData@@@2@@std@@@?$_Tree@V?$_Tmap_traits@V?$basic_string@DU?$char_traits@D@std@@V?$allocator@D@2@@std@@V?$shared_ptr@VRawImageData@@@2@U?$less@V?$basic_string@DU?$char_traits@D@std@@V?$allocator@D@2@@std@@@2@V?$allocator@U?$pair@$$CBV?$basic_string@DU?$char_traits@D@std@@V?$allocator@D@2@@std@@V?$shared_ptr@VRawImageData@@@2@@std@@@2@$0A@@std@@@std@@IAE?AU?$pair@PAU?$_Tree_node@U?$pair@$$CBV?$basic_string@DU?$char_traits@D@std@@V?$allocator@D@2@@std@@V?$shared_ptr@VRawImageData@@@2@@std@@PAX@std@@_N@1@$$QAU?$pair@V?$basic_string@DU?$char_traits@D@std@@V?$allocator@D@2@@std@@V?$shared_ptr@VRawImageData@@@2@@1@@Z 0040a180 f i Rock.obj
 0001:000092b0       ??$_Emplace@U?$pair@V?$basic_string@DU?$char_traits@D@std@@V?$allocator@D@2@@std@@V?$weak_ptr@VRawImageData@@@2@@std@@@?$_Tree@V?$_Tmap_traits@V?$basic_string@DU?$char_traits@D@std@@V?$allocator@D@2@@std@@V?$weak_ptr@VRawImageData@@@2@U?$less@V?$basic_string@DU?$char_traits@D@std@@V?$allocator@D@2@@std@@@2@V?$allocator@U?$pair@$$CBV?$basic_string@DU?$char_traits@D@std@@V?$allocator@D@2@@std@@V?$weak_ptr@VRawImageData@@@2@@std@@@2@$0A@@std@@@std@@IAE?AU?$pair@PAU?$_Tree_node@U?$pair@$$CBV?$basic_string@DU?$char_traits@D@std@@V?$allocator@D@2@@std@@V?$weak_ptr@VRawImageData@@@2@@std@@PAX@std@@_N@1@$$QAU?$pair@V?$basic_string@DU?$char_traits@D@std@@V?$allocator@D@2@@std@@V?$weak_ptr@VRawImageData@@@2@@1@@Z 0040a2b0 f i Rock.obj
 0001:000093e0       ??$_Erase_head@V?$allocator@U?$_Tree_node@U?$pair@$$CBV?$basic_string@DU?$char_traits@D@std@@V?$allocator@D@2@@std@@V?$weak_ptr@VRawImageData@@@2@@std@@PAX@std@@@std@@@?$_Tree_val@U?$_Tree_simple_types@U?$pair@$$CBV?$basic_string@DU?$char_traits@D@std@@V?$allocator@D@2@@std@@V?$weak_ptr@VRawImageData@@@2@@std@@@std@@@std@@QAEXAAV?$allocator@U?$_Tree_node@U?$pair@$$CBV?$basic_string@DU?$char_traits@D@std@@V?$allocator@D@2@@std@@V?$weak_ptr@VRawImageData@@@2@@std@@PAX@std@@@1@@Z 0040a3e0 f i Rock.obj
 0001:00009430       ??$_Erase_tree@V?$allocator@U?$_Tree_node@U?$pair@$$CBV?$basic_string@DU?$char_traits@D@std@@V?$allocator@D@2@@std@@V?$weak_ptr@VRawImageData@@@2@@std@@PAX@std@@@std@@@?$_Tree_val@U?$_Tree_simple_types@U?$pair@$$CBV?$basic_string@DU?$char_traits@D@std@@V?$allocator@D@2@@std@@V?$weak_ptr@VRawImageData@@@2@@std@@@std@@@std@@QAEXAAV?$allocator@U?$_Tree_node@U?$pair@$$CBV?$basic_string@DU?$char_traits@D@std@@V?$allocator@D@2@@std@@V?$weak_ptr@VRawImageData@@@2@@std@@PAX@std@@@1@PAU?$_Tree_node@U?$pair@$$CBV?$basic_string@DU?$char_traits@D@std@@V?$allocator@D@2@@std@@V?$weak_ptr@VRawImageData@@@2@@std@@PAX@1@@Z 0040a430 f i Rock.obj
 0001:00009490       ??$_Find@V?$basic_string@DU?$char_traits@D@std@@V?$allocator@D@2@@std@@@?$_Tree@V?$_Tmap_traits@V?$basic_string@DU?$char_traits@D@std@@V?$allocator@D@2@@std@@V?$weak_ptr@VRawImageData@@@2@U?$less@V?$basic_string@DU?$char_traits@D@std@@V?$allocator@D@2@@std@@@2@V?$allocator@U?$pair@$$CBV?$basic_string@DU?$char_traits@D@std@@V?$allocator@D@2@@std@@V?$weak_ptr@VRawImageData@@@2@@std@@@2@$0A@@std@@@std@@ABEPAU?$_Tree_node@U?$pair@$$CBV?$basic_string@DU?$char_traits@D@std@@V?$allocator@D@2@@std@@V?$weak_ptr@VRawImageData@@@2@@std@@PAX@1@ABV?$basic_string@DU?$char_traits@D@std@@V?$allocator@D@2@@1@@Z 0040a490 f i Rock.obj
 0001:000094f0       ??$_Find_lower_bound@V?$basic_string@DU?$char_traits@D@std@@V?$allocator@D@2@@std@@@?$_Tree@V?$_Tmap_traits@V?$basic_string@DU?$char_traits@D@std@@V?$allocator@D@2@@std@@V?$shared_ptr@VRawImageData@@@2@U?$less@V?$basic_string@DU?$char_traits@D@std@@V?$allocator@D@2@@std@@@2@V?$allocator@U?$pair@$$CBV?$basic_string@DU?$char_traits@D@std@@V?$allocator@D@2@@std@@V?$shared_ptr@VRawImageData@@@2@@std@@@2@$0A@@std@@@std@@IBE?AU?$_Tree_find_result@PAU?$_Tree_node@U?$pair@$$CBV?$basic_string@DU?$char_traits@D@std@@V?$allocator@D@2@@std@@V?$shared_ptr@VRawImageData@@@2@@std@@PAX@std@@@1@ABV?$basic_string@DU?$char_traits@D@std@@V?$allocator@D@2@@1@@Z 0040a4f0 f i Rock.obj
 0001:000095e0       ??$_Find_lower_bound@V?$basic_string@DU?$char_traits@D@std@@V?$allocator@D@2@@std@@@?$_Tree@V?$_Tmap_traits@V?$basic_string@DU?$char_traits@D@std@@V?$allocator@D@2@@std@@V?$weak_ptr@VRawImageData@@@2@U?$less@V?$basic_string@DU?$char_traits@D@std@@V?$allocator@D@2@@std@@@2@V?$allocator@U?$pair@$$CBV?$basic_string@DU?$char_traits@D@std@@V?$allocator@D@2@@std@@V?$weak_ptr@VRawImageData@@@2@@std@@@2@$0A@@std@@@std@@IBE?AU?$_Tree_find_result@PAU?$_Tree_node@U?$pair@$$CBV?$basic_string@DU?$char_traits@D@std@@V?$allocator@D@2@@std@@V?$weak_ptr@VRawImageData@@@2@@std@@PAX@std@@@1@ABV?$basic_string@DU?$char_traits@D@std@@V?$allocator@D@2@@1@@Z 0040a5e0 f i Rock.obj
 0001:000096d0       ??$_Find_unchecked@PAPAVDisplayableObject@@PAV1@@std@@YAPAPAVDisplayableObject@@PAPAV1@QAPAV1@ABQAV1@@Z 0040a6d0 f i Rock.obj
 0001:00009770       ??$_Freenode0@V?$allocator@U?$_Tree_node@U?$pair@$$CBV?$basic_string@DU?$char_traits@D@std@@V?$allocator@D@2@@std@@V?$weak_ptr@VRawImageData@@@2@@std@@PAX@std@@@std@@@?$_Tree_node@U?$pair@$$CBV?$basic_string@DU?$char_traits@D@std@@V?$allocator@D@2@@std@@V?$weak_ptr@VRawImageData@@@2@@std@@PAX@std@@SAXAAV?$allocator@U?$_Tree_node@U?$pair@$$CBV?$basic_string@DU?$char_traits@D@std@@V?$allocator@D@2@@std@@V?$weak_ptr@VRawImageData@@@2@@std@@PAX@std@@@1@PAU01@@Z 0040a770 f i Rock.obj
 0001:00009800       ??$_Freenode@V?$allocator@U?$_Tree_node@U?$pair@$$CBV?$basic_string@DU?$char_traits@D@std@@V?$allocator@D@2@@std@@V?$weak_ptr@VRawImageData@@@2@@std@@PAX@std@@@std@@@?$_Tree_node@U?$pair@$$CBV?$basic_string@DU?$char_traits@D@std@@V?$allocator@D@2@@std@@V?$weak_ptr@VRawImageData@@@2@@std@@PAX@std@@SAXAAV?$allocator@U?$_Tree_node@U?$pair@$$CBV?$basic_string@DU?$char_traits@D@std@@V?$allocator@D@2@@std@@V?$weak_ptr@VRawImageData@@@2@@std@@PAX@std@@@1@PAU01@@Z 0040a800 f i Rock.obj
 0001:00009880       ??$_Get_size_of_n@$00@std@@YAII@Z 0040a880 f i Rock.obj
 0001:000098a0       ??$_Get_size_of_n@$07@std@@YAII@Z 0040a8a0 f i Rock.obj
 0001:000098e0       ??$_Get_size_of_n@$0DE@@std@@YAII@Z 0040a8e0 f i Rock.obj
 0001:00009910       ??$_Get_unwrapped@AAV?$_Vector_iterator@V?$_Vector_val@U?$_Simple_types@PAVDisplayableObject@@@std@@@std@@@std@@@std@@YA?A_TAAV?$_Vector_iterator@V?$_Vector_val@U?$_Simple_types@PAVDisplayableObject@@@std@@@std@@@0@@Z 0040a910 f i Rock.obj
 0001:00009920       ??$_Get_unwrapped@ABV?$_Vector_iterator@V?$_Vector_val@U?$_Simple_types@PAVDisplayableObject@@@std@@@std@@@std@@@std@@YA?A_TABV?$_Vector_iterator@V?$_Vector_val@U?$_Simple_types@PAVDisplayableObject@@@std@@@std@@@0@@Z 0040a920 f i Rock.obj
 0001:00009930       ??$_Insert_string@DU?$char_traits@D@std@@I@std@@YAAAV?$basic_ostream@DU?$char_traits@D@std@@@0@AAV10@QBDI@Z 0040a930 f i Rock.obj
 0001:00009cb0       ??$_Kfn@$$CBV?$basic_string@DU?$char_traits@D@std@@V?$allocator@D@2@@std@@V?$shared_ptr@VRawImageData@@@2@@?$_Tmap_traits@V?$basic_string@DU?$char_traits@D@std@@V?$allocator@D@2@@std@@V?$shared_ptr@VRawImageData@@@2@U?$less@V?$basic_string@DU?$char_traits@D@std@@V?$allocator@D@2@@std@@@2@V?$allocator@U?$pair@$$CBV?$basic_string@DU?$char_traits@D@std@@V?$allocator@D@2@@std@@V?$shared_ptr@VRawImageData@@@2@@std@@@2@$0A@@std@@SAABV?$basic_string@DU?$char_traits@D@std@@V?$allocator@D@2@@1@ABU?$pair@$$CBV?$basic_string@DU?$char_traits@D@std@@V?$allocator@D@2@@std@@V?$shared_ptr@VRawImageData@@@2@@1@@Z 0040acb0 f i Rock.obj
 0001:00009cc0       ??$_Kfn@$$CBV?$basic_string@DU?$char_traits@D@std@@V?$allocator@D@2@@std@@V?$weak_ptr@VRawImageData@@@2@@?$_Tmap_traits@V?$basic_string@DU?$char_traits@D@std@@V?$allocator@D@2@@std@@V?$weak_ptr@VRawImageData@@@2@U?$less@V?$basic_string@DU?$char_traits@D@std@@V?$allocator@D@2@@std@@@2@V?$allocator@U?$pair@$$CBV?$basic_string@DU?$char_traits@D@std@@V?$allocator@D@2@@std@@V?$weak_ptr@VRawImageData@@@2@@std@@@2@$0A@@std@@SAABV?$basic_string@DU?$char_traits@D@std@@V?$allocator@D@2@@1@ABU?$pair@$$CBV?$basic_string@DU?$char_traits@D@std@@V?$allocator@D@2@@std@@V?$weak_ptr@VRawImageData@@@2@@1@@Z 0040acc0 f i Rock.obj
 0001:00009cd0       ??$_Lower_bound_duplicate@V?$basic_string@DU?$char_traits@D@std@@V?$allocator@D@2@@std@@@?$_Tree@V?$_Tmap_traits@V?$basic_string@DU?$char_traits@D@std@@V?$allocator@D@2@@std@@V?$shared_ptr@VRawImageData@@@2@U?$less@V?$basic_string@DU?$char_traits@D@std@@V?$allocator@D@2@@std@@@2@V?$allocator@U?$pair@$$CBV?$basic_string@DU?$char_traits@D@std@@V?$allocator@D@2@@std@@V?$shared_ptr@VRawImageData@@@2@@std@@@2@$0A@@std@@@std@@IBE_NQAU?$_Tree_node@U?$pair@$$CBV?$basic_string@DU?$char_traits@D@std@@V?$allocator@D@2@@std@@V?$shared_ptr@VRawImageData@@@2@@std@@PAX@1@ABV?$basic_string@DU?$char_traits@D@std@@V?$allocator@D@2@@1@@Z 0040acd0 f i Rock.obj
 0001:00009d40       ??$_Lower_bound_duplicate@V?$basic_string@DU?$char_traits@D@std@@V?$allocator@D@2@@std@@@?$_Tree@V?$_Tmap_traits@V?$basic_string@DU?$char_traits@D@std@@V?$allocator@D@2@@std@@V?$weak_ptr@VRawImageData@@@2@U?$less@V?$basic_string@DU?$char_traits@D@std@@V?$allocator@D@2@@std@@@2@V?$allocator@U?$pair@$$CBV?$basic_string@DU?$char_traits@D@std@@V?$allocator@D@2@@std@@V?$weak_ptr@VRawImageData@@@2@@std@@@2@$0A@@std@@@std@@IBE_NQAU?$_Tree_node@U?$pair@$$CBV?$basic_string@DU?$char_traits@D@std@@V?$allocator@D@2@@std@@V?$weak_ptr@VRawImageData@@@2@@std@@PAX@1@ABV?$basic_string@DU?$char_traits@D@std@@V?$allocator@D@2@@1@@Z 0040ad40 f i Rock.obj
 0001:00009db0       ??$_Move_construct_from@VRawImageData@@@?$_Ptr_base@VRawImageData@@@std@@IAEX$$QAV01@@Z 0040adb0 f i Rock.obj
 0001:00009e00       ??$_Move_unchecked@PAPAVDisplayableObject@@PAPAV1@@std@@YAPAPAVDisplayableObject@@PAPAV1@00@Z 0040ae00 f i Rock.obj
 0001:00009e70       ??$_Refancy@PAPAVDisplayableObject@@$0A@@std@@YAPAPAVDisplayableObject@@PAPAV1@@Z 0040ae70 f i Rock.obj
 0001:00009e80       ??$_Seek_wrapped@V?$_Vector_iterator@V?$_Vector_val@U?$_Simple_types@PAVDisplayableObject@@@std@@@std@@@std@@PAPAVDisplayableObject@@@std@@YAXAAV?$_Vector_iterator@V?$_Vector_val@U?$_Simple_types@PAVDisplayableObject@@@std@@@std@@@0@$$QAPAPAVDisplayableObject@@@Z 0040ae80 f i Rock.obj
 0001:00009eb0       ??$_Set_ptr_rep_and_enable_shared@VRawImageData@@@?$shared_ptr@VRawImageData@@@std@@AAEXQAVRawImageData@@QAV_Ref_count_base@1@@Z 0040aeb0 f i Rock.obj
 0001:00009ee0       ??$_To_address@PAPAVDisplayableObject@@@std@@YA?A_PABQAPAVDisplayableObject@@@Z 0040aee0 f i Rock.obj
 0001:00009ef0       ??$_Traits_compare@U?$char_traits@D@std@@@std@@YAHQBDI0I@Z 0040aef0 f i Rock.obj
 0001:00009f60       ??$_Unfancy@D@std@@YAPADPAD@Z 0040af60 f i Rock.obj
 0001:00009f70       ??$_Unfancy@PAVDisplayableObject@@@std@@YAPAPAVDisplayableObject@@PAPAV1@@Z 0040af70 f i Rock.obj
 0001:00009f80       ??$_Unfancy@U_Container_proxy@std@@@std@@YAPAU_Container_proxy@0@PAU10@@Z 0040af80 f i Rock.obj
 0001:00009f90       ??$_Voidify_iter@PAPAD@std@@YAPAXPAPAD@Z 0040af90 f i Rock.obj
 0001:00009fa0       ??$_Voidify_iter@PAPAU?$_Tree_node@U?$pair@$$CBV?$basic_string@DU?$char_traits@D@std@@V?$allocator@D@2@@std@@V?$shared_ptr@VRawImageData@@@2@@std@@PAX@std@@@std@@YAPAXPAPAU?$_Tree_node@U?$pair@$$CBV?$basic_string@DU?$char_traits@D@std@@V?$allocator@D@2@@std@@V?$shared_ptr@VRawImageData@@@2@@std@@PAX@0@@Z 0040afa0 f i Rock.obj
 0001:00009fb0       ??$_Voidify_iter@PAPAU?$_Tree_node@U?$pair@$$CBV?$basic_string@DU?$char_traits@D@std@@V?$allocator@D@2@@std@@V?$weak_ptr@VRawImageData@@@2@@std@@PAX@std@@@std@@YAPAXPAPAU?$_Tree_node@U?$pair@$$CBV?$basic_string@DU?$char_traits@D@std@@V?$allocator@D@2@@std@@V?$weak_ptr@VRawImageData@@@2@@std@@PAX@0@@Z 0040afb0 f i Rock.obj
 0001:00009fc0       ??$_Voidify_iter@PAU?$pair@$$CBV?$basic_string@DU?$char_traits@D@std@@V?$allocator@D@2@@std@@V?$shared_ptr@VRawImageData@@@2@@std@@@std@@YAPAXPAU?$pair@$$CBV?$basic_string@DU?$char_traits@D@std@@V?$allocator@D@2@@std@@V?$shared_ptr@VRawImageData@@@2@@0@@Z 0040afc0 f i Rock.obj
 0001:00009fd0       ??$_Voidify_iter@PAU?$pair@$$CBV?$basic_string@DU?$char_traits@D@std@@V?$allocator@D@2@@std@@V?$weak_ptr@VRawImageData@@@2@@std@@@std@@YAPAXPAU?$pair@$$CBV?$basic_string@DU?$char_traits@D@std@@V?$allocator@D@2@@std@@V?$weak_ptr@VRawImageData@@@2@@0@@Z 0040afd0 f i Rock.obj
 0001:00009fe0       ??$_Voidify_iter@PAU_Container_proxy@std@@@std@@YAPAXPAU_Container_proxy@0@@Z 0040afe0 f i Rock.obj
 0001:00009ff0       ??$_Weakly_construct_from@VRawImageData@@@?$_Ptr_base@VRawImageData@@@std@@IAEXABV01@@Z 0040aff0 f i Rock.obj
 0001:0000a040       ??$__std_find_trivial@PAVDisplayableObject@@I@@YAPAPAVDisplayableObject@@PAPAV0@0I@Z 0040b040 f i Rock.obj
 0001:0000a060       ??$__std_find_trivial@PAVDisplayableObject@@PAV1@@@YAPAPAVDisplayableObject@@PAPAV0@0QAV0@@Z 0040b060 f i Rock.obj
 0001:0000a080       ??$addressof@$$CBV?$_String_val@U?$_Simple_types@D@std@@@std@@@std@@YAPBV?$_String_val@U?$_Simple_types@D@std@@@0@ABV10@@Z 0040b080 f i Rock.obj
 0001:0000a090       ??$addressof@$$CBV?$_Tree_val@U?$_Tree_simple_types@U?$pair@$$CBV?$basic_string@DU?$char_traits@D@std@@V?$allocator@D@2@@std@@V?$shared_ptr@VRawImageData@@@2@@std@@@std@@@std@@@std@@YAPBV?$_Tree_val@U?$_Tree_simple_types@U?$pair@$$CBV?$basic_string@DU?$char_traits@D@std@@V?$allocator@D@2@@std@@V?$shared_ptr@VRawImageData@@@2@@std@@@std@@@0@ABV10@@Z 0040b090 f i Rock.obj
 0001:0000a0a0       ??$addressof@$$CBV?$_Tree_val@U?$_Tree_simple_types@U?$pair@$$CBV?$basic_string@DU?$char_traits@D@std@@V?$allocator@D@2@@std@@V?$weak_ptr@VRawImageData@@@2@@std@@@std@@@std@@@std@@YAPBV?$_Tree_val@U?$_Tree_simple_types@U?$pair@$$CBV?$basic_string@DU?$char_traits@D@std@@V?$allocator@D@2@@std@@V?$weak_ptr@VRawImageData@@@2@@std@@@std@@@0@ABV10@@Z 0040b0a0 f i Rock.obj
 0001:0000a0b0       ??$addressof@PAD@std@@YAPAPADAAPAD@Z 0040b0b0 f i Rock.obj
 0001:0000a0c0       ??$addressof@PAU?$_Tree_node@U?$pair@$$CBV?$basic_string@DU?$char_traits@D@std@@V?$allocator@D@2@@std@@V?$shared_ptr@VRawImageData@@@2@@std@@PAX@std@@@std@@YAPAPAU?$_Tree_node@U?$pair@$$CBV?$basic_string@DU?$char_traits@D@std@@V?$allocator@D@2@@std@@V?$shared_ptr@VRawImageData@@@2@@std@@PAX@0@AAPAU10@@Z 0040b0c0 f i Rock.obj
 0001:0000a0d0       ??$addressof@PAU?$_Tree_node@U?$pair@$$CBV?$basic_string@DU?$char_traits@D@std@@V?$allocator@D@2@@std@@V?$weak_ptr@VRawImageData@@@2@@std@@PAX@std@@@std@@YAPAPAU?$_Tree_node@U?$pair@$$CBV?$basic_string@DU?$char_traits@D@std@@V?$allocator@D@2@@std@@V?$weak_ptr@VRawImageData@@@2@@std@@PAX@0@AAPAU10@@Z 0040b0d0 f i Rock.obj
 0001:0000a0e0       ??$addressof@U?$pair@$$CBV?$basic_string@DU?$char_traits@D@std@@V?$allocator@D@2@@std@@V?$shared_ptr@VRawImageData@@@2@@std@@@std@@YAPAU?$pair@$$CBV?$basic_string@DU?$char_traits@D@std@@V?$allocator@D@2@@std@@V?$shared_ptr@VRawImageData@@@2@@0@AAU10@@Z 0040b0e0 f i Rock.obj
 0001:0000a0f0       ??$addressof@U?$pair@$$CBV?$basic_string@DU?$char_traits@D@std@@V?$allocator@D@2@@std@@V?$weak_ptr@VRawImageData@@@2@@std@@@std@@YAPAU?$pair@$$CBV?$basic_string@DU?$char_traits@D@std@@V?$allocator@D@2@@std@@V?$weak_ptr@VRawImageData@@@2@@0@AAU10@@Z 0040b0f0 f i Rock.obj
 0001:0000a100       ??$addressof@U_Container_base12@std@@@std@@YAPAU_Container_base12@0@AAU10@@Z 0040b100 f i Rock.obj
 0001:0000a110       ??$addressof@U_Container_proxy@std@@@std@@YAPAU_Container_proxy@0@AAU10@@Z 0040b110 f i Rock.obj
 0001:0000a120       ??$addressof@V?$_String_val@U?$_Simple_types@D@std@@@std@@@std@@YAPAV?$_String_val@U?$_Simple_types@D@std@@@0@AAV10@@Z 0040b120 f i Rock.obj
 0001:0000a130       ??$addressof@V?$_Tree_val@U?$_Tree_simple_types@U?$pair@$$CBV?$basic_string@DU?$char_traits@D@std@@V?$allocator@D@2@@std@@V?$shared_ptr@VRawImageData@@@2@@std@@@std@@@std@@@std@@YAPAV?$_Tree_val@U?$_Tree_simple_types@U?$pair@$$CBV?$basic_string@DU?$char_traits@D@std@@V?$allocator@D@2@@std@@V?$shared_ptr@VRawImageData@@@2@@std@@@std@@@0@AAV10@@Z 0040b130 f i Rock.obj
 0001:0000a140       ??$addressof@V?$_Tree_val@U?$_Tree_simple_types@U?$pair@$$CBV?$basic_string@DU?$char_traits@D@std@@V?$allocator@D@2@@std@@V?$weak_ptr@VRawImageData@@@2@@std@@@std@@@std@@@std@@YAPAV?$_Tree_val@U?$_Tree_simple_types@U?$pair@$$CBV?$basic_string@DU?$char_traits@D@std@@V?$allocator@D@2@@std@@V?$weak_ptr@VRawImageData@@@2@@std@@@std@@@0@AAV10@@Z 0040b140 f i Rock.obj
 0001:0000a150       ??$addressof@V?$_Vector_val@U?$_Simple_types@PAVDisplayableObject@@@std@@@std@@@std@@YAPAV?$_Vector_val@U?$_Simple_types@PAVDisplayableObject@@@std@@@0@AAV10@@Z 0040b150 f i Rock.obj
 0001:0000a160       ??$construct@U?$pair@$$CBV?$basic_string@DU?$char_traits@D@std@@V?$allocator@D@2@@std@@V?$shared_ptr@VRawImageData@@@2@@std@@U?$pair@V?$basic_string@DU?$char_traits@D@std@@V?$allocator@D@2@@std@@V?$shared_ptr@VRawImageData@@@2@@2@@?$_Default_allocator_traits@V?$allocator@U?$_Tree_node@U?$pair@$$CBV?$basic_string@DU?$char_traits@D@std@@V?$allocator@D@2@@std@@V?$shared_ptr@VRawImageData@@@2@@std@@PAX@std@@@std@@@std@@SAXAAV?$allocator@U?$_Tree_node@U?$pair@$$CBV?$basic_string@DU?$char_traits@D@std@@V?$allocator@D@2@@std@@V?$shared_ptr@VRawImageData@@@2@@std@@PAX@std@@@1@QAU?$pair@$$CBV?$basic_string@DU?$char_traits@D@std@@V?$allocator@D@2@@std@@V?$shared_ptr@VRawImageData@@@2@@1@$$QAU?$pair@V?$basic_string@DU?$char_traits@D@std@@V?$allocator@D@2@@std@@V?$shared_ptr@VRawImageData@@@2@@1@@Z 0040b160 f i Rock.obj
 0001:0000a1b0       ??$construct@U?$pair@$$CBV?$basic_string@DU?$char_traits@D@std@@V?$allocator@D@2@@std@@V?$weak_ptr@VRawImageData@@@2@@std@@U?$pair@V?$basic_string@DU?$char_traits@D@std@@V?$allocator@D@2@@std@@V?$weak_ptr@VRawImageData@@@2@@2@@?$_Default_allocator_traits@V?$allocator@U?$_Tree_node@U?$pair@$$CBV?$basic_string@DU?$char_traits@D@std@@V?$allocator@D@2@@std@@V?$weak_ptr@VRawImageData@@@2@@std@@PAX@std@@@std@@@std@@SAXAAV?$allocator@U?$_Tree_node@U?$pair@$$CBV?$basic_string@DU?$char_traits@D@std@@V?$allocator@D@2@@std@@V?$weak_ptr@VRawImageData@@@2@@std@@PAX@std@@@1@QAU?$pair@$$CBV?$basic_string@DU?$char_traits@D@std@@V?$allocator@D@2@@std@@V?$weak_ptr@VRawImageData@@@2@@1@$$QAU?$pair@V?$basic_string@DU?$char_traits@D@std@@V?$allocator@D@2@@std@@V?$weak_ptr@VRawImageData@@@2@@1@@Z 0040b1b0 f i Rock.obj
 0001:0000a200       ??$destroy@PAVDisplayableObject@@@?$_Default_allocator_traits@V?$allocator@PAVDisplayableObject@@@std@@@std@@SAXAAV?$allocator@PAVDisplayableObject@@@1@QAPAVDisplayableObject@@@Z 0040b200 f i Rock.obj
 0001:0000a210       ??$destroy@U?$pair@$$CBV?$basic_string@DU?$char_traits@D@std@@V?$allocator@D@2@@std@@V?$shared_ptr@VRawImageData@@@2@@std@@@?$_Default_allocator_traits@V?$allocator@U?$_Tree_node@U?$pair@$$CBV?$basic_string@DU?$char_traits@D@std@@V?$allocator@D@2@@std@@V?$shared_ptr@VRawImageData@@@2@@std@@PAX@std@@@std@@@std@@SAXAAV?$allocator@U?$_Tree_node@U?$pair@$$CBV?$basic_string@DU?$char_traits@D@std@@V?$allocator@D@2@@std@@V?$shared_ptr@VRawImageData@@@2@@std@@PAX@std@@@1@QAU?$pair@$$CBV?$basic_string@DU?$char_traits@D@std@@V?$allocator@D@2@@std@@V?$shared_ptr@VRawImageData@@@2@@1@@Z 0040b210 f i Rock.obj
 0001:0000a230       ??$destroy@U?$pair@$$CBV?$basic_string@DU?$char_traits@D@std@@V?$allocator@D@2@@std@@V?$weak_ptr@VRawImageData@@@2@@std@@@?$_Default_allocator_traits@V?$allocator@U?$_Tree_node@U?$pair@$$CBV?$basic_string@DU?$char_traits@D@std@@V?$allocator@D@2@@std@@V?$weak_ptr@VRawImageData@@@2@@std@@PAX@std@@@std@@@std@@SAXAAV?$allocator@U?$_Tree_node@U?$pair@$$CBV?$basic_string@DU?$char_traits@D@std@@V?$allocator@D@2@@std@@V?$weak_ptr@VRawImageData@@@2@@std@@PAX@std@@@1@QAU?$pair@$$CBV?$basic_string@DU?$char_traits@D@std@@V?$allocator@D@2@@std@@V?$weak_ptr@VRawImageData@@@2@@1@@Z 0040b230 f i Rock.obj
 0001:0000a250       ??$emplace@U?$pair@V?$basic_string@DU?$char_traits@D@std@@V?$allocator@D@2@@std@@V?$shared_ptr@VRawImageData@@@2@@std@@@?$_Tree@V?$_Tmap_traits@V?$basic_string@DU?$char_traits@D@std@@V?$allocator@D@2@@std@@V?$shared_ptr@VRawImageData@@@2@U?$less@V?$basic_string@DU?$char_traits@D@std@@V?$allocator@D@2@@std@@@2@V?$allocator@U?$pair@$$CBV?$basic_string@DU?$char_traits@D@std@@V?$allocator@D@2@@std@@V?$shared_ptr@VRawImageData@@@2@@std@@@2@$0A@@std@@@std@@QAE?AU?$pair@V?$_Tree_iterator@V?$_Tree_val@U?$_Tree_simple_types@U?$pair@$$CBV?$basic_string@DU?$char_traits@D@std@@V?$allocator@D@2@@std@@V?$shared_ptr@VRawImageData@@@2@@std@@@std@@@std@@@std@@_N@1@$$QAU?$pair@V?$basic_string@DU?$char_traits@D@std@@V?$allocator@D@2@@std@@V?$shared_ptr@VRawImageData@@@2@@1@@Z 0040b250 f i Rock.obj
 0001:0000a2e0       ??$emplace@U?$pair@V?$basic_string@DU?$char_traits@D@std@@V?$allocator@D@2@@std@@V?$weak_ptr@VRawImageData@@@2@@std@@@?$_Tree@V?$_Tmap_traits@V?$basic_string@DU?$char_traits@D@std@@V?$allocator@D@2@@std@@V?$weak_ptr@VRawImageData@@@2@U?$less@V?$basic_string@DU?$char_traits@D@std@@V?$allocator@D@2@@std@@@2@V?$allocator@U?$pair@$$CBV?$basic_string@DU?$char_traits@D@std@@V?$allocator@D@2@@std@@V?$weak_ptr@VRawImageData@@@2@@std@@@2@$0A@@std@@@std@@QAE?AU?$pair@V?$_Tree_iterator@V?$_Tree_val@U?$_Tree_simple_types@U?$pair@$$CBV?$basic_string@DU?$char_traits@D@std@@V?$allocator@D@2@@std@@V?$weak_ptr@VRawImageData@@@2@@std@@@std@@@std@@@std@@_N@1@$$QAU?$pair@V?$basic_string@DU?$char_traits@D@std@@V?$allocator@D@2@@std@@V?$weak_ptr@VRawImageData@@@2@@1@@Z 0040b2e0 f i Rock.obj
 0001:0000a370       ??$endl@DU?$char_traits@D@std@@@std@@YAAAV?$basic_ostream@DU?$char_traits@D@std@@@0@AAV10@@Z 0040b370 f i Rock.obj
 0001:0000a3b0       ??$erase@V?$_Tree_iterator@V?$_Tree_val@U?$_Tree_simple_types@U?$pair@$$CBV?$basic_string@DU?$char_traits@D@std@@V?$allocator@D@2@@std@@V?$weak_ptr@VRawImageData@@@2@@std@@@std@@@std@@@std@@$0A@@?$_Tree@V?$_Tmap_traits@V?$basic_string@DU?$char_traits@D@std@@V?$allocator@D@2@@std@@V?$weak_ptr@VRawImageData@@@2@U?$less@V?$basic_string@DU?$char_traits@D@std@@V?$allocator@D@2@@std@@@2@V?$allocator@U?$pair@$$CBV?$basic_string@DU?$char_traits@D@std@@V?$allocator@D@2@@std@@V?$weak_ptr@VRawImageData@@@2@@std@@@2@$0A@@std@@@std@@QAE?AV?$_Tree_iterator@V?$_Tree_val@U?$_Tree_simple_types@U?$pair@$$CBV?$basic_string@DU?$char_traits@D@std@@V?$allocator@D@2@@std@@V?$weak_ptr@VRawImageData@@@2@@std@@@std@@@std@@@1@V21@@Z 0040b3b0 f i Rock.obj
 0001:0000a500       ??$exchange@PAU?$_Tree_node@U?$pair@$$CBV?$basic_string@DU?$char_traits@D@std@@V?$allocator@D@2@@std@@V?$shared_ptr@VRawImageData@@@2@@std@@PAX@std@@$$T@std@@YAPAU?$_Tree_node@U?$pair@$$CBV?$basic_string@DU?$char_traits@D@std@@V?$allocator@D@2@@std@@V?$shared_ptr@VRawImageData@@@2@@std@@PAX@0@AAPAU10@$$QA$$T@Z 0040b500 f i Rock.obj
 0001:0000a530       ??$exchange@PAU?$_Tree_node@U?$pair@$$CBV?$basic_string@DU?$char_traits@D@std@@V?$allocator@D@2@@std@@V?$weak_ptr@VRawImageData@@@2@@std@@PAX@std@@$$T@std@@YAPAU?$_Tree_node@U?$pair@$$CBV?$basic_string@DU?$char_traits@D@std@@V?$allocator@D@2@@std@@V?$weak_ptr@VRawImageData@@@2@@std@@PAX@0@AAPAU10@$$QA$$T@Z 0040b530 f i Rock.obj
 0001:0000a560       ??$exchange@PAU?$_Tree_node@U?$pair@$$CBV?$basic_string@DU?$char_traits@D@std@@V?$allocator@D@2@@std@@V?$weak_ptr@VRawImageData@@@2@@std@@PAX@std@@AAPAU12@@std@@YAPAU?$_Tree_node@U?$pair@$$CBV?$basic_string@DU?$char_traits@D@std@@V?$allocator@D@2@@std@@V?$weak_ptr@VRawImageData@@@2@@std@@PAX@0@AAPAU10@0@Z 0040b560 f i Rock.obj
 0001:0000a590       ??$exchange@PAU_Iterator_base12@std@@$$T@std@@YAPAU_Iterator_base12@0@AAPAU10@$$QA$$T@Z 0040b590 f i Rock.obj
 0001:0000a5c0       ??$find@V?$_Vector_iterator@V?$_Vector_val@U?$_Simple_types@PAVDisplayableObject@@@std@@@std@@@std@@PAVDisplayableObject@@@std@@YA?AV?$_Vector_iterator@V?$_Vector_val@U?$_Simple_types@PAVDisplayableObject@@@std@@@std@@@0@V10@V10@ABQAVDisplayableObject@@@Z 0040b5c0 f i Rock.obj
 0001:0000a6e0       ??$forward@AAPAD@std@@YAAAPADAAPAD@Z 0040b6e0 f i Rock.obj
 0001:0000a6f0       ??$forward@AAPAU?$_Tree_node@U?$pair@$$CBV?$basic_string@DU?$char_traits@D@std@@V?$allocator@D@2@@std@@V?$shared_ptr@VRawImageData@@@2@@std@@PAX@std@@@std@@YAAAPAU?$_Tree_node@U?$pair@$$CBV?$basic_string@DU?$char_traits@D@std@@V?$allocator@D@2@@std@@V?$shared_ptr@VRawImageData@@@2@@std@@PAX@0@AAPAU10@@Z 0040b6f0 f i Rock.obj
 0001:0000a700       ??$forward@AAPAU?$_Tree_node@U?$pair@$$CBV?$basic_string@DU?$char_traits@D@std@@V?$allocator@D@2@@std@@V?$weak_ptr@VRawImageData@@@2@@std@@PAX@std@@@std@@YAAAPAU?$_Tree_node@U?$pair@$$CBV?$basic_string@DU?$char_traits@D@std@@V?$allocator@D@2@@std@@V?$weak_ptr@VRawImageData@@@2@@std@@PAX@0@AAPAU10@@Z 0040b700 f i Rock.obj
 0001:0000a710       ??$forward@AAV?$basic_string@DU?$char_traits@D@std@@V?$allocator@D@2@@std@@@std@@YAAAV?$basic_string@DU?$char_traits@D@std@@V?$allocator@D@2@@0@AAV10@@Z 0040b710 f i Rock.obj
 0001:0000a720       ??$forward@AAV?$shared_ptr@VRawImageData@@@std@@@std@@YAAAV?$shared_ptr@VRawImageData@@@0@AAV10@@Z 0040b720 f i Rock.obj
 0001:0000a730       ??$forward@AAV?$weak_ptr@VRawImageData@@@std@@@std@@YAAAV?$weak_ptr@VRawImageData@@@0@AAV10@@Z 0040b730 f i Rock.obj
 0001:0000a740       ??$forward@ABQAD@std@@YAABQADABQAD@Z 0040b740 f i Rock.obj
 0001:0000a750       ??$forward@ABQAU?$_Tree_node@U?$pair@$$CBV?$basic_string@DU?$char_traits@D@std@@V?$allocator@D@2@@std@@V?$shared_ptr@VRawImageData@@@2@@std@@PAX@std@@@std@@YAABQAU?$_Tree_node@U?$pair@$$CBV?$basic_string@DU?$char_traits@D@std@@V?$allocator@D@2@@std@@V?$shared_ptr@VRawImageData@@@2@@std@@PAX@0@ABQAU10@@Z 0040b750 f i Rock.obj
 0001:0000a760       ??$forward@ABQAU?$_Tree_node@U?$pair@$$CBV?$basic_string@DU?$char_traits@D@std@@V?$allocator@D@2@@std@@V?$weak_ptr@VRawImageData@@@2@@std@@PAX@std@@@std@@YAABQAU?$_Tree_node@U?$pair@$$CBV?$basic_string@DU?$char_traits@D@std@@V?$allocator@D@2@@std@@V?$weak_ptr@VRawImageData@@@2@@std@@PAX@0@ABQAU10@@Z 0040b760 f i Rock.obj
 0001:0000a770       ??$forward@ABU?$less@V?$basic_string@DU?$char_traits@D@std@@V?$allocator@D@2@@std@@@std@@@std@@YAABU?$less@V?$basic_string@DU?$char_traits@D@std@@V?$allocator@D@2@@std@@@0@ABU10@@Z 0040b770 f i Rock.obj
 0001:0000a780       ??$forward@AB_N@std@@YAAB_NAB_N@Z 0040b780 f i Rock.obj
 0001:0000a790       ??$forward@PAPAVDisplayableObject@@@std@@YA$$QAPAPAVDisplayableObject@@AAPAPAV1@@Z 0040b790 f i Rock.obj
 0001:0000a7a0       ??$forward@PAU?$_Tree_node@U?$pair@$$CBV?$basic_string@DU?$char_traits@D@std@@V?$allocator@D@2@@std@@V?$shared_ptr@VRawImageData@@@2@@std@@PAX@std@@@std@@YA$$QAPAU?$_Tree_node@U?$pair@$$CBV?$basic_string@DU?$char_traits@D@std@@V?$allocator@D@2@@std@@V?$shared_ptr@VRawImageData@@@2@@std@@PAX@0@AAPAU10@@Z 0040b7a0 f i Rock.obj
 0001:0000a7b0       ??$forward@PAU?$_Tree_node@U?$pair@$$CBV?$basic_string@DU?$char_traits@D@std@@V?$allocator@D@2@@std@@V?$weak_ptr@VRawImageData@@@2@@std@@PAX@std@@@std@@YA$$QAPAU?$_Tree_node@U?$pair@$$CBV?$basic_string@DU?$char_traits@D@std@@V?$allocator@D@2@@std@@V?$weak_ptr@VRawImageData@@@2@@std@@PAX@0@AAPAU10@@Z 0040b7b0 f i Rock.obj
 0001:0000a7c0       ??$forward@PAU_Container_base12@std@@@std@@YA$$QAPAU_Container_base12@0@AAPAU10@@Z 0040b7c0 f i Rock.obj
 0001:0000a7d0       ??$forward@U?$pair@V?$basic_string@DU?$char_traits@D@std@@V?$allocator@D@2@@std@@V?$shared_ptr@VRawImageData@@@2@@std@@@std@@YA$$QAU?$pair@V?$basic_string@DU?$char_traits@D@std@@V?$allocator@D@2@@std@@V?$shared_ptr@VRawImageData@@@2@@0@AAU10@@Z 0040b7d0 f i Rock.obj
 0001:0000a7e0       ??$forward@U?$pair@V?$basic_string@DU?$char_traits@D@std@@V?$allocator@D@2@@std@@V?$weak_ptr@VRawImageData@@@2@@std@@@std@@YA$$QAU?$pair@V?$basic_string@DU?$char_traits@D@std@@V?$allocator@D@2@@std@@V?$weak_ptr@VRawImageData@@@2@@0@AAU10@@Z 0040b7e0 f i Rock.obj
 0001:0000a7f0       ??$forward@U_Zero_then_variadic_args_t@std@@@std@@YA$$QAU_Zero_then_variadic_args_t@0@AAU10@@Z 0040b7f0 f i Rock.obj
 0001:0000a800       ??$forward@V?$_Tree_iterator@V?$_Tree_val@U?$_Tree_simple_types@U?$pair@$$CBV?$basic_string@DU?$char_traits@D@std@@V?$allocator@D@2@@std@@V?$shared_ptr@VRawImageData@@@2@@std@@@std@@@std@@@std@@@std@@YA$$QAV?$_Tree_iterator@V?$_Tree_val@U?$_Tree_simple_types@U?$pair@$$CBV?$basic_string@DU?$char_traits@D@std@@V?$allocator@D@2@@std@@V?$shared_ptr@VRawImageData@@@2@@std@@@std@@@std@@@0@AAV10@@Z 0040b800 f i Rock.obj
 0001:0000a810       ??$forward@V?$_Tree_iterator@V?$_Tree_val@U?$_Tree_simple_types@U?$pair@$$CBV?$basic_string@DU?$char_traits@D@std@@V?$allocator@D@2@@std@@V?$weak_ptr@VRawImageData@@@2@@std@@@std@@@std@@@std@@@std@@YA$$QAV?$_Tree_iterator@V?$_Tree_val@U?$_Tree_simple_types@U?$pair@$$CBV?$basic_string@DU?$char_traits@D@std@@V?$allocator@D@2@@std@@V?$weak_ptr@VRawImageData@@@2@@std@@@std@@@std@@@0@AAV10@@Z 0040b810 f i Rock.obj
 0001:0000a820       ??$forward@V?$allocator@D@std@@@std@@YA$$QAV?$allocator@D@0@AAV10@@Z 0040b820 f i Rock.obj
 0001:0000a830       ??$forward@V?$basic_string@DU?$char_traits@D@std@@V?$allocator@D@2@@std@@@std@@YA$$QAV?$basic_string@DU?$char_traits@D@std@@V?$allocator@D@2@@0@AAV10@@Z 0040b830 f i Rock.obj
 0001:0000a840       ??$forward@V?$shared_ptr@VRawImageData@@@std@@@std@@YA$$QAV?$shared_ptr@VRawImageData@@@0@AAV10@@Z 0040b840 f i Rock.obj
 0001:0000a850       ??$forward@V?$weak_ptr@VRawImageData@@@std@@@std@@YA$$QAV?$weak_ptr@VRawImageData@@@0@AAV10@@Z 0040b850 f i Rock.obj
 0001:0000a860       ??$forward@_N@std@@YA$$QA_NAA_N@Z 0040b860 f i Rock.obj
 0001:0000a870       ??$insert@U?$pair@V?$basic_string@DU?$char_traits@D@std@@V?$allocator@D@2@@std@@V?$shared_ptr@VRawImageData@@@2@@std@@$0A@@?$map@V?$basic_string@DU?$char_traits@D@std@@V?$allocator@D@2@@std@@V?$shared_ptr@VRawImageData@@@2@U?$less@V?$basic_string@DU?$char_traits@D@std@@V?$allocator@D@2@@std@@@2@V?$allocator@U?$pair@$$CBV?$basic_string@DU?$char_traits@D@std@@V?$allocator@D@2@@std@@V?$shared_ptr@VRawImageData@@@2@@std@@@2@@std@@QAE?AU?$pair@V?$_Tree_iterator@V?$_Tree_val@U?$_Tree_simple_types@U?$pair@$$CBV?$basic_string@DU?$char_traits@D@std@@V?$allocator@D@2@@std@@V?$shared_ptr@VRawImageData@@@2@@std@@@std@@@std@@@std@@_N@1@$$QAU?$pair@V?$basic_string@DU?$char_traits@D@std@@V?$allocator@D@2@@std@@V?$shared_ptr@VRawImageData@@@2@@1@@Z 0040b870 f i Rock.obj
 0001:0000a8c0       ??$insert@U?$pair@V?$basic_string@DU?$char_traits@D@std@@V?$allocator@D@2@@std@@V?$weak_ptr@VRawImageData@@@2@@std@@$0A@@?$map@V?$basic_string@DU?$char_traits@D@std@@V?$allocator@D@2@@std@@V?$weak_ptr@VRawImageData@@@2@U?$less@V?$basic_string@DU?$char_traits@D@std@@V?$allocator@D@2@@std@@@2@V?$allocator@U?$pair@$$CBV?$basic_string@DU?$char_traits@D@std@@V?$allocator@D@2@@std@@V?$weak_ptr@VRawImageData@@@2@@std@@@2@@std@@QAE?AU?$pair@V?$_Tree_iterator@V?$_Tree_val@U?$_Tree_simple_types@U?$pair@$$CBV?$basic_string@DU?$char_traits@D@std@@V?$allocator@D@2@@std@@V?$weak_ptr@VRawImageData@@@2@@std@@@std@@@std@@@std@@_N@1@$$QAU?$pair@V?$basic_string@DU?$char_traits@D@std@@V?$allocator@D@2@@std@@V?$weak_ptr@VRawImageData@@@2@@1@@Z 0040b8c0 f i Rock.obj
 0001:0000a910       ??$max@I@std@@YAABIABI0@Z  0040b910 f i Rock.obj
 0001:0000a950       ??$min@I@std@@YAABIABI0@Z  0040b950 f i Rock.obj
 0001:0000a990       ??$move@AAD@std@@YA$$QADAAD@Z 0040b990 f i Rock.obj
 0001:0000a9a0       ??$move@AAPAVDisplayableObject@@@std@@YA$$QAPAVDisplayableObject@@AAPAV1@@Z 0040b9a0 f i Rock.obj
 0001:0000a9b0       ??$move@AAV?$allocator@D@std@@@std@@YA$$QAV?$allocator@D@0@AAV10@@Z 0040b9b0 f i Rock.obj
 0001:0000a9c0       ??$move@AAV?$shared_ptr@VRawImageData@@@std@@@std@@YA$$QAV?$shared_ptr@VRawImageData@@@0@AAV10@@Z 0040b9c0 f i Rock.obj
 0001:0000a9d0       ??$move@AAV?$weak_ptr@VRawImageData@@@std@@@std@@YA$$QAV?$weak_ptr@VRawImageData@@@0@AAV10@@Z 0040b9d0 f i Rock.obj
 0001:0000a9e0       ??$swap@D$0A@@std@@YAXAAD0@Z 0040b9e0 f i Rock.obj
 0001:0000aa30       ??0?$_Alloc_construct_ptr@V?$allocator@U?$_Tree_node@U?$pair@$$CBV?$basic_string@DU?$char_traits@D@std@@V?$allocator@D@2@@std@@V?$shared_ptr@VRawImageData@@@2@@std@@PAX@std@@@std@@@std@@QAE@AAV?$allocator@U?$_Tree_node@U?$pair@$$CBV?$basic_string@DU?$char_traits@D@std@@V?$allocator@D@2@@std@@V?$shared_ptr@VRawImageData@@@2@@std@@PAX@std@@@1@@Z 0040ba30 f i Rock.obj
 0001:0000aa60       ??0?$_Alloc_construct_ptr@V?$allocator@U?$_Tree_node@U?$pair@$$CBV?$basic_string@DU?$char_traits@D@std@@V?$allocator@D@2@@std@@V?$weak_ptr@VRawImageData@@@2@@std@@PAX@std@@@std@@@std@@QAE@AAV?$allocator@U?$_Tree_node@U?$pair@$$CBV?$basic_string@DU?$char_traits@D@std@@V?$allocator@D@2@@std@@V?$weak_ptr@VRawImageData@@@2@@std@@PAX@std@@@1@@Z 0040ba60 f i Rock.obj
 0001:0000aa90       ??0?$_Container_proxy_ptr12@V?$allocator@U_Container_proxy@std@@@std@@@std@@QAE@AAV?$allocator@U_Container_proxy@std@@@1@AAU_Container_base12@1@@Z 0040ba90 f i Rock.obj
 0001:0000ab10       ??0?$_Ref_count@VRawImageData@@@std@@QAE@PAVRawImageData@@@Z 0040bb10 f i Rock.obj
 0001:0000ab60       ??0?$_String_val@U?$_Simple_types@D@std@@@std@@QAE@XZ 0040bb60 f i Rock.obj
 0001:0000abb0       ??0?$_Temporary_owner@VRawImageData@@@std@@QAE@QAVRawImageData@@@Z 0040bbb0 f i Rock.obj
 0001:0000abd0       ??0?$_Tree@V?$_Tmap_traits@V?$basic_string@DU?$char_traits@D@std@@V?$allocator@D@2@@std@@V?$shared_ptr@VRawImageData@@@2@U?$less@V?$basic_string@DU?$char_traits@D@std@@V?$allocator@D@2@@std@@@2@V?$allocator@U?$pair@$$CBV?$basic_string@DU?$char_traits@D@std@@V?$allocator@D@2@@std@@V?$shared_ptr@VRawImageData@@@2@@std@@@2@$0A@@std@@@std@@QAE@ABU?$less@V?$basic_string@DU?$char_traits@D@std@@V?$allocator@D@2@@std@@@1@@Z 0040bbd0 f i Rock.obj
 0001:0000ac10       ??0?$_Tree@V?$_Tmap_traits@V?$basic_string@DU?$char_traits@D@std@@V?$allocator@D@2@@std@@V?$weak_ptr@VRawImageData@@@2@U?$less@V?$basic_string@DU?$char_traits@D@std@@V?$allocator@D@2@@std@@@2@V?$allocator@U?$pair@$$CBV?$basic_string@DU?$char_traits@D@std@@V?$allocator@D@2@@std@@V?$weak_ptr@VRawImageData@@@2@@std@@@2@$0A@@std@@@std@@QAE@ABU?$less@V?$basic_string@DU?$char_traits@D@std@@V?$allocator@D@2@@std@@@1@@Z 0040bc10 f i Rock.obj
 0001:0000ac50       ??0?$_Tree_const_iterator@V?$_Tree_val@U?$_Tree_simple_types@U?$pair@$$CBV?$basic_string@DU?$char_traits@D@std@@V?$allocator@D@2@@std@@V?$shared_ptr@VRawImageData@@@2@@std@@@std@@@std@@@std@@QAE@$$QAV01@@Z 0040bc50 f i Rock.obj
 0001:0000ac80       ??0?$_Tree_const_iterator@V?$_Tree_val@U?$_Tree_simple_types@U?$pair@$$CBV?$basic_string@DU?$char_traits@D@std@@V?$allocator@D@2@@std@@V?$shared_ptr@VRawImageData@@@2@@std@@@std@@@std@@@std@@QAE@PAU?$_Tree_node@U?$pair@$$CBV?$basic_string@DU?$char_traits@D@std@@V?$allocator@D@2@@std@@V?$shared_ptr@VRawImageData@@@2@@std@@PAX@1@PBV?$_Tree_val@U?$_Tree_simple_types@U?$pair@$$CBV?$basic_string@DU?$char_traits@D@std@@V?$allocator@D@2@@std@@V?$shared_ptr@VRawImageData@@@2@@std@@@std@@@1@@Z 0040bc80 f i Rock.obj
 0001:0000acb0       ??0?$_Tree_const_iterator@V?$_Tree_val@U?$_Tree_simple_types@U?$pair@$$CBV?$basic_string@DU?$char_traits@D@std@@V?$allocator@D@2@@std@@V?$weak_ptr@VRawImageData@@@2@@std@@@std@@@std@@@std@@QAE@$$QAV01@@Z 0040bcb0 f i Rock.obj
 0001:0000ace0       ??0?$_Tree_const_iterator@V?$_Tree_val@U?$_Tree_simple_types@U?$pair@$$CBV?$basic_string@DU?$char_traits@D@std@@V?$allocator@D@2@@std@@V?$weak_ptr@VRawImageData@@@2@@std@@@std@@@std@@@std@@QAE@ABV01@@Z 0040bce0 f i Rock.obj
 0001:0000ad10       ??0?$_Tree_const_iterator@V?$_Tree_val@U?$_Tree_simple_types@U?$pair@$$CBV?$basic_string@DU?$char_traits@D@std@@V?$allocator@D@2@@std@@V?$weak_ptr@VRawImageData@@@2@@std@@@std@@@std@@@std@@QAE@PAU?$_Tree_node@U?$pair@$$CBV?$basic_string@DU?$char_traits@D@std@@V?$allocator@D@2@@std@@V?$weak_ptr@VRawImageData@@@2@@std@@PAX@1@PBV?$_Tree_val@U?$_Tree_simple_types@U?$pair@$$CBV?$basic_string@DU?$char_traits@D@std@@V?$allocator@D@2@@std@@V?$weak_ptr@VRawImageData@@@2@@std@@@std@@@1@@Z 0040bd10 f i Rock.obj
 0001:0000ad40       ??0?$_Tree_iterator@V?$_Tree_val@U?$_Tree_simple_types@U?$pair@$$CBV?$basic_string@DU?$char_traits@D@std@@V?$allocator@D@2@@std@@V?$shared_ptr@VRawImageData@@@2@@std@@@std@@@std@@@std@@QAE@$$QAV01@@Z 0040bd40 f i Rock.obj
 0001:0000ad70       ??0?$_Tree_iterator@V?$_Tree_val@U?$_Tree_simple_types@U?$pair@$$CBV?$basic_string@DU?$char_traits@D@std@@V?$allocator@D@2@@std@@V?$shared_ptr@VRawImageData@@@2@@std@@@std@@@std@@@std@@QAE@PAU?$_Tree_node@U?$pair@$$CBV?$basic_string@DU?$char_traits@D@std@@V?$allocator@D@2@@std@@V?$shared_ptr@VRawImageData@@@2@@std@@PAX@1@PBV?$_Tree_val@U?$_Tree_simple_types@U?$pair@$$CBV?$basic_string@DU?$char_traits@D@std@@V?$allocator@D@2@@std@@V?$shared_ptr@VRawImageData@@@2@@std@@@std@@@1@@Z 0040bd70 f i Rock.obj
 0001:0000ada0       ??0?$_Tree_iterator@V?$_Tree_val@U?$_Tree_simple_types@U?$pair@$$CBV?$basic_string@DU?$char_traits@D@std@@V?$allocator@D@2@@std@@V?$weak_ptr@VRawImageData@@@2@@std@@@std@@@std@@@std@@QAE@$$QAV01@@Z 0040bda0 f i Rock.obj
 0001:0000add0       ??0?$_Tree_iterator@V?$_Tree_val@U?$_Tree_simple_types@U?$pair@$$CBV?$basic_string@DU?$char_traits@D@std@@V?$allocator@D@2@@std@@V?$weak_ptr@VRawImageData@@@2@@std@@@std@@@std@@@std@@QAE@ABV01@@Z 0040bdd0 f i Rock.obj
 0001:0000ae00       ??0?$_Tree_iterator@V?$_Tree_val@U?$_Tree_simple_types@U?$pair@$$CBV?$basic_string@DU?$char_traits@D@std@@V?$allocator@D@2@@std@@V?$weak_ptr@VRawImageData@@@2@@std@@@std@@@std@@@std@@QAE@PAU?$_Tree_node@U?$pair@$$CBV?$basic_string@DU?$char_traits@D@std@@V?$allocator@D@2@@std@@V?$weak_ptr@VRawImageData@@@2@@std@@PAX@1@PBV?$_Tree_val@U?$_Tree_simple_types@U?$pair@$$CBV?$basic_string@DU?$char_traits@D@std@@V?$allocator@D@2@@std@@V?$weak_ptr@VRawImageData@@@2@@std@@@std@@@1@@Z 0040be00 f i Rock.obj
 0001:0000ae30       ??0?$_Tree_temp_node_alloc@V?$allocator@U?$_Tree_node@U?$pair@$$CBV?$basic_string@DU?$char_traits@D@std@@V?$allocator@D@2@@std@@V?$shared_ptr@VRawImageData@@@2@@std@@PAX@std@@@std@@@std@@QAE@AAV?$allocator@U?$_Tree_node@U?$pair@$$CBV?$basic_string@DU?$char_traits@D@std@@V?$allocator@D@2@@std@@V?$shared_ptr@VRawImageData@@@2@@std@@PAX@std@@@1@@Z 0040be30 f i Rock.obj
 0001:0000aeb0       ??0?$_Tree_temp_node_alloc@V?$allocator@U?$_Tree_node@U?$pair@$$CBV?$basic_string@DU?$char_traits@D@std@@V?$allocator@D@2@@std@@V?$weak_ptr@VRawImageData@@@2@@std@@PAX@std@@@std@@@std@@QAE@AAV?$allocator@U?$_Tree_node@U?$pair@$$CBV?$basic_string@DU?$char_traits@D@std@@V?$allocator@D@2@@std@@V?$weak_ptr@VRawImageData@@@2@@std@@PAX@std@@@1@@Z 0040beb0 f i Rock.obj
 0001:0000af30       ??0?$_Tree_unchecked_const_iterator@V?$_Tree_val@U?$_Tree_simple_types@U?$pair@$$CBV?$basic_string@DU?$char_traits@D@std@@V?$allocator@D@2@@std@@V?$shared_ptr@VRawImageData@@@2@@std@@@std@@@std@@U_Iterator_base12@2@@std@@QAE@$$QAV01@@Z 0040bf30 f i Rock.obj
 0001:0000af70       ??0?$_Tree_unchecked_const_iterator@V?$_Tree_val@U?$_Tree_simple_types@U?$pair@$$CBV?$basic_string@DU?$char_traits@D@std@@V?$allocator@D@2@@std@@V?$shared_ptr@VRawImageData@@@2@@std@@@std@@@std@@U_Iterator_base12@2@@std@@QAE@PAU?$_Tree_node@U?$pair@$$CBV?$basic_string@DU?$char_traits@D@std@@V?$allocator@D@2@@std@@V?$shared_ptr@VRawImageData@@@2@@std@@PAX@1@PBV?$_Tree_val@U?$_Tree_simple_types@U?$pair@$$CBV?$basic_string@DU?$char_traits@D@std@@V?$allocator@D@2@@std@@V?$shared_ptr@VRawImageData@@@2@@std@@@std@@@1@@Z 0040bf70 f i Rock.obj
 0001:0000afb0       ??0?$_Tree_unchecked_const_iterator@V?$_Tree_val@U?$_Tree_simple_types@U?$pair@$$CBV?$basic_string@DU?$char_traits@D@std@@V?$allocator@D@2@@std@@V?$weak_ptr@VRawImageData@@@2@@std@@@std@@@std@@U_Iterator_base0@2@@std@@QAE@PAU?$_Tree_node@U?$pair@$$CBV?$basic_string@DU?$char_traits@D@std@@V?$allocator@D@2@@std@@V?$weak_ptr@VRawImageData@@@2@@std@@PAX@1@PBV?$_Tree_val@U?$_Tree_simple_types@U?$pair@$$CBV?$basic_string@DU?$char_traits@D@std@@V?$allocator@D@2@@std@@V?$weak_ptr@VRawImageData@@@2@@std@@@std@@@1@@Z 0040bfb0 f i Rock.obj
 0001:0000afe0       ??0?$_Tree_unchecked_const_iterator@V?$_Tree_val@U?$_Tree_simple_types@U?$pair@$$CBV?$basic_string@DU?$char_traits@D@std@@V?$allocator@D@2@@std@@V?$weak_ptr@VRawImageData@@@2@@std@@@std@@@std@@U_Iterator_base12@2@@std@@QAE@$$QAV01@@Z 0040bfe0 f i Rock.obj
 0001:0000b020       ??0?$_Tree_unchecked_const_iterator@V?$_Tree_val@U?$_Tree_simple_types@U?$pair@$$CBV?$basic_string@DU?$char_traits@D@std@@V?$allocator@D@2@@std@@V?$weak_ptr@VRawImageData@@@2@@std@@@std@@@std@@U_Iterator_base12@2@@std@@QAE@ABV01@@Z 0040c020 f i Rock.obj
 0001:0000b060       ??0?$_Tree_unchecked_const_iterator@V?$_Tree_val@U?$_Tree_simple_types@U?$pair@$$CBV?$basic_string@DU?$char_traits@D@std@@V?$allocator@D@2@@std@@V?$weak_ptr@VRawImageData@@@2@@std@@@std@@@std@@U_Iterator_base12@2@@std@@QAE@PAU?$_Tree_node@U?$pair@$$CBV?$basic_string@DU?$char_traits@D@std@@V?$allocator@D@2@@std@@V?$weak_ptr@VRawImageData@@@2@@std@@PAX@1@PBV?$_Tree_val@U?$_Tree_simple_types@U?$pair@$$CBV?$basic_string@DU?$char_traits@D@std@@V?$allocator@D@2@@std@@V?$weak_ptr@VRawImageData@@@2@@std@@@std@@@1@@Z 0040c060 f i Rock.obj
 0001:0000b0a0       ??0?$_Tree_unchecked_iterator@V?$_Tree_val@U?$_Tree_simple_types@U?$pair@$$CBV?$basic_string@DU?$char_traits@D@std@@V?$allocator@D@2@@std@@V?$weak_ptr@VRawImageData@@@2@@std@@@std@@@std@@@std@@QAE@PAU?$_Tree_node@U?$pair@$$CBV?$basic_string@DU?$char_traits@D@std@@V?$allocator@D@2@@std@@V?$weak_ptr@VRawImageData@@@2@@std@@PAX@1@PBV?$_Tree_val@U?$_Tree_simple_types@U?$pair@$$CBV?$basic_string@DU?$char_traits@D@std@@V?$allocator@D@2@@std@@V?$weak_ptr@VRawImageData@@@2@@std@@@std@@@1@@Z 0040c0a0 f i Rock.obj
 0001:0000b0d0       ??0?$_Tree_val@U?$_Tree_simple_types@U?$pair@$$CBV?$basic_string@DU?$char_traits@D@std@@V?$allocator@D@2@@std@@V?$shared_ptr@VRawImageData@@@2@@std@@@std@@@std@@QAE@XZ 0040c0d0 f i Rock.obj
 0001:0000b110       ??0?$_Tree_val@U?$_Tree_simple_types@U?$pair@$$CBV?$basic_string@DU?$char_traits@D@std@@V?$allocator@D@2@@std@@V?$weak_ptr@VRawImageData@@@2@@std@@@std@@@std@@QAE@XZ 0040c110 f i Rock.obj
 0001:0000b150       ??0?$_Vector_const_iterator@V?$_Vector_val@U?$_Simple_types@PAVDisplayableObject@@@std@@@std@@@std@@QAE@$$QAV01@@Z 0040c150 f i Rock.obj
 0001:0000b190       ??0?$_Vector_const_iterator@V?$_Vector_val@U?$_Simple_types@PAVDisplayableObject@@@std@@@std@@@std@@QAE@ABV01@@Z 0040c190 f i Rock.obj
 0001:0000b1d0       ??0?$_Vector_const_iterator@V?$_Vector_val@U?$_Simple_types@PAVDisplayableObject@@@std@@@std@@@std@@QAE@PAPAVDisplayableObject@@PBU_Container_base12@1@@Z 0040c1d0 f i Rock.obj
 0001:0000b210       ??0?$_Vector_iterator@V?$_Vector_val@U?$_Simple_types@PAVDisplayableObject@@@std@@@std@@@std@@QAE@$$QAV01@@Z 0040c210 f i Rock.obj
 0001:0000b240       ??0?$_Vector_iterator@V?$_Vector_val@U?$_Simple_types@PAVDisplayableObject@@@std@@@std@@@std@@QAE@PAPAVDisplayableObject@@PBU_Container_base12@1@@Z 0040c240 f i Rock.obj
 0001:0000b270       ??0?$allocator@D@std@@QAE@XZ 0040c270 f i Rock.obj
 0001:0000b290       ??0?$allocator@U?$_Tree_node@U?$pair@$$CBV?$basic_string@DU?$char_traits@D@std@@V?$allocator@D@2@@std@@V?$shared_ptr@VRawImageData@@@2@@std@@PAX@std@@@std@@QAE@XZ 0040c290 f i Rock.obj
 0001:0000b2b0       ??0?$allocator@U?$_Tree_node@U?$pair@$$CBV?$basic_string@DU?$char_traits@D@std@@V?$allocator@D@2@@std@@V?$weak_ptr@VRawImageData@@@2@@std@@PAX@std@@@std@@QAE@XZ 0040c2b0 f i Rock.obj
 0001:0000b2d0       ??0?$basic_string@DU?$char_traits@D@std@@V?$allocator@D@2@@std@@QAE@$$QAV01@@Z 0040c2d0 f i Rock.obj
 0001:0000b380       ??0?$basic_string@DU?$char_traits@D@std@@V?$allocator@D@2@@std@@QAE@ABV01@@Z 0040c380 f i Rock.obj
 0001:0000b430       ??0?$basic_string@DU?$char_traits@D@std@@V?$allocator@D@2@@std@@QAE@QBD@Z 0040c430 f i Rock.obj
 0001:0000b4d0       ??0?$map@V?$basic_string@DU?$char_traits@D@std@@V?$allocator@D@2@@std@@V?$shared_ptr@VRawImageData@@@2@U?$less@V?$basic_string@DU?$char_traits@D@std@@V?$allocator@D@2@@std@@@2@V?$allocator@U?$pair@$$CBV?$basic_string@DU?$char_traits@D@std@@V?$allocator@D@2@@std@@V?$shared_ptr@VRawImageData@@@2@@std@@@2@@std@@QAE@XZ 0040c4d0 f i Rock.obj
 0001:0000b500       ??0?$map@V?$basic_string@DU?$char_traits@D@std@@V?$allocator@D@2@@std@@V?$weak_ptr@VRawImageData@@@2@U?$less@V?$basic_string@DU?$char_traits@D@std@@V?$allocator@D@2@@std@@@2@V?$allocator@U?$pair@$$CBV?$basic_string@DU?$char_traits@D@std@@V?$allocator@D@2@@std@@V?$weak_ptr@VRawImageData@@@2@@std@@@2@@std@@QAE@XZ 0040c500 f i Rock.obj
 0001:0000b530       ??0?$shared_ptr@VRawImageData@@@std@@QAE@$$QAV01@@Z 0040c530 f i Rock.obj
 0001:0000b570       ??0?$shared_ptr@VRawImageData@@@std@@QAE@$$T@Z 0040c570 f i Rock.obj
 0001:0000b590       ??0?$shared_ptr@VRawImageData@@@std@@QAE@XZ 0040c590 f i Rock.obj
 0001:0000b5b0       ??0?$weak_ptr@VRawImageData@@@std@@QAE@$$QAV01@@Z 0040c5b0 f i Rock.obj
 0001:0000b5f0       ??0?$weak_ptr@VRawImageData@@@std@@QAE@ABV01@@Z 0040c5f0 f i Rock.obj
 0001:0000b620       ??0ImageManager@@QAE@XZ    0040c620 f i Rock.obj
 0001:0000b690       ??0RawImageData@@QAE@V?$basic_string@DU?$char_traits@D@std@@V?$allocator@D@2@@std@@@Z 0040c690 f i Rock.obj
 0001:0000b740       ??0_Basic_container_proxy_ptr12@std@@IAE@XZ 0040c740 f i Rock.obj
 0001:0000b760       ??0_Bxty@?$_String_val@U?$_Simple_types@D@std@@@std@@QAE@XZ 0040c760 f i Rock.obj
 0001:0000b790       ??0_Container_base12@std@@QAE@XZ 0040c790 f i Rock.obj
 0001:0000b7b0       ??0_Container_proxy@std@@QAE@PAU_Container_base12@1@@Z 0040c7b0 f i Rock.obj
 0001:0000b7e0       ??0_Iterator_base12@std@@QAE@ABU01@@Z 0040c7e0 f i Rock.obj
 0001:0000b820       ??0_Iterator_base12@std@@QAE@XZ 0040c820 f i Rock.obj
 0001:0000b850       ??0_Ref_count_base@std@@IAE@XZ 0040c850 f i Rock.obj
 0001:0000b880       ??0_Sentry_base@?$basic_ostream@DU?$char_traits@D@std@@@std@@QAE@AAV12@@Z 0040c880 f i Rock.obj
 0001:0000b8e0       ??0bad_alloc@std@@AAE@QBD@Z 0040c8e0 f i Rock.obj
 0001:0000b910       ??0bad_alloc@std@@QAE@ABV01@@Z 0040c910 f i Rock.obj
 0001:0000b940       ??0bad_array_new_length@std@@QAE@ABV01@@Z 0040c940 f i Rock.obj
 0001:0000b970       ??0bad_array_new_length@std@@QAE@XZ 0040c970 f i Rock.obj
 0001:0000b9a0       ??0exception@std@@QAE@ABV01@@Z 0040c9a0 f i Rock.obj
 0001:0000b9f0       ??0exception@std@@QAE@QBDH@Z 0040c9f0 f i Rock.obj
 0001:0000ba30       ??0sentry@?$basic_ostream@DU?$char_traits@D@std@@@std@@QAE@AAV12@@Z 0040ca30 f i Rock.obj
 0001:0000bb30       ??1?$_Alloc_construct_ptr@V?$allocator@U?$_Tree_node@U?$pair@$$CBV?$basic_string@DU?$char_traits@D@std@@V?$allocator@D@2@@std@@V?$shared_ptr@VRawImageData@@@2@@std@@PAX@std@@@std@@@std@@QAE@XZ 0040cb30 f i Rock.obj
 0001:0000bba0       ??1?$_Alloc_construct_ptr@V?$allocator@U?$_Tree_node@U?$pair@$$CBV?$basic_string@DU?$char_traits@D@std@@V?$allocator@D@2@@std@@V?$weak_ptr@VRawImageData@@@2@@std@@PAX@std@@@std@@@std@@QAE@XZ 0040cba0 f i Rock.obj
 0001:0000bc10       ??1?$_Compressed_pair@V?$allocator@D@std@@V?$_String_val@U?$_Simple_types@D@std@@@2@$00@std@@QAE@XZ 0040cc10 f i Rock.obj
 0001:0000bc30       ??1?$_Container_proxy_ptr12@V?$allocator@U_Container_proxy@std@@@std@@@std@@QAE@XZ 0040cc30 f i Rock.obj
 0001:0000bc70       ??1?$_Ref_count@VRawImageData@@@std@@UAE@XZ 0040cc70 f i Rock.obj
 0001:0000bc90       ??1?$_String_val@U?$_Simple_types@D@std@@@std@@QAE@XZ 0040cc90 f i Rock.obj
 0001:0000bcb0       ??1?$_Temporary_owner@VRawImageData@@@std@@QAE@XZ 0040ccb0 f i Rock.obj
 0001:0000bcf0       ??1?$_Tree@V?$_Tmap_traits@V?$basic_string@DU?$char_traits@D@std@@V?$allocator@D@2@@std@@V?$weak_ptr@VRawImageData@@@2@U?$less@V?$basic_string@DU?$char_traits@D@std@@V?$allocator@D@2@@std@@@2@V?$allocator@U?$pair@$$CBV?$basic_string@DU?$char_traits@D@std@@V?$allocator@D@2@@std@@V?$weak_ptr@VRawImageData@@@2@@std@@@2@$0A@@std@@@std@@QAE@XZ 0040ccf0 f i Rock.obj
 0001:0000bd60       ??1?$_Tree_const_iterator@V?$_Tree_val@U?$_Tree_simple_types@U?$pair@$$CBV?$basic_string@DU?$char_traits@D@std@@V?$allocator@D@2@@std@@V?$shared_ptr@VRawImageData@@@2@@std@@@std@@@std@@@std@@QAE@XZ 0040cd60 f i Rock.obj
 0001:0000bd80       ??1?$_Tree_const_iterator@V?$_Tree_val@U?$_Tree_simple_types@U?$pair@$$CBV?$basic_string@DU?$char_traits@D@std@@V?$allocator@D@2@@std@@V?$weak_ptr@VRawImageData@@@2@@std@@@std@@@std@@@std@@QAE@XZ 0040cd80 f i Rock.obj
 0001:0000bda0       ??1?$_Tree_iterator@V?$_Tree_val@U?$_Tree_simple_types@U?$pair@$$CBV?$basic_string@DU?$char_traits@D@std@@V?$allocator@D@2@@std@@V?$shared_ptr@VRawImageData@@@2@@std@@@std@@@std@@@std@@QAE@XZ 0040cda0 f i Rock.obj
 0001:0000bdc0       ??1?$_Tree_iterator@V?$_Tree_val@U?$_Tree_simple_types@U?$pair@$$CBV?$basic_string@DU?$char_traits@D@std@@V?$allocator@D@2@@std@@V?$weak_ptr@VRawImageData@@@2@@std@@@std@@@std@@@std@@QAE@XZ 0040cdc0 f i Rock.obj
 0001:0000bde0       ??1?$_Tree_temp_node@V?$allocator@U?$_Tree_node@U?$pair@$$CBV?$basic_string@DU?$char_traits@D@std@@V?$allocator@D@2@@std@@V?$shared_ptr@VRawImageData@@@2@@std@@PAX@std@@@std@@@std@@QAE@XZ 0040cde0 f i Rock.obj
 0001:0000beb0       ??1?$_Tree_temp_node@V?$allocator@U?$_Tree_node@U?$pair@$$CBV?$basic_string@DU?$char_traits@D@std@@V?$allocator@D@2@@std@@V?$weak_ptr@VRawImageData@@@2@@std@@PAX@std@@@std@@@std@@QAE@XZ 0040ceb0 f i Rock.obj
 0001:0000bf80       ??1?$_Tree_temp_node_alloc@V?$allocator@U?$_Tree_node@U?$pair@$$CBV?$basic_string@DU?$char_traits@D@std@@V?$allocator@D@2@@std@@V?$shared_ptr@VRawImageData@@@2@@std@@PAX@std@@@std@@@std@@QAE@XZ 0040cf80 f i Rock.obj
 0001:0000bfa0       ??1?$_Tree_temp_node_alloc@V?$allocator@U?$_Tree_node@U?$pair@$$CBV?$basic_string@DU?$char_traits@D@std@@V?$allocator@D@2@@std@@V?$weak_ptr@VRawImageData@@@2@@std@@PAX@std@@@std@@@std@@QAE@XZ 0040cfa0 f i Rock.obj
 0001:0000bfc0       ??1?$_Tree_unchecked_const_iterator@V?$_Tree_val@U?$_Tree_simple_types@U?$pair@$$CBV?$basic_string@DU?$char_traits@D@std@@V?$allocator@D@2@@std@@V?$shared_ptr@VRawImageData@@@2@@std@@@std@@@std@@U_Iterator_base12@2@@std@@QAE@XZ 0040cfc0 f i Rock.obj
 0001:0000bfe0       ??1?$_Tree_unchecked_const_iterator@V?$_Tree_val@U?$_Tree_simple_types@U?$pair@$$CBV?$basic_string@DU?$char_traits@D@std@@V?$allocator@D@2@@std@@V?$weak_ptr@VRawImageData@@@2@@std@@@std@@@std@@U_Iterator_base12@2@@std@@QAE@XZ 0040cfe0 f i Rock.obj
 0001:0000c000       ??1?$_Vector_const_iterator@V?$_Vector_val@U?$_Simple_types@PAVDisplayableObject@@@std@@@std@@@std@@QAE@XZ 0040d000 f i Rock.obj
 0001:0000c020       ??1?$_Vector_iterator@V?$_Vector_val@U?$_Simple_types@PAVDisplayableObject@@@std@@@std@@@std@@QAE@XZ 0040d020 f i Rock.obj
 0001:0000c040       ??1?$basic_string@DU?$char_traits@D@std@@V?$allocator@D@2@@std@@QAE@XZ 0040d040 f i Rock.obj
 0001:0000c0b0       ??1?$map@V?$basic_string@DU?$char_traits@D@std@@V?$allocator@D@2@@std@@V?$weak_ptr@VRawImageData@@@2@U?$less@V?$basic_string@DU?$char_traits@D@std@@V?$allocator@D@2@@std@@@2@V?$allocator@U?$pair@$$CBV?$basic_string@DU?$char_traits@D@std@@V?$allocator@D@2@@std@@V?$weak_ptr@VRawImageData@@@2@@std@@@2@@std@@QAE@XZ 0040d0b0 f i Rock.obj
 0001:0000c0d0       ??1?$pair@$$CBV?$basic_string@DU?$char_traits@D@std@@V?$allocator@D@2@@std@@V?$shared_ptr@VRawImageData@@@2@@std@@QAE@XZ 0040d0d0 f i Rock.obj
 0001:0000c100       ??1?$pair@$$CBV?$basic_string@DU?$char_traits@D@std@@V?$allocator@D@2@@std@@V?$weak_ptr@VRawImageData@@@2@@std@@QAE@XZ 0040d100 f i Rock.obj
 0001:0000c130       ??1?$pair@V?$_Tree_iterator@V?$_Tree_val@U?$_Tree_simple_types@U?$pair@$$CBV?$basic_string@DU?$char_traits@D@std@@V?$allocator@D@2@@std@@V?$shared_ptr@VRawImageData@@@2@@std@@@std@@@std@@@std@@_N@std@@QAE@XZ 0040d130 f i Rock.obj
 0001:0000c150       ??1?$pair@V?$_Tree_iterator@V?$_Tree_val@U?$_Tree_simple_types@U?$pair@$$CBV?$basic_string@DU?$char_traits@D@std@@V?$allocator@D@2@@std@@V?$weak_ptr@VRawImageData@@@2@@std@@@std@@@std@@@std@@_N@std@@QAE@XZ 0040d150 f i Rock.obj
 0001:0000c170       ??1?$pair@V?$basic_string@DU?$char_traits@D@std@@V?$allocator@D@2@@std@@V?$shared_ptr@VRawImageData@@@2@@std@@QAE@XZ 0040d170 f i Rock.obj
 0001:0000c1a0       ??1?$pair@V?$basic_string@DU?$char_traits@D@std@@V?$allocator@D@2@@std@@V?$weak_ptr@VRawImageData@@@2@@std@@QAE@XZ 0040d1a0 f i Rock.obj
 0001:0000c1d0       ??1?$weak_ptr@VRawImageData@@@std@@QAE@XZ 0040d1d0 f i Rock.obj
 0001:0000c1f0       ??1RawImageData@@QAE@XZ    0040d1f0 f i Rock.obj
 0001:0000c250       ??1_Bxty@?$_String_val@U?$_Simple_types@D@std@@@std@@QAE@XZ 0040d250 f i Rock.obj
 0001:0000c260       ??1_Iterator_base12@std@@QAE@XZ 0040d260 f i Rock.obj
 0001:0000c280       ??1_Ref_count_base@std@@UAE@XZ 0040d280 f i Rock.obj
 0001:0000c290       ??1_Sentry_base@?$basic_ostream@DU?$char_traits@D@std@@@std@@QAE@XZ 0040d290 f i Rock.obj
 0001:0000c320       ??1bad_alloc@std@@UAE@XZ   0040d320 f i Rock.obj
 0001:0000c340       ??1bad_array_new_length@std@@UAE@XZ 0040d340 f i Rock.obj
 0001:0000c360       ??1exception@std@@UAE@XZ   0040d360 f i Rock.obj
 0001:0000c390       ??1sentry@?$basic_ostream@DU?$char_traits@D@std@@@std@@QAE@XZ 0040d390 f i Rock.obj
 0001:0000c420       ??2@YAPAXIPAX@Z            0040d420 f i Rock.obj
 0001:0000c430       ??4_Iterator_base12@std@@QAEAAU01@ABU01@@Z 0040d430 f i Rock.obj
 0001:0000c460       ??8?$_Tree_const_iterator@V?$_Tree_val@U?$_Tree_simple_types@U?$pair@$$CBV?$basic_string@DU?$char_traits@D@std@@V?$allocator@D@2@@std@@V?$weak_ptr@VRawImageData@@@2@@std@@@std@@@std@@@std@@QBE_NABV01@@Z 0040d460 f i Rock.obj
 0001:0000c520       ??8?$_Vector_const_iterator@V?$_Vector_val@U?$_Simple_types@PAVDisplayableObject@@@std@@@std@@@std@@QBE_NABV01@@Z 0040d520 f i Rock.obj
 0001:0000c570       ??9?$_Tree_const_iterator@V?$_Tree_val@U?$_Tree_simple_types@U?$pair@$$CBV?$basic_string@DU?$char_traits@D@std@@V?$allocator@D@2@@std@@V?$weak_ptr@VRawImageData@@@2@@std@@@std@@@std@@@std@@QBE_NABV01@@Z 0040d570 f i Rock.obj
 0001:0000c5c0       ??9?$_Vector_const_iterator@V?$_Vector_val@U?$_Simple_types@PAVDisplayableObject@@@std@@@std@@@std@@QBE_NABV01@@Z 0040d5c0 f i Rock.obj
 0001:0000c610       ??Bsentry@?$basic_ostream@DU?$char_traits@D@std@@@std@@QBE_NXZ 0040d610 f i Rock.obj
 0001:0000c630       ??C?$_Tree_iterator@V?$_Tree_val@U?$_Tree_simple_types@U?$pair@$$CBV?$basic_string@DU?$char_traits@D@std@@V?$allocator@D@2@@std@@V?$weak_ptr@VRawImageData@@@2@@std@@@std@@@std@@@std@@QBEPAU?$pair@$$CBV?$basic_string@DU?$char_traits@D@std@@V?$allocator@D@2@@std@@V?$weak_ptr@VRawImageData@@@2@@1@XZ 0040d630 f i Rock.obj
 0001:0000c660       ??D?$_Tree_const_iterator@V?$_Tree_val@U?$_Tree_simple_types@U?$pair@$$CBV?$basic_string@DU?$char_traits@D@std@@V?$allocator@D@2@@std@@V?$weak_ptr@VRawImageData@@@2@@std@@@std@@@std@@@std@@QBEABU?$pair@$$CBV?$basic_string@DU?$char_traits@D@std@@V?$allocator@D@2@@std@@V?$weak_ptr@VRawImageData@@@2@@1@XZ 0040d660 f i Rock.obj
 0001:0000c770       ??D?$_Tree_iterator@V?$_Tree_val@U?$_Tree_simple_types@U?$pair@$$CBV?$basic_string@DU?$char_traits@D@std@@V?$allocator@D@2@@std@@V?$weak_ptr@VRawImageData@@@2@@std@@@std@@@std@@@std@@QBEAAU?$pair@$$CBV?$basic_string@DU?$char_traits@D@std@@V?$allocator@D@2@@std@@V?$weak_ptr@VRawImageData@@@2@@1@XZ 0040d770 f i Rock.obj
 0001:0000c790       ??E?$_Tree_unchecked_const_iterator@V?$_Tree_val@U?$_Tree_simple_types@U?$pair@$$CBV?$basic_string@DU?$char_traits@D@std@@V?$allocator@D@2@@std@@V?$weak_ptr@VRawImageData@@@2@@std@@@std@@@std@@U_Iterator_base0@2@@std@@QAEAAV01@XZ 0040d790 f i Rock.obj
 0001:0000c820       ??R?$less@V?$basic_string@DU?$char_traits@D@std@@V?$allocator@D@2@@std@@@std@@QBE_NABV?$basic_string@DU?$char_traits@D@std@@V?$allocator@D@2@@1@0@Z 0040d820 f i Rock.obj
 0001:0000c850       ??_E?$_Ref_count@VRawImageData@@@std@@UAEPAXI@Z 0040d850 f i Rock.obj
 0001:0000c850       ??_G?$_Ref_count@VRawImageData@@@std@@UAEPAXI@Z 0040d850 f i Rock.obj
 0001:0000c890       ??_G?$pair@$$CBV?$basic_string@DU?$char_traits@D@std@@V?$allocator@D@2@@std@@V?$shared_ptr@VRawImageData@@@2@@std@@QAEPAXI@Z 0040d890 f i Rock.obj
 0001:0000c8d0       ??_G?$pair@$$CBV?$basic_string@DU?$char_traits@D@std@@V?$allocator@D@2@@std@@V?$weak_ptr@VRawImageData@@@2@@std@@QAEPAXI@Z 0040d8d0 f i Rock.obj
 0001:0000c910       ??_GRawImageData@@QAEPAXI@Z 0040d910 f i Rock.obj
 0001:0000c950       ??_Ebad_alloc@std@@UAEPAXI@Z 0040d950 f i Rock.obj
 0001:0000c950       ??_Gbad_alloc@std@@UAEPAXI@Z 0040d950 f i Rock.obj
 0001:0000c990       ??_Ebad_array_new_length@std@@UAEPAXI@Z 0040d990 f i Rock.obj
 0001:0000c990       ??_Gbad_array_new_length@std@@UAEPAXI@Z 0040d990 f i Rock.obj
 0001:0000c9d0       ??_Eexception@std@@UAEPAXI@Z 0040d9d0 f i Rock.obj
 0001:0000c9d0       ??_Gexception@std@@UAEPAXI@Z 0040d9d0 f i Rock.obj
 0001:0000ca10       ?_Activate_SSO_buffer@?$_String_val@U?$_Simple_types@D@std@@@std@@QAEXXZ 0040da10 f i Rock.obj
 0001:0000ca20       ?_Adjust_manually_vector_aligned@std@@YAXAAPAXAAI@Z 0040da20 f i Rock.obj
 0001:0000cb70       ?_Adopt@_Iterator_base0@std@@QAEXPBX@Z 0040db70 f i Rock.obj
 0001:0000cb80       ?_Adopt@_Iterator_base12@std@@QAEXPBU_Container_base12@2@@Z 0040db80 f i Rock.obj
 0001:0000cba0       ?_Adopt_locked@_Iterator_base12@std@@AAEXPBU_Container_base12@2@@Z 0040dba0 f i Rock.obj
 0001:0000cbe0       ?_Adopt_unlocked@_Iterator_base12@std@@AAEXPBU_Container_base12@2@@Z 0040dbe0 f i Rock.obj
 0001:0000cc60       ?_Alloc_sentinel_and_proxy@?$_Tree@V?$_Tmap_traits@V?$basic_string@DU?$char_traits@D@std@@V?$allocator@D@2@@std@@V?$shared_ptr@VRawImageData@@@2@U?$less@V?$basic_string@DU?$char_traits@D@std@@V?$allocator@D@2@@std@@@2@V?$allocator@U?$pair@$$CBV?$basic_string@DU?$char_traits@D@std@@V?$allocator@D@2@@std@@V?$shared_ptr@VRawImageData@@@2@@std@@@2@$0A@@std@@@std@@IAEXXZ 0040dc60 f i Rock.obj
 0001:0000cd30       ?_Alloc_sentinel_and_proxy@?$_Tree@V?$_Tmap_traits@V?$basic_string@DU?$char_traits@D@std@@V?$allocator@D@2@@std@@V?$weak_ptr@VRawImageData@@@2@U?$less@V?$basic_string@DU?$char_traits@D@std@@V?$allocator@D@2@@std@@@2@V?$allocator@U?$pair@$$CBV?$basic_string@DU?$char_traits@D@std@@V?$allocator@D@2@@std@@V?$weak_ptr@VRawImageData@@@2@@std@@@2@$0A@@std@@@std@@IAEXXZ 0040dd30 f i Rock.obj
 0001:0000ce00       ?_Allocate@?$_Alloc_construct_ptr@V?$allocator@U?$_Tree_node@U?$pair@$$CBV?$basic_string@DU?$char_traits@D@std@@V?$allocator@D@2@@std@@V?$shared_ptr@VRawImageData@@@2@@std@@PAX@std@@@std@@@std@@QAEXXZ 0040de00 f i Rock.obj
 0001:0000ce30       ?_Allocate@?$_Alloc_construct_ptr@V?$allocator@U?$_Tree_node@U?$pair@$$CBV?$basic_string@DU?$char_traits@D@std@@V?$allocator@D@2@@std@@V?$weak_ptr@VRawImageData@@@2@@std@@PAX@std@@@std@@@std@@QAEXXZ 0040de30 f i Rock.obj
 0001:0000ce60       ?_Allocate@_Default_allocate_traits@std@@SAPAXI@Z 0040de60 f i Rock.obj
 0001:0000ce80       ?_Assign_locked@_Iterator_base12@std@@AAEXABU12@@Z 0040de80 f i Rock.obj
 0001:0000cec0       ?_Assign_unlocked@_Iterator_base12@std@@AAEXABU12@@Z 0040dec0 f i Rock.obj
 0001:0000cf10       ?_Calculate_growth@?$basic_string@DU?$char_traits@D@std@@V?$allocator@D@2@@std@@ABEII@Z 0040df10 f i Rock.obj
 0001:0000cf50       ?_Calculate_growth@?$basic_string@DU?$char_traits@D@std@@V?$allocator@D@2@@std@@CAIIII@Z 0040df50 f i Rock.obj
 0001:0000cfc0       ?_Check_grow_by_1@?$_Tree@V?$_Tmap_traits@V?$basic_string@DU?$char_traits@D@std@@V?$allocator@D@2@@std@@V?$shared_ptr@VRawImageData@@@2@U?$less@V?$basic_string@DU?$char_traits@D@std@@V?$allocator@D@2@@std@@@2@V?$allocator@U?$pair@$$CBV?$basic_string@DU?$char_traits@D@std@@V?$allocator@D@2@@std@@V?$shared_ptr@VRawImageData@@@2@@std@@@2@$0A@@std@@@std@@IAEXXZ 0040dfc0 f i Rock.obj
 0001:0000d000       ?_Check_grow_by_1@?$_Tree@V?$_Tmap_traits@V?$basic_string@DU?$char_traits@D@std@@V?$allocator@D@2@@std@@V?$weak_ptr@VRawImageData@@@2@U?$less@V?$basic_string@DU?$char_traits@D@std@@V?$allocator@D@2@@std@@@2@V?$allocator@U?$pair@$$CBV?$basic_string@DU?$char_traits@D@std@@V?$allocator@D@2@@std@@V?$weak_ptr@VRawImageData@@@2@@std@@@2@$0A@@std@@@std@@IAEXXZ 0040e000 f i Rock.obj
 0001:0000d040       ?_Compat@?$_Vector_const_iterator@V?$_Vector_val@U?$_Simple_types@PAVDisplayableObject@@@std@@@std@@@std@@QBEXABV12@@Z 0040e040 f i Rock.obj
 0001:0000d0e0       ?_Decwref@?$_Ptr_base@VRawImageData@@@std@@IAEXXZ 0040e0e0 f i Rock.obj
 0001:0000d110       ?_Delete_this@?$_Ref_count@VRawImageData@@@std@@EAEXXZ 0040e110 f i Rock.obj
 0001:0000d160       ?_Destroy@?$_Ref_count@VRawImageData@@@std@@EAEXXZ 0040e160 f i Rock.obj
 0001:0000d1a0       ?_Erase_unchecked@?$_Tree@V?$_Tmap_traits@V?$basic_string@DU?$char_traits@D@std@@V?$allocator@D@2@@std@@V?$weak_ptr@VRawImageData@@@2@U?$less@V?$basic_string@DU?$char_traits@D@std@@V?$allocator@D@2@@std@@@2@V?$allocator@U?$pair@$$CBV?$basic_string@DU?$char_traits@D@std@@V?$allocator@D@2@@std@@V?$weak_ptr@VRawImageData@@@2@@std@@@2@$0A@@std@@@std@@AAEPAU?$_Tree_node@U?$pair@$$CBV?$basic_string@DU?$char_traits@D@std@@V?$allocator@D@2@@std@@V?$weak_ptr@VRawImageData@@@2@@std@@PAX@2@V?$_Tree_unchecked_const_iterator@V?$_Tree_val@U?$_Tree_simple_types@U?$pair@$$CBV?$basic_string@DU?$char_traits@D@std@@V?$allocator@D@2@@std@@V?$weak_ptr@VRawImageData@@@2@@std@@@std@@@std@@U_Iterator_base0@2@@2@@Z 0040e1a0 f i Rock.obj
 0001:0000d220       ?_Extract@?$_In_place_key_extract_map@V?$basic_string@DU?$char_traits@D@std@@V?$allocator@D@2@@std@@U?$pair@V?$basic_string@DU?$char_traits@D@std@@V?$allocator@D@2@@std@@V?$shared_ptr@VRawImageData@@@2@@2@@std@@SAABV?$basic_string@DU?$char_traits@D@std@@V?$allocator@D@2@@2@ABU?$pair@V?$basic_string@DU?$char_traits@D@std@@V?$allocator@D@2@@std@@V?$shared_ptr@VRawImageData@@@2@@2@@Z 0040e220 f i Rock.obj
 0001:0000d230       ?_Extract@?$_In_place_key_extract_map@V?$basic_string@DU?$char_traits@D@std@@V?$allocator@D@2@@std@@U?$pair@V?$basic_string@DU?$char_traits@D@std@@V?$allocator@D@2@@std@@V?$weak_ptr@VRawImageData@@@2@@2@@std@@SAABV?$basic_string@DU?$char_traits@D@std@@V?$allocator@D@2@@2@ABU?$pair@V?$basic_string@DU?$char_traits@D@std@@V?$allocator@D@2@@std@@V?$weak_ptr@VRawImageData@@@2@@2@@Z 0040e230 f i Rock.obj
 0001:0000d240       ?_Extract@?$_Tree_val@U?$_Tree_simple_types@U?$pair@$$CBV?$basic_string@DU?$char_traits@D@std@@V?$allocator@D@2@@std@@V?$weak_ptr@VRawImageData@@@2@@std@@@std@@@std@@QAEPAU?$_Tree_node@U?$pair@$$CBV?$basic_string@DU?$char_traits@D@std@@V?$allocator@D@2@@std@@V?$weak_ptr@VRawImageData@@@2@@std@@PAX@2@V?$_Tree_unchecked_const_iterator@V?$_Tree_val@U?$_Tree_simple_types@U?$pair@$$CBV?$basic_string@DU?$char_traits@D@std@@V?$allocator@D@2@@std@@V?$weak_ptr@VRawImageData@@@2@@std@@@std@@@std@@U_Iterator_base0@2@@2@@Z 0040e240 f i Rock.obj
 0001:0000d780       ?_Get_deleter@_Ref_count_base@std@@UBEPAXABVtype_info@@@Z 0040e780 f i Rock.obj
 0001:0000d7a0       ?_Get_first@?$_Compressed_pair@U?$less@V?$basic_string@DU?$char_traits@D@std@@V?$allocator@D@2@@std@@@std@@V?$_Compressed_pair@V?$allocator@U?$_Tree_node@U?$pair@$$CBV?$basic_string@DU?$char_traits@D@std@@V?$allocator@D@2@@std@@V?$shared_ptr@VRawImageData@@@2@@std@@PAX@std@@@std@@V?$_Tree_val@U?$_Tree_simple_types@U?$pair@$$CBV?$basic_string@DU?$char_traits@D@std@@V?$allocator@D@2@@std@@V?$shared_ptr@VRawImageData@@@2@@std@@@std@@@2@$00@2@$00@std@@QBEABU?$less@V?$basic_string@DU?$char_traits@D@std@@V?$allocator@D@2@@std@@@2@XZ 0040e7a0 f i Rock.obj
 0001:0000d7c0       ?_Get_first@?$_Compressed_pair@U?$less@V?$basic_string@DU?$char_traits@D@std@@V?$allocator@D@2@@std@@@std@@V?$_Compressed_pair@V?$allocator@U?$_Tree_node@U?$pair@$$CBV?$basic_string@DU?$char_traits@D@std@@V?$allocator@D@2@@std@@V?$weak_ptr@VRawImageData@@@2@@std@@PAX@std@@@std@@V?$_Tree_val@U?$_Tree_simple_types@U?$pair@$$CBV?$basic_string@DU?$char_traits@D@std@@V?$allocator@D@2@@std@@V?$weak_ptr@VRawImageData@@@2@@std@@@std@@@2@$00@2@$00@std@@QBEABU?$less@V?$basic_string@DU?$char_traits@D@std@@V?$allocator@D@2@@std@@@2@XZ 0040e7c0 f i Rock.obj
 0001:0000d7e0       ?_Get_first@?$_Compressed_pair@V?$allocator@D@std@@V?$_String_val@U?$_Simple_types@D@std@@@2@$00@std@@QAEAAV?$allocator@D@2@XZ 0040e7e0 f i Rock.obj
 0001:0000d800       ?_Get_first@?$_Compressed_pair@V?$allocator@D@std@@V?$_String_val@U?$_Simple_types@D@std@@@2@$00@std@@QBEABV?$allocator@D@2@XZ 0040e800 f i Rock.obj
 0001:0000d820       ?_Get_first@?$_Compressed_pair@V?$allocator@PAVDisplayableObject@@@std@@V?$_Vector_val@U?$_Simple_types@PAVDisplayableObject@@@std@@@2@$00@std@@QAEAAV?$allocator@PAVDisplayableObject@@@2@XZ 0040e820 f i Rock.obj
 0001:0000d840       ?_Get_first@?$_Compressed_pair@V?$allocator@U?$_Tree_node@U?$pair@$$CBV?$basic_string@DU?$char_traits@D@std@@V?$allocator@D@2@@std@@V?$shared_ptr@VRawImageData@@@2@@std@@PAX@std@@@std@@V?$_Tree_val@U?$_Tree_simple_types@U?$pair@$$CBV?$basic_string@DU?$char_traits@D@std@@V?$allocator@D@2@@std@@V?$shared_ptr@VRawImageData@@@2@@std@@@std@@@2@$00@std@@QAEAAV?$allocator@U?$_Tree_node@U?$pair@$$CBV?$basic_string@DU?$char_traits@D@std@@V?$allocator@D@2@@std@@V?$shared_ptr@VRawImageData@@@2@@std@@PAX@std@@@2@XZ 0040e840 f i Rock.obj
 0001:0000d860       ?_Get_first@?$_Compressed_pair@V?$allocator@U?$_Tree_node@U?$pair@$$CBV?$basic_string@DU?$char_traits@D@std@@V?$allocator@D@2@@std@@V?$shared_ptr@VRawImageData@@@2@@std@@PAX@std@@@std@@V?$_Tree_val@U?$_Tree_simple_types@U?$pair@$$CBV?$basic_string@DU?$char_traits@D@std@@V?$allocator@D@2@@std@@V?$shared_ptr@VRawImageData@@@2@@std@@@std@@@2@$00@std@@QBEABV?$allocator@U?$_Tree_node@U?$pair@$$CBV?$basic_string@DU?$char_traits@D@std@@V?$allocator@D@2@@std@@V?$shared_ptr@VRawImageData@@@2@@std@@PAX@std@@@2@XZ 0040e860 f i Rock.obj
 0001:0000d880       ?_Get_first@?$_Compressed_pair@V?$allocator@U?$_Tree_node@U?$pair@$$CBV?$basic_string@DU?$char_traits@D@std@@V?$allocator@D@2@@std@@V?$weak_ptr@VRawImageData@@@2@@std@@PAX@std@@@std@@V?$_Tree_val@U?$_Tree_simple_types@U?$pair@$$CBV?$basic_string@DU?$char_traits@D@std@@V?$allocator@D@2@@std@@V?$weak_ptr@VRawImageData@@@2@@std@@@std@@@2@$00@std@@QAEAAV?$allocator@U?$_Tree_node@U?$pair@$$CBV?$basic_string@DU?$char_traits@D@std@@V?$allocator@D@2@@std@@V?$weak_ptr@VRawImageData@@@2@@std@@PAX@std@@@2@XZ 0040e880 f i Rock.obj
 0001:0000d8a0       ?_Get_first@?$_Compressed_pair@V?$allocator@U?$_Tree_node@U?$pair@$$CBV?$basic_string@DU?$char_traits@D@std@@V?$allocator@D@2@@std@@V?$weak_ptr@VRawImageData@@@2@@std@@PAX@std@@@std@@V?$_Tree_val@U?$_Tree_simple_types@U?$pair@$$CBV?$basic_string@DU?$char_traits@D@std@@V?$allocator@D@2@@std@@V?$weak_ptr@VRawImageData@@@2@@std@@@std@@@2@$00@std@@QBEABV?$allocator@U?$_Tree_node@U?$pair@$$CBV?$basic_string@DU?$char_traits@D@std@@V?$allocator@D@2@@std@@V?$weak_ptr@VRawImageData@@@2@@std@@PAX@std@@@2@XZ 0040e8a0 f i Rock.obj
 0001:0000d8c0       ?_Get_scary@?$_Tree@V?$_Tmap_traits@V?$basic_string@DU?$char_traits@D@std@@V?$allocator@D@2@@std@@V?$shared_ptr@VRawImageData@@@2@U?$less@V?$basic_string@DU?$char_traits@D@std@@V?$allocator@D@2@@std@@@2@V?$allocator@U?$pair@$$CBV?$basic_string@DU?$char_traits@D@std@@V?$allocator@D@2@@std@@V?$shared_ptr@VRawImageData@@@2@@std@@@2@$0A@@std@@@std@@IAEPAV?$_Tree_val@U?$_Tree_simple_types@U?$pair@$$CBV?$basic_string@DU?$char_traits@D@std@@V?$allocator@D@2@@std@@V?$shared_ptr@VRawImageData@@@2@@std@@@std@@@2@XZ 0040e8c0 f i Rock.obj
 0001:0000d8e0       ?_Get_scary@?$_Tree@V?$_Tmap_traits@V?$basic_string@DU?$char_traits@D@std@@V?$allocator@D@2@@std@@V?$shared_ptr@VRawImageData@@@2@U?$less@V?$basic_string@DU?$char_traits@D@std@@V?$allocator@D@2@@std@@@2@V?$allocator@U?$pair@$$CBV?$basic_string@DU?$char_traits@D@std@@V?$allocator@D@2@@std@@V?$shared_ptr@VRawImageData@@@2@@std@@@2@$0A@@std@@@std@@IBEPBV?$_Tree_val@U?$_Tree_simple_types@U?$pair@$$CBV?$basic_string@DU?$char_traits@D@std@@V?$allocator@D@2@@std@@V?$shared_ptr@VRawImageData@@@2@@std@@@std@@@2@XZ 0040e8e0 f i Rock.obj
 0001:0000d900       ?_Get_scary@?$_Tree@V?$_Tmap_traits@V?$basic_string@DU?$char_traits@D@std@@V?$allocator@D@2@@std@@V?$weak_ptr@VRawImageData@@@2@U?$less@V?$basic_string@DU?$char_traits@D@std@@V?$allocator@D@2@@std@@@2@V?$allocator@U?$pair@$$CBV?$basic_string@DU?$char_traits@D@std@@V?$allocator@D@2@@std@@V?$weak_ptr@VRawImageData@@@2@@std@@@2@$0A@@std@@@std@@IAEPAV?$_Tree_val@U?$_Tree_simple_types@U?$pair@$$CBV?$basic_string@DU?$char_traits@D@std@@V?$allocator@D@2@@std@@V?$weak_ptr@VRawImageData@@@2@@std@@@std@@@2@XZ 0040e900 f i Rock.obj
 0001:0000d920       ?_Get_scary@?$_Tree@V?$_Tmap_traits@V?$basic_string@DU?$char_traits@D@std@@V?$allocator@D@2@@std@@V?$weak_ptr@VRawImageData@@@2@U?$less@V?$basic_string@DU?$char_traits@D@std@@V?$allocator@D@2@@std@@@2@V?$allocator@U?$pair@$$CBV?$basic_string@DU?$char_traits@D@std@@V?$allocator@D@2@@std@@V?$weak_ptr@VRawImageData@@@2@@std@@@2@$0A@@std@@@std@@IBEPBV?$_Tree_val@U?$_Tree_simple_types@U?$pair@$$CBV?$basic_string@DU?$char_traits@D@std@@V?$allocator@D@2@@std@@V?$weak_ptr@VRawImageData@@@2@@std@@@std@@@2@XZ 0040e920 f i Rock.obj
 0001:0000d940       ?_Getal@?$_Tree@V?$_Tmap_traits@V?$basic_string@DU?$char_traits@D@std@@V?$allocator@D@2@@std@@V?$shared_ptr@VRawImageData@@@2@U?$less@V?$basic_string@DU?$char_traits@D@std@@V?$allocator@D@2@@std@@@2@V?$allocator@U?$pair@$$CBV?$basic_string@DU?$char_traits@D@std@@V?$allocator@D@2@@std@@V?$shared_ptr@VRawImageData@@@2@@std@@@2@$0A@@std@@@std@@IAEAAV?$allocator@U?$_Tree_node@U?$pair@$$CBV?$basic_string@DU?$char_traits@D@std@@V?$allocator@D@2@@std@@V?$shared_ptr@VRawImageData@@@2@@std@@PAX@std@@@2@XZ 0040e940 f i Rock.obj
 0001:0000d960       ?_Getal@?$_Tree@V?$_Tmap_traits@V?$basic_string@DU?$char_traits@D@std@@V?$allocator@D@2@@std@@V?$shared_ptr@VRawImageData@@@2@U?$less@V?$basic_string@DU?$char_traits@D@std@@V?$allocator@D@2@@std@@@2@V?$allocator@U?$pair@$$CBV?$basic_string@DU?$char_traits@D@std@@V?$allocator@D@2@@std@@V?$shared_ptr@VRawImageData@@@2@@std@@@2@$0A@@std@@@std@@IBEABV?$allocator@U?$_Tree_node@U?$pair@$$CBV?$basic_string@DU?$char_traits@D@std@@V?$allocator@D@2@@std@@V?$shared_ptr@VRawImageData@@@2@@std@@PAX@std@@@2@XZ 0040e960 f i Rock.obj
 0001:0000d980       ?_Getal@?$_Tree@V?$_Tmap_traits@V?$basic_string@DU?$char_traits@D@std@@V?$allocator@D@2@@std@@V?$weak_ptr@VRawImageData@@@2@U?$less@V?$basic_string@DU?$char_traits@D@std@@V?$allocator@D@2@@std@@@2@V?$allocator@U?$pair@$$CBV?$basic_string@DU?$char_traits@D@std@@V?$allocator@D@2@@std@@V?$weak_ptr@VRawImageData@@@2@@std@@@2@$0A@@std@@@std@@IAEAAV?$allocator@U?$_Tree_node@U?$pair@$$CBV?$basic_string@DU?$char_traits@D@std@@V?$allocator@D@2@@std@@V?$weak_ptr@VRawImageData@@@2@@std@@PAX@std@@@2@XZ 0040e980 f i Rock.obj
 0001:0000d9a0       ?_Getal@?$_Tree@V?$_Tmap_traits@V?$basic_string@DU?$char_traits@D@std@@V?$allocator@D@2@@std@@V?$weak_ptr@VRawImageData@@@2@U?$less@V?$basic_string@DU?$char_traits@D@std@@V?$allocator@D@2@@std@@@2@V?$allocator@U?$pair@$$CBV?$basic_string@DU?$char_traits@D@std@@V?$allocator@D@2@@std@@V?$weak_ptr@VRawImageData@@@2@@std@@@2@$0A@@std@@@std@@IBEABV?$allocator@U?$_Tree_node@U?$pair@$$CBV?$basic_string@DU?$char_traits@D@std@@V?$allocator@D@2@@std@@V?$weak_ptr@VRawImageData@@@2@@std@@PAX@std@@@2@XZ 0040e9a0 f i Rock.obj
 0001:0000d9c0       ?_Getal@?$basic_string@DU?$char_traits@D@std@@V?$allocator@D@2@@std@@AAEAAV?$allocator@D@2@XZ 0040e9c0 f i Rock.obj
 0001:0000d9e0       ?_Getal@?$basic_string@DU?$char_traits@D@std@@V?$allocator@D@2@@std@@ABEABV?$allocator@D@2@XZ 0040e9e0 f i Rock.obj
 0001:0000da00       ?_Getal@?$vector@PAVDisplayableObject@@V?$allocator@PAVDisplayableObject@@@std@@@std@@AAEAAV?$allocator@PAVDisplayableObject@@@2@XZ 0040ea00 f i Rock.obj
 0001:0000da20       ?_Getcomp@?$_Tree@V?$_Tmap_traits@V?$basic_string@DU?$char_traits@D@std@@V?$allocator@D@2@@std@@V?$shared_ptr@VRawImageData@@@2@U?$less@V?$basic_string@DU?$char_traits@D@std@@V?$allocator@D@2@@std@@@2@V?$allocator@U?$pair@$$CBV?$basic_string@DU?$char_traits@D@std@@V?$allocator@D@2@@std@@V?$shared_ptr@VRawImageData@@@2@@std@@@2@$0A@@std@@@std@@IBEABU?$less@V?$basic_string@DU?$char_traits@D@std@@V?$allocator@D@2@@std@@@2@XZ 0040ea20 f i Rock.obj
 0001:0000da40       ?_Getcomp@?$_Tree@V?$_Tmap_traits@V?$basic_string@DU?$char_traits@D@std@@V?$allocator@D@2@@std@@V?$weak_ptr@VRawImageData@@@2@U?$less@V?$basic_string@DU?$char_traits@D@std@@V?$allocator@D@2@@std@@@2@V?$allocator@U?$pair@$$CBV?$basic_string@DU?$char_traits@D@std@@V?$allocator@D@2@@std@@V?$weak_ptr@VRawImageData@@@2@@std@@@2@$0A@@std@@@std@@IBEABU?$less@V?$basic_string@DU?$char_traits@D@std@@V?$allocator@D@2@@std@@@2@XZ 0040ea40 f i Rock.obj
 0001:0000da60       ?_Getcont@_Iterator_base12@std@@QBEPBU_Container_base12@2@XZ 0040ea60 f i Rock.obj
 0001:0000daa0       ?_Incref_nz@_Ref_count_base@std@@QAE_NXZ 0040eaa0 f i Rock.obj
 0001:0000db10       ?_Incwref@_Ref_count_base@std@@QAEXXZ 0040eb10 f i Rock.obj
 0001:0000db30       ?_Insert_node@?$_Tree_val@U?$_Tree_simple_types@U?$pair@$$CBV?$basic_string@DU?$char_traits@D@std@@V?$allocator@D@2@@std@@V?$shared_ptr@VRawImageData@@@2@@std@@@std@@@std@@QAEPAU?$_Tree_node@U?$pair@$$CBV?$basic_string@DU?$char_traits@D@std@@V?$allocator@D@2@@std@@V?$shared_ptr@VRawImageData@@@2@@std@@PAX@2@U?$_Tree_id@PAU?$_Tree_node@U?$pair@$$CBV?$basic_string@DU?$char_traits@D@std@@V?$allocator@D@2@@std@@V?$shared_ptr@VRawImageData@@@2@@std@@PAX@std@@@2@QAU32@@Z 0040eb30 f i Rock.obj
 0001:0000ddc0       ?_Insert_node@?$_Tree_val@U?$_Tree_simple_types@U?$pair@$$CBV?$basic_string@DU?$char_traits@D@std@@V?$allocator@D@2@@std@@V?$weak_ptr@VRawImageData@@@2@@std@@@std@@@std@@QAEPAU?$_Tree_node@U?$pair@$$CBV?$basic_string@DU?$char_traits@D@std@@V?$allocator@D@2@@std@@V?$weak_ptr@VRawImageData@@@2@@std@@PAX@2@U?$_Tree_id@PAU?$_Tree_node@U?$pair@$$CBV?$basic_string@DU?$char_traits@D@std@@V?$allocator@D@2@@std@@V?$weak_ptr@VRawImageData@@@2@@std@@PAX@std@@@2@QAU32@@Z 0040edc0 f i Rock.obj
 0001:0000e050       ?_Large_string_engaged@?$_String_val@U?$_Simple_types@D@std@@@std@@QBE_NXZ 0040f050 f i Rock.obj
 0001:0000e090       ?_Lrotate@?$_Tree_val@U?$_Tree_simple_types@U?$pair@$$CBV?$basic_string@DU?$char_traits@D@std@@V?$allocator@D@2@@std@@V?$shared_ptr@VRawImageData@@@2@@std@@@std@@@std@@QAEXPAU?$_Tree_node@U?$pair@$$CBV?$basic_string@DU?$char_traits@D@std@@V?$allocator@D@2@@std@@V?$shared_ptr@VRawImageData@@@2@@std@@PAX@2@@Z 0040f090 f i Rock.obj
 0001:0000e150       ?_Lrotate@?$_Tree_val@U?$_Tree_simple_types@U?$pair@$$CBV?$basic_string@DU?$char_traits@D@std@@V?$allocator@D@2@@std@@V?$weak_ptr@VRawImageData@@@2@@std@@@std@@@std@@QAEXPAU?$_Tree_node@U?$pair@$$CBV?$basic_string@DU?$char_traits@D@std@@V?$allocator@D@2@@std@@V?$weak_ptr@VRawImageData@@@2@@std@@PAX@2@@Z 0040f150 f i Rock.obj
 0001:0000e210       ?_Max@?$_Tree_val@U?$_Tree_simple_types@U?$pair@$$CBV?$basic_string@DU?$char_traits@D@std@@V?$allocator@D@2@@std@@V?$weak_ptr@VRawImageData@@@2@@std@@@std@@@std@@SAPAU?$_Tree_node@U?$pair@$$CBV?$basic_string@DU?$char_traits@D@std@@V?$allocator@D@2@@std@@V?$weak_ptr@VRawImageData@@@2@@std@@PAX@2@PAU32@@Z 0040f210 f i Rock.obj
 0001:0000e240       ?_Memcpy_val_from@?$basic_string@DU?$char_traits@D@std@@V?$allocator@D@2@@std@@AAEXABV12@@Z 0040f240 f i Rock.obj
 0001:0000e2a0       ?_Min@?$_Tree_val@U?$_Tree_simple_types@U?$pair@$$CBV?$basic_string@DU?$char_traits@D@std@@V?$allocator@D@2@@std@@V?$weak_ptr@VRawImageData@@@2@@std@@@std@@@std@@SAPAU?$_Tree_node@U?$pair@$$CBV?$basic_string@DU?$char_traits@D@std@@V?$allocator@D@2@@std@@V?$weak_ptr@VRawImageData@@@2@@std@@PAX@2@PAU32@@Z 0040f2a0 f i Rock.obj
 0001:0000e2d0       ?_Myptr@?$_String_val@U?$_Simple_types@D@std@@@std@@QBEPBDXZ 0040f2d0 f i Rock.obj
 0001:0000e320       ?_Orphan_all@_Container_base12@std@@QAEXXZ 0040f320 f i Rock.obj
 0001:0000e340       ?_Orphan_all_locked_v3@_Container_base12@std@@AAEXXZ 0040f340 f i Rock.obj
 0001:0000e380       ?_Orphan_all_unlocked_v3@_Container_base12@std@@AAEXXZ 0040f380 f i Rock.obj
 0001:0000e3f0       ?_Orphan_me_locked_v3@_Iterator_base12@std@@AAEXXZ 0040f3f0 f i Rock.obj
 0001:0000e430       ?_Orphan_me_unlocked_v3@_Iterator_base12@std@@AAEXXZ 0040f430 f i Rock.obj
 0001:0000e510       ?_Orphan_ptr@?$_Tree_val@U?$_Tree_simple_types@U?$pair@$$CBV?$basic_string@DU?$char_traits@D@std@@V?$allocator@D@2@@std@@V?$weak_ptr@VRawImageData@@@2@@std@@@std@@@std@@QAEXQAU?$_Tree_node@U?$pair@$$CBV?$basic_string@DU?$char_traits@D@std@@V?$allocator@D@2@@std@@V?$weak_ptr@VRawImageData@@@2@@std@@PAX@2@@Z 0040f510 f i Rock.obj
 0001:0000e5c0       ?_Orphan_range@?$vector@PAVDisplayableObject@@V?$allocator@PAVDisplayableObject@@@std@@@std@@ABEXPAPAVDisplayableObject@@0@Z 0040f5c0 f i Rock.obj
 0001:0000e5f0       ?_Orphan_range_locked@?$vector@PAVDisplayableObject@@V?$allocator@PAVDisplayableObject@@@std@@@std@@ABEXPAPAVDisplayableObject@@0@Z 0040f5f0 f i Rock.obj
 0001:0000e680       ?_Orphan_range_unlocked@?$vector@PAVDisplayableObject@@V?$allocator@PAVDisplayableObject@@@std@@@std@@ABEXPAPAVDisplayableObject@@0@Z 0040f680 f i Rock.obj
 0001:0000e700       ?_Release@?$_Alloc_construct_ptr@V?$allocator@U?$_Tree_node@U?$pair@$$CBV?$basic_string@DU?$char_traits@D@std@@V?$allocator@D@2@@std@@V?$shared_ptr@VRawImageData@@@2@@std@@PAX@std@@@std@@@std@@QAEPAU?$_Tree_node@U?$pair@$$CBV?$basic_string@DU?$char_traits@D@std@@V?$allocator@D@2@@std@@V?$shared_ptr@VRawImageData@@@2@@std@@PAX@2@XZ 0040f700 f i Rock.obj
 0001:0000e730       ?_Release@?$_Alloc_construct_ptr@V?$allocator@U?$_Tree_node@U?$pair@$$CBV?$basic_string@DU?$char_traits@D@std@@V?$allocator@D@2@@std@@V?$weak_ptr@VRawImageData@@@2@@std@@PAX@std@@@std@@@std@@QAEPAU?$_Tree_node@U?$pair@$$CBV?$basic_string@DU?$char_traits@D@std@@V?$allocator@D@2@@std@@V?$weak_ptr@VRawImageData@@@2@@std@@PAX@2@XZ 0040f730 f i Rock.obj
 0001:0000e760       ?_Release@_Basic_container_proxy_ptr12@std@@QAEXXZ 0040f760 f i Rock.obj
 0001:0000e780       ?_Rrotate@?$_Tree_val@U?$_Tree_simple_types@U?$pair@$$CBV?$basic_string@DU?$char_traits@D@std@@V?$allocator@D@2@@std@@V?$shared_ptr@VRawImageData@@@2@@std@@@std@@@std@@QAEXPAU?$_Tree_node@U?$pair@$$CBV?$basic_string@DU?$char_traits@D@std@@V?$allocator@D@2@@std@@V?$shared_ptr@VRawImageData@@@2@@std@@PAX@2@@Z 0040f780 f i Rock.obj
 0001:0000e850       ?_Rrotate@?$_Tree_val@U?$_Tree_simple_types@U?$pair@$$CBV?$basic_string@DU?$char_traits@D@std@@V?$allocator@D@2@@std@@V?$weak_ptr@VRawImageData@@@2@@std@@@std@@@std@@QAEXPAU?$_Tree_node@U?$pair@$$CBV?$basic_string@DU?$char_traits@D@std@@V?$allocator@D@2@@std@@V?$weak_ptr@VRawImageData@@@2@@std@@PAX@2@@Z 0040f850 f i Rock.obj
 0001:0000e920       ?_Seek_to@?$_Vector_const_iterator@V?$_Vector_val@U?$_Simple_types@PAVDisplayableObject@@@std@@@std@@@std@@QAEXPBQAVDisplayableObject@@@Z 0040f920 f i Rock.obj
 0001:0000e950       ?_Swap_proxy_and_iterators@?$basic_string@DU?$char_traits@D@std@@V?$allocator@D@2@@std@@AAEXAAV12@@Z 0040f950 f i Rock.obj
 0001:0000e970       ?_Swap_proxy_and_iterators@_Container_base12@std@@QAEXAAU12@@Z 0040f970 f i Rock.obj
 0001:0000e990       ?_Swap_proxy_and_iterators_locked@_Container_base12@std@@AAEXAAU12@@Z 0040f990 f i Rock.obj
 0001:0000e9d0       ?_Swap_proxy_and_iterators_unlocked@_Container_base12@std@@AAEXAAU12@@Z 0040f9d0 f i Rock.obj
 0001:0000ea30       ?_Take_contents@?$basic_string@DU?$char_traits@D@std@@V?$allocator@D@2@@std@@AAEXAAV12@@Z 0040fa30 f i Rock.obj
 0001:0000eb90       ?_Throw_bad_array_new_length@std@@YAXXZ 0040fb90 f i Rock.obj
 0001:0000ebc0       ?_Throw_tree_length_error@std@@YAXXZ 0040fbc0 f i Rock.obj
 0001:0000ebe0       ?_Tidy_deallocate@?$basic_string@DU?$char_traits@D@std@@V?$allocator@D@2@@std@@AAEXXZ 0040fbe0 f i Rock.obj
 0001:0000ecf0       ?_Tidy_init@?$basic_string@DU?$char_traits@D@std@@V?$allocator@D@2@@std@@AAEXXZ 0040fcf0 f i Rock.obj
 0001:0000ed60       ?_Unwrapped@?$_Tree_iterator@V?$_Tree_val@U?$_Tree_simple_types@U?$pair@$$CBV?$basic_string@DU?$char_traits@D@std@@V?$allocator@D@2@@std@@V?$weak_ptr@VRawImageData@@@2@@std@@@std@@@std@@@std@@QBE?AV?$_Tree_unchecked_iterator@V?$_Tree_val@U?$_Tree_simple_types@U?$pair@$$CBV?$basic_string@DU?$char_traits@D@std@@V?$allocator@D@2@@std@@V?$weak_ptr@VRawImageData@@@2@@std@@@std@@@std@@@2@XZ 0040fd60 f i Rock.obj
 0001:0000eda0       ?_Unwrapped@?$_Vector_iterator@V?$_Vector_val@U?$_Simple_types@PAVDisplayableObject@@@std@@@std@@@std@@QBEPAPAVDisplayableObject@@XZ 0040fda0 f i Rock.obj
 0001:0000edc0       ?_Use_count@_Ref_count_base@std@@QBEJXZ 0040fdc0 f i Rock.obj
 0001:0000ede0       ?_Verify_range@std@@YAXABV?$_Vector_const_iterator@V?$_Vector_val@U?$_Simple_types@PAVDisplayableObject@@@std@@@std@@@1@0@Z 0040fde0 f i Rock.obj
 0001:0000eee0       ?_Xlen_string@std@@YAXXZ   0040fee0 f i Rock.obj
 0001:0000ef00       ?allocate@?$allocator@D@std@@QAEPADI@Z 0040ff00 f i Rock.obj
 0001:0000ef30       ?allocate@?$allocator@U?$_Tree_node@U?$pair@$$CBV?$basic_string@DU?$char_traits@D@std@@V?$allocator@D@2@@std@@V?$shared_ptr@VRawImageData@@@2@@std@@PAX@std@@@std@@QAEPAU?$_Tree_node@U?$pair@$$CBV?$basic_string@DU?$char_traits@D@std@@V?$allocator@D@2@@std@@V?$shared_ptr@VRawImageData@@@2@@std@@PAX@2@I@Z 0040ff30 f i Rock.obj
 0001:0000ef60       ?allocate@?$allocator@U?$_Tree_node@U?$pair@$$CBV?$basic_string@DU?$char_traits@D@std@@V?$allocator@D@2@@std@@V?$weak_ptr@VRawImageData@@@2@@std@@PAX@std@@@std@@QAEPAU?$_Tree_node@U?$pair@$$CBV?$basic_string@DU?$char_traits@D@std@@V?$allocator@D@2@@std@@V?$weak_ptr@VRawImageData@@@2@@std@@PAX@2@I@Z 0040ff60 f i Rock.obj
 0001:0000ef90       ?allocate@?$allocator@U_Container_proxy@std@@@std@@QAEPAU_Container_proxy@2@I@Z 0040ff90 f i Rock.obj
 0001:0000efc0       ?assign@?$_Narrow_char_traits@DH@std@@SAXAADABD@Z 0040ffc0 f i Rock.obj
 0001:0000efe0       ?begin@?$vector@PAVDisplayableObject@@V?$allocator@PAVDisplayableObject@@@std@@@std@@QAE?AV?$_Vector_iterator@V?$_Vector_val@U?$_Simple_types@PAVDisplayableObject@@@std@@@std@@@2@XZ 0040ffe0 f i Rock.obj
 0001:0000f030       ?c_str@?$basic_string@DU?$char_traits@D@std@@V?$allocator@D@2@@std@@QBEPBDXZ 00410030 f i Rock.obj
 0001:0000f050       ?compare@?$_Narrow_char_traits@DH@std@@SAHQBD0I@Z 00410050 f i Rock.obj
 0001:0000f070       ?compare@?$basic_string@DU?$char_traits@D@std@@V?$allocator@D@2@@std@@QBEHABV12@@Z 00410070 f i Rock.obj
 0001:0000f0c0       ?copy@?$_Char_traits@DH@std@@SAPADQADQBDI@Z 004100c0 f i Rock.obj
 0001:0000f0f0       ?data@?$basic_string@DU?$char_traits@D@std@@V?$allocator@D@2@@std@@QBEPBDXZ 004100f0 f i Rock.obj
 0001:0000f110       ?deallocate@?$_Default_allocator_traits@V?$allocator@U?$_Tree_node@U?$pair@$$CBV?$basic_string@DU?$char_traits@D@std@@V?$allocator@D@2@@std@@V?$weak_ptr@VRawImageData@@@2@@std@@PAX@std@@@std@@@std@@SAXAAV?$allocator@U?$_Tree_node@U?$pair@$$CBV?$basic_string@DU?$char_traits@D@std@@V?$allocator@D@2@@std@@V?$weak_ptr@VRawImageData@@@2@@std@@PAX@std@@@2@QAU?$_Tree_node@U?$pair@$$CBV?$basic_string@DU?$char_traits@D@std@@V?$allocator@D@2@@std@@V?$weak_ptr@VRawImageData@@@2@@std@@PAX@2@I@Z 00410110 f i Rock.obj
 0001:0000f130       ?deallocate@?$_Default_allocator_traits@V?$allocator@U_Container_proxy@std@@@std@@@std@@SAXAAV?$allocator@U_Container_proxy@std@@@2@QAU_Container_proxy@2@I@Z 00410130 f i Rock.obj
 0001:0000f150       ?deallocate@?$allocator@D@std@@QAEXQADI@Z 00410150 f i Rock.obj
 0001:0000f1f0       ?deallocate@?$allocator@U?$_Tree_node@U?$pair@$$CBV?$basic_string@DU?$char_traits@D@std@@V?$allocator@D@2@@std@@V?$shared_ptr@VRawImageData@@@2@@std@@PAX@std@@@std@@QAEXQAU?$_Tree_node@U?$pair@$$CBV?$basic_string@DU?$char_traits@D@std@@V?$allocator@D@2@@std@@V?$shared_ptr@VRawImageData@@@2@@std@@PAX@2@I@Z 004101f0 f i Rock.obj
 0001:0000f290       ?deallocate@?$allocator@U?$_Tree_node@U?$pair@$$CBV?$basic_string@DU?$char_traits@D@std@@V?$allocator@D@2@@std@@V?$weak_ptr@VRawImageData@@@2@@std@@PAX@std@@@std@@QAEXQAU?$_Tree_node@U?$pair@$$CBV?$basic_string@DU?$char_traits@D@std@@V?$allocator@D@2@@std@@V?$weak_ptr@VRawImageData@@@2@@std@@PAX@2@I@Z 00410290 f i Rock.obj
 0001:0000f330       ?drawableObjectsChanged@DisplayableObjectContainer@@QAEXXZ 00410330 f i Rock.obj
 0001:0000f350       ?end@?$_Tree@V?$_Tmap_traits@V?$basic_string@DU?$char_traits@D@std@@V?$allocator@D@2@@std@@V?$weak_ptr@VRawImageData@@@2@U?$less@V?$basic_string@DU?$char_traits@D@std@@V?$allocator@D@2@@std@@@2@V?$allocator@U?$pair@$$CBV?$basic_string@DU?$char_traits@D@std@@V?$allocator@D@2@@std@@V?$weak_ptr@VRawImageData@@@2@@std@@@2@$0A@@std@@@std@@QAE?AV?$_Tree_iterator@V?$_Tree_val@U?$_Tree_simple_types@U?$pair@$$CBV?$basic_string@DU?$char_traits@D@std@@V?$allocator@D@2@@std@@V?$weak_ptr@VRawImageData@@@2@@std@@@std@@@std@@@2@XZ 00410350 f i Rock.obj
 0001:0000f390       ?end@?$vector@PAVDisplayableObject@@V?$allocator@PAVDisplayableObject@@@std@@@std@@QAE?AV?$_Vector_iterator@V?$_Vector_val@U?$_Simple_types@PAVDisplayableObject@@@std@@@std@@@2@XZ 00410390 f i Rock.obj
 0001:0000f3e0       ?eof@?$_Narrow_char_traits@DH@std@@SAHXZ 004103e0 f i Rock.obj
 0001:0000f3f0       ?eq_int_type@?$_Narrow_char_traits@DH@std@@SA_NABH0@Z 004103f0 f i Rock.obj
 0001:0000f430       ?erase@?$vector@PAVDisplayableObject@@V?$allocator@PAVDisplayableObject@@@std@@@std@@QAE?AV?$_Vector_iterator@V?$_Vector_val@U?$_Simple_types@PAVDisplayableObject@@@std@@@std@@@2@V?$_Vector_const_iterator@V?$_Vector_val@U?$_Simple_types@PAVDisplayableObject@@@std@@@std@@@2@@Z 00410430 f i Rock.obj
 0001:0000f5e0       ?expired@?$weak_ptr@VRawImageData@@@std@@QBE_NXZ 004105e0 f i Rock.obj
 0001:0000f620       ?find@?$_Tree@V?$_Tmap_traits@V?$basic_string@DU?$char_traits@D@std@@V?$allocator@D@2@@std@@V?$weak_ptr@VRawImageData@@@2@U?$less@V?$basic_string@DU?$char_traits@D@std@@V?$allocator@D@2@@std@@@2@V?$allocator@U?$pair@$$CBV?$basic_string@DU?$char_traits@D@std@@V?$allocator@D@2@@std@@V?$weak_ptr@VRawImageData@@@2@@std@@@2@$0A@@std@@@std@@QAE?AV?$_Tree_iterator@V?$_Tree_val@U?$_Tree_simple_types@U?$pair@$$CBV?$basic_string@DU?$char_traits@D@std@@V?$allocator@D@2@@std@@V?$weak_ptr@VRawImageData@@@2@@std@@@std@@@std@@@2@ABV?$basic_string@DU?$char_traits@D@std@@V?$allocator@D@2@@2@@Z 00410620 f i Rock.obj
 0001:0000f670       ?freeSurface@RawImageData@@QAEXXZ 00410670 f i Rock.obj
 0001:0000f6f0       ?get@ImageManager@@SAPAV1@XZ 004106f0 f i Rock.obj
 0001:0000f7a0       ?getImagePtrbyURL@ImageManager@@QAE?AV?$shared_ptr@VRawImageData@@@std@@V?$basic_string@DU?$char_traits@D@std@@V?$allocator@D@2@@3@_N1@Z 004107a0 f i Rock.obj
 0001:0000fbe0       ?getImagebyURL@ImageManager@@QAE?AVSimpleImage@@V?$basic_string@DU?$char_traits@D@std@@V?$allocator@D@2@@std@@_N1@Z 00410be0 f i Rock.obj
 0001:0000fcb0       ?getXForRotationAndCrop@RawImageData@@SAHHHHHHH@Z 00410cb0 f i Rock.obj
 0001:0000fd20       ?getYForRotationAndCrop@RawImageData@@SAHHHHHHH@Z 00410d20 f i Rock.obj
 0001:0000fd90       ?length@?$_Narrow_char_traits@DH@std@@SAIQBD@Z 00410d90 f i Rock.obj
 0001:0000fdb0       ?loadAsNew@ImageManager@@QAE?AV?$shared_ptr@VRawImageData@@@std@@V?$basic_string@DU?$char_traits@D@std@@V?$allocator@D@2@@3@@Z 00410db0 f i Rock.obj
 0001:0000ff80       ?loadImage@RawImageData@@QAE_NV?$basic_string@DU?$char_traits@D@std@@V?$allocator@D@2@@std@@HHHHH_N@Z 00410f80 f i Rock.obj
 0001:00010290       ?lock@?$weak_ptr@VRawImageData@@@std@@QBE?AV?$shared_ptr@VRawImageData@@@2@XZ 00411290 f i Rock.obj
 0001:000102e0       ?max@?$numeric_limits@H@std@@SAHXZ 004112e0 f i Rock.obj
 0001:000102f0       ?max_size@?$_Default_allocator_traits@V?$allocator@D@std@@@std@@SAIABV?$allocator@D@2@@Z 004112f0 f i Rock.obj
 0001:00010300       ?max_size@?$_Default_allocator_traits@V?$allocator@U?$_Tree_node@U?$pair@$$CBV?$basic_string@DU?$char_traits@D@std@@V?$allocator@D@2@@std@@V?$shared_ptr@VRawImageData@@@2@@std@@PAX@std@@@std@@@std@@SAIABV?$allocator@U?$_Tree_node@U?$pair@$$CBV?$basic_string@DU?$char_traits@D@std@@V?$allocator@D@2@@std@@V?$shared_ptr@VRawImageData@@@2@@std@@PAX@std@@@2@@Z 00411300 f i Rock.obj
 0001:00010310       ?max_size@?$_Default_allocator_traits@V?$allocator@U?$_Tree_node@U?$pair@$$CBV?$basic_string@DU?$char_traits@D@std@@V?$allocator@D@2@@std@@V?$weak_ptr@VRawImageData@@@2@@std@@PAX@std@@@std@@@std@@SAIABV?$allocator@U?$_Tree_node@U?$pair@$$CBV?$basic_string@DU?$char_traits@D@std@@V?$allocator@D@2@@std@@V?$weak_ptr@VRawImageData@@@2@@std@@PAX@std@@@2@@Z 00411310 f i Rock.obj
 0001:00010320       ?max_size@?$_Tree@V?$_Tmap_traits@V?$basic_string@DU?$char_traits@D@std@@V?$allocator@D@2@@std@@V?$shared_ptr@VRawImageData@@@2@U?$less@V?$basic_string@DU?$char_traits@D@std@@V?$allocator@D@2@@std@@@2@V?$allocator@U?$pair@$$CBV?$basic_string@DU?$char_traits@D@std@@V?$allocator@D@2@@std@@V?$shared_ptr@VRawImageData@@@2@@std@@@2@$0A@@std@@@std@@QBEIXZ 00411320 f i Rock.obj
 0001:00010370       ?max_size@?$_Tree@V?$_Tmap_traits@V?$basic_string@DU?$char_traits@D@std@@V?$allocator@D@2@@std@@V?$weak_ptr@VRawImageData@@@2@U?$less@V?$basic_string@DU?$char_traits@D@std@@V?$allocator@D@2@@std@@@2@V?$allocator@U?$pair@$$CBV?$basic_string@DU?$char_traits@D@std@@V?$allocator@D@2@@std@@V?$weak_ptr@VRawImageData@@@2@@std@@@2@$0A@@std@@@std@@QBEIXZ 00411370 f i Rock.obj
 0001:000103c0       ?max_size@?$basic_string@DU?$char_traits@D@std@@V?$allocator@D@2@@std@@QBEIXZ 004113c0 f i Rock.obj
 0001:00010440       ?move@?$_Char_traits@DH@std@@SAPADQADQBDI@Z 00411440 f i Rock.obj
 0001:00010470       ?pointer_to@?$pointer_traits@PAU?$pair@$$CBV?$basic_string@DU?$char_traits@D@std@@V?$allocator@D@2@@std@@V?$weak_ptr@VRawImageData@@@2@@std@@@std@@SAPAU?$pair@$$CBV?$basic_string@DU?$char_traits@D@std@@V?$allocator@D@2@@std@@V?$weak_ptr@VRawImageData@@@2@@2@AAU32@@Z 00411470 f i Rock.obj
 0001:00010490       ?removeDisplayableObject@DisplayableObjectContainer@@QAE_NPAVDisplayableObject@@@Z 00411490 f i Rock.obj
 0001:000105a0       ?select_on_container_copy_construction@?$_Default_allocator_traits@V?$allocator@D@std@@@std@@SA?AV?$allocator@D@2@ABV32@@Z 004115a0 f i Rock.obj
 0001:000105b0       ?size@?$basic_string@DU?$char_traits@D@std@@V?$allocator@D@2@@std@@QBEIXZ 004115b0 f i Rock.obj
 0001:000105d0       ?use_count@?$_Ptr_base@VRawImageData@@@std@@QBEJXZ 004115d0 f i Rock.obj
 0001:00010610       ?what@exception@std@@UBEPBDXZ 00411610 f i Rock.obj
 0001:00010650       ___local_stdio_printf_options 00411650 f i Rock.obj
 0001:00010660       __vfprintf_l               00411660 f i Rock.obj
 0001:000106a0       _printf                    004116a0 f i Rock.obj
 0001:000106f0       ?virtSetupBackgroundBuffer@DraggingDemo@@UAEXXZ 004116f0 f   DraggingDemo.obj
 0001:00010830       ?virtInitialiseObjects@DraggingDemo@@UAEHXZ 00411830 f   DraggingDemo.obj
 0001:00010a80       ?virtKeyDown@DraggingDemo@@UAEXH@Z 00411a80 f   DraggingDemo.obj
 0001:00010ba0       ??$_Destroy_range@V?$allocator@PAVDisplayableObject@@@std@@@std@@YAXPAPAVDisplayableObject@@QAPAV1@AAV?$allocator@PAVDisplayableObject@@@0@@Z 00411ba0 f i DraggingDemo.obj
 0001:00010bb0       ??$_Emplace_back@$$V@?$_Uninitialized_backout_al@V?$allocator@PAVDisplayableObject@@@std@@@std@@QAEXXZ 00411bb0 f i DraggingDemo.obj
 0001:00010c00       ??$_Emplace_back@PAVDisplayableObject@@@?$_Uninitialized_backout_al@V?$allocator@PAVDisplayableObject@@@std@@@std@@QAEX$$QAPAVDisplayableObject@@@Z 00411c00 f i DraggingDemo.obj
 0001:00010c60       ??$_Get_size_of_n@$03@std@@YAII@Z 00411c60 f i DraggingDemo.obj
 0001:00010ca0       ??$_Get_unwrapped@ABQAPAVDisplayableObject@@@std@@YA?A_TABQAPAVDisplayableObject@@@Z 00411ca0 f i DraggingDemo.obj
 0001:00010cb0       ??$_Resize@U_Value_init_tag@std@@@?$vector@PAVDisplayableObject@@V?$allocator@PAVDisplayableObject@@@std@@@std@@AAEXIABU_Value_init_tag@1@@Z 00411cb0 f i DraggingDemo.obj
 0001:00010de0       ??$_Resize_reallocate@U_Value_init_tag@std@@@?$vector@PAVDisplayableObject@@V?$allocator@PAVDisplayableObject@@@std@@@std@@AAEXIABU_Value_init_tag@1@@Z 00411de0 f i DraggingDemo.obj
 0001:00010f90       ??$_Uninitialized_move@PAPAVDisplayableObject@@V?$allocator@PAVDisplayableObject@@@std@@@std@@YAPAPAVDisplayableObject@@QAPAV1@0PAPAV1@AAV?$allocator@PAVDisplayableObject@@@0@@Z 00411f90 f i DraggingDemo.obj
 0001:000110b0       ??$_Uninitialized_value_construct_n@V?$allocator@PAVDisplayableObject@@@std@@@std@@YAPAPAVDisplayableObject@@PAPAV1@IAAV?$allocator@PAVDisplayableObject@@@0@@Z 004120b0 f i DraggingDemo.obj
 0001:00011190       ??$_Voidify_iter@PAPAVDisplayableObject@@@std@@YAPAXPAPAVDisplayableObject@@@Z 00412190 f i DraggingDemo.obj
 0001:000111a0       ??$_Zero_range@PAPAVDisplayableObject@@@std@@YAPAPAVDisplayableObject@@QAPAV1@0@Z 004121a0 f i DraggingDemo.obj
 0001:000111f0       ??$construct@PAVDisplayableObject@@$$V@?$_Default_allocator_traits@V?$allocator@PAVDisplayableObject@@@std@@@std@@SAXAAV?$allocator@PAVDisplayableObject@@@1@QAPAVDisplayableObject@@@Z 004121f0 f i DraggingDemo.obj
 0001:00011240       ??$construct@PAVDisplayableObject@@PAV1@@?$_Default_allocator_traits@V?$allocator@PAVDisplayableObject@@@std@@@std@@SAXAAV?$allocator@PAVDisplayableObject@@@1@QAPAVDisplayableObject@@$$QAPAV3@@Z 00412240 f i DraggingDemo.obj
 0001:00011290       ??$forward@PAVDisplayableObject@@@std@@YA$$QAPAVDisplayableObject@@AAPAV1@@Z 00412290 f i DraggingDemo.obj
 0001:000112a0       ??0?$_Uninitialized_backout_al@V?$allocator@PAVDisplayableObject@@@std@@@std@@QAE@PAPAVDisplayableObject@@AAV?$allocator@PAVDisplayableObject@@@1@@Z 004122a0 f i DraggingDemo.obj
 0001:000112e0       ??0DragableBaseClassObject@@QAE@HHPAVBaseEngine@@HH_N@Z 004122e0 f i DraggingDemo.obj
 0001:00011370       ??0DragableBaseClassObject@@QAE@PAVBaseEngine@@HH_N@Z 00412370 f i DraggingDemo.obj
 0001:000113f0       ??0DragableImageObject@@QAE@HHPAVBaseEngine@@V?$basic_string@DU?$char_traits@D@std@@V?$allocator@D@2@@std@@_N2@Z 004123f0 f i DraggingDemo.obj
 0001:00011590       ??0DragableObject@@QAE@HHPAVBaseEngine@@HH_N1@Z 00412590 f i DraggingDemo.obj
 0001:00011640       ??0DragableObject@@QAE@PAVBaseEngine@@HH_N1@Z 00412640 f i DraggingDemo.obj
 0001:000116f0       ??0ImageObject@@QAE@HHPAVBaseEngine@@V?$basic_string@DU?$char_traits@D@std@@V?$allocator@D@2@@std@@_N2@Z 004126f0 f i DraggingDemo.obj
 0001:00011880       ??1?$_Uninitialized_backout_al@V?$allocator@PAVDisplayableObject@@@std@@@std@@QAE@XZ 00412880 f i DraggingDemo.obj
 0001:000118b0       ??1DragableBaseClassObject@@UAE@XZ 004128b0 f i DraggingDemo.obj
 0001:000118d0       ??1DragableImageObject@@UAE@XZ 004128d0 f i DraggingDemo.obj
 0001:00011900       ??1DragableObject@@UAE@XZ  00412900 f i DraggingDemo.obj
 0001:00011920       ??1ImageObject@@UAE@XZ     00412920 f i DraggingDemo.obj
 0001:00011950       ??A?$vector@PAVDisplayableObject@@V?$allocator@PAVDisplayableObject@@@std@@@std@@QAEAAPAVDisplayableObject@@I@Z 00412950 f i DraggingDemo.obj
 0001:00011a00       ??_EDragableBaseClassObject@@UAEPAXI@Z 00412a00 f i DraggingDemo.obj
 0001:00011a00       ??_GDragableBaseClassObject@@UAEPAXI@Z 00412a00 f i DraggingDemo.obj
 0001:00011a40       ??_EDragableImageObject@@UAEPAXI@Z 00412a40 f i DraggingDemo.obj
 0001:00011a40       ??_GDragableImageObject@@UAEPAXI@Z 00412a40 f i DraggingDemo.obj
 0001:00011a80       ??_EDragableObject@@UAEPAXI@Z 00412a80 f i DraggingDemo.obj
 0001:00011a80       ??_GDragableObject@@UAEPAXI@Z 00412a80 f i DraggingDemo.obj
 0001:00011ac0       ??_EImageObject@@UAEPAXI@Z 00412ac0 f i DraggingDemo.obj
 0001:00011ac0       ??_GImageObject@@UAEPAXI@Z 00412ac0 f i DraggingDemo.obj
 0001:00011b00       ?_Calculate_growth@?$vector@PAVDisplayableObject@@V?$allocator@PAVDisplayableObject@@@std@@@std@@ABEII@Z 00412b00 f i DraggingDemo.obj
 0001:00011b70       ?_Change_array@?$vector@PAVDisplayableObject@@V?$allocator@PAVDisplayableObject@@@std@@@std@@AAEXQAPAVDisplayableObject@@II@Z 00412b70 f i DraggingDemo.obj
 0001:00011c40       ?_Get_first@?$_Compressed_pair@V?$allocator@PAVDisplayableObject@@@std@@V?$_Vector_val@U?$_Simple_types@PAVDisplayableObject@@@std@@@2@$00@std@@QBEABV?$allocator@PAVDisplayableObject@@@2@XZ 00412c40 f i DraggingDemo.obj
 0001:00011c60       ?_Getal@?$vector@PAVDisplayableObject@@V?$allocator@PAVDisplayableObject@@@std@@@std@@ABEABV?$allocator@PAVDisplayableObject@@@2@XZ 00412c60 f i DraggingDemo.obj
 0001:00011c80       ?_Release@?$_Uninitialized_backout_al@V?$allocator@PAVDisplayableObject@@@std@@@std@@QAEPAPAVDisplayableObject@@XZ 00412c80 f i DraggingDemo.obj
 0001:00011cb0       ?_Xlength@?$vector@PAVDisplayableObject@@V?$allocator@PAVDisplayableObject@@@std@@@std@@CAXXZ 00412cb0 f i DraggingDemo.obj
 0001:00011cd0       ?allocate@?$allocator@PAVDisplayableObject@@@std@@QAEPAPAVDisplayableObject@@I@Z 00412cd0 f i DraggingDemo.obj
 0001:00011d00       ?capacity@?$vector@PAVDisplayableObject@@V?$allocator@PAVDisplayableObject@@@std@@@std@@QBEIXZ 00412d00 f i DraggingDemo.obj
 0001:00011d30       ?checkDoDrag@DragableBaseClassObject@@UAEXHH@Z 00412d30 f i DraggingDemo.obj
 0001:00011db0       ?checkFinishDrag@DragableBaseClassObject@@UAEXHH@Z 00412db0 f i DraggingDemo.obj
 0001:00011df0       ?checkStartDrag@DragableBaseClassObject@@UAEXHH@Z 00412df0 f i DraggingDemo.obj
 0001:00011e70       ?checkWritable@DrawingSurface@@QAEXXZ 00412e70 f i DraggingDemo.obj
 0001:00011ec0       ?createObjectArray@DisplayableObjectContainer@@QAEXH@Z 00412ec0 f i DraggingDemo.obj
 0001:00011f10       ?deallocate@?$allocator@PAVDisplayableObject@@@std@@QAEXQAPAVDisplayableObject@@I@Z 00412f10 f i DraggingDemo.obj
 0001:00011fb0       ?doDragRedraw@DragableBaseClassObject@@UAEXXZ 00412fb0 f i DraggingDemo.obj
 0001:00011fd0       ?max_size@?$_Default_allocator_traits@V?$allocator@PAVDisplayableObject@@@std@@@std@@SAIABV?$allocator@PAVDisplayableObject@@@2@@Z 00412fd0 f i DraggingDemo.obj
 0001:00011fe0       ?max_size@?$vector@PAVDisplayableObject@@V?$allocator@PAVDisplayableObject@@@std@@@std@@QBEIXZ 00412fe0 f i DraggingDemo.obj
 0001:00012030       ?notifyObjectsAboutMouse@BaseEngine@@QAEX_N@Z 00413030 f i DraggingDemo.obj
 0001:00012050       ?rawSetPixel@DrawingSurface@@QAEXHHI@Z 00413050 f i DraggingDemo.obj
 0001:00012100       ?resize@?$vector@PAVDisplayableObject@@V?$allocator@PAVDisplayableObject@@@std@@@std@@QAEXI@Z 00413100 f i DraggingDemo.obj
 0001:00012130       ?setBackgroundPixel@BaseEngine@@QAEXHHI@Z 00413130 f i DraggingDemo.obj
 0001:00012160       ?setExitWithCode@BaseEngine@@QAEXH@Z 00413160 f i DraggingDemo.obj
 0001:00012180       ?setPixel@DrawingSurface@@QAEXHHI@Z 00413180 f i DraggingDemo.obj
 0001:000121f0       ?setVisible@DisplayableObject@@QAEX_N@Z 004131f0 f i DraggingDemo.obj
 0001:00012210       ?storeObjectInArray@DisplayableObjectContainer@@QAEXHPAVDisplayableObject@@@Z 00413210 f i DraggingDemo.obj
 0001:00012250       ?virtDraw@DragableImageObject@@UAEXXZ 00413250 f i DraggingDemo.obj
 0001:000122d0       ?virtDraw@ImageObject@@UAEXXZ 004132d0 f i DraggingDemo.obj
 0001:00012350       ?virtMouseDown@DragableImageObject@@UAEXHHH@Z 00413350 f i DraggingDemo.obj
 0001:00012380       ?virtMouseDown@DragableObject@@UAEXHHH@Z 00413380 f i DraggingDemo.obj
 0001:000123b0       ?virtMouseMoved@DragableImageObject@@UAEXHH@Z 004133b0 f i DraggingDemo.obj
 0001:000123e0       ?virtMouseMoved@DragableObject@@UAEXHH@Z 004133e0 f i DraggingDemo.obj
 0001:00012410       ?virtMouseUp@DragableImageObject@@UAEXHHH@Z 00413410 f i DraggingDemo.obj
 0001:00012440       ?virtMouseUp@DragableObject@@UAEXHHH@Z 00413440 f i DraggingDemo.obj
 0001:00012480       ??0DrawingSurface@@QAE@PAVBaseEngine@@@Z 00413480 f   DrawingSurface.obj
 0001:00012520       ?drawLine@DrawingSurface@@QAEXNNNNI@Z 00413520 f   DrawingSurface.obj
 0001:00012700       ?drawThickLine@DrawingSurface@@QAEXNNNNIH@Z 00413700 f   DrawingSurface.obj
 0001:00012ba0       ?drawVerticalSidedRegion@DrawingSurface@@QAEXNNNNNNI@Z 00413ba0 f   DrawingSurface.obj
 0001:00012f40       ?drawRectangle@DrawingSurface@@QAEXHHHHI@Z 00413f40 f   DrawingSurface.obj
 0001:00013050       ?drawOval@DrawingSurface@@QAEXHHHHI@Z 00414050 f   DrawingSurface.obj
 0001:00013220       ?rawDrawOval@DrawingSurface@@QAEXHHHHI@Z 00414220 f   DrawingSurface.obj
 0001:00013380       ?drawHollowOval@DrawingSurface@@QAEXHHHHHHHHI@Z 00414380 f   DrawingSurface.obj
 0001:000136a0       ?drawPolygon@DrawingSurface@@QAEXHPAN0I@Z 004146a0 f   DrawingSurface.obj
 0001:00013e20       ?drawFastString@DrawingSurface@@QAEXHHPBDIPAVFont@@@Z 00414e20 f   DrawingSurface.obj
 0001:00013f10       ?drawScalableString@DrawingSurface@@QAEXHHPBDIPAVFont@@@Z 00414f10 f   DrawingSurface.obj
 0001:000140e0       ?drawShortenedArrow@DrawingSurface@@QAEXHHHHHHIHH@Z 004150e0 f   DrawingSurface.obj
 0001:00014660       ?drawShortenedLine@DrawingSurface@@QAEXHHHHHHIH@Z 00415660 f   DrawingSurface.obj
 0001:00014a60       ?drawTriangle@DrawingSurface@@QAEXNNNNNNI@Z 00415a60 f   DrawingSurface.obj
 0001:00014db0       ?copyEntireSurface@DrawingSurface@@QAEXPAV1@@Z 00415db0 f   DrawingSurface.obj
 0001:00014e00       ?copyRectangleFrom@DrawingSurface@@QAEXPAV1@HHHHHH@Z 00415e00 f   DrawingSurface.obj
 0001:00015000       ?getAngle@DrawingSurface@@SANNNNN@Z 00416000 f   DrawingSurface.obj
 0001:000150a0       ?getVirtualRedrawMinX@DrawingSurface@@QAEHXZ 004160a0 f   DrawingSurface.obj
 0001:000150f0       ?getVirtualRedrawMinY@DrawingSurface@@QAEHXZ 004160f0 f   DrawingSurface.obj
 0001:00015140       ?getVirtualRedrawMaxX@DrawingSurface@@QAEHXZ 00416140 f   DrawingSurface.obj
 0001:000151a0       ?getVirtualRedrawMaxY@DrawingSurface@@QAEHXZ 004161a0 f   DrawingSurface.obj
 0001:00015200       ?getRealRedrawMinX@DrawingSurface@@QAEHXZ 00416200 f   DrawingSurface.obj
 0001:00015250       ?getRealRedrawMinY@DrawingSurface@@QAEHXZ 00416250 f   DrawingSurface.obj
 0001:000152a0       ?getRealRedrawMaxX@DrawingSurface@@QAEHXZ 004162a0 f   DrawingSurface.obj
 0001:000152f0       ?getRealRedrawMaxY@DrawingSurface@@QAEHXZ 004162f0 f   DrawingSurface.obj
 0001:00015ef0       ??$move@AAH@std@@YA$$QAHAAH@Z 00416ef0 f i DrawingSurface.obj
 0001:00015f00       ??$move@AAN@std@@YA$$QANAAN@Z 00416f00 f i DrawingSurface.obj
 0001:00015f10       ??$swap@H$0A@@std@@YAXAAH0@Z 00416f10 f i DrawingSurface.obj
 0001:00015f60       ??$swap@N$0A@@std@@YAXAAN0@Z 00416f60 f i DrawingSurface.obj
 0001:00015fc0       ?checkBlitable@DrawingSurface@@QAEXXZ 00416fc0 f i DrawingSurface.obj
 0001:00016010       ?convertRealToVirtualXPosition@DrawingSurface@@QAEHH@Z 00417010 f i DrawingSurface.obj
 0001:00016050       ?convertRealToVirtualYPosition@DrawingSurface@@QAEHH@Z 00417050 f i DrawingSurface.obj
 0001:00016090       ?getDefaultFont@BaseEngine@@QBEPAVFont@@XZ 00417090 f i DrawingSurface.obj
 0001:000160b0       ?getRedrawAllScreen@BaseEngine@@QAEHXZ 004170b0 f i DrawingSurface.obj
 0001:000160d0       ?getRedrawRectRealBottom@BaseEngine@@QAEHXZ 004170d0 f i DrawingSurface.obj
 0001:000160f0       ?getRedrawRectRealLeft@BaseEngine@@QAEHXZ 004170f0 f i DrawingSurface.obj
 0001:00016110       ?getRedrawRectRealRight@BaseEngine@@QAEHXZ 00417110 f i DrawingSurface.obj
 0001:00016130       ?getRedrawRectRealTop@BaseEngine@@QAEHXZ 00417130 f i DrawingSurface.obj
 0001:00016150       ?getRedrawRectVirtualBottom@BaseEngine@@QAEHXZ 00417150 f i DrawingSurface.obj
 0001:00016170       ?getRedrawRectVirtualLeft@BaseEngine@@QAEHXZ 00417170 f i DrawingSurface.obj
 0001:00016190       ?getRedrawRectVirtualRight@BaseEngine@@QAEHXZ 00417190 f i DrawingSurface.obj
 0001:000161b0       ?getRedrawRectVirtualTop@BaseEngine@@QAEHXZ 004171b0 f i DrawingSurface.obj
 0001:000161d0       ?getTTFFont@Font@@QAEPAU_TTF_Font@@XZ 004171d0 f i DrawingSurface.obj
 0001:000161f0       ?mySDLTempRelockSurface@DrawingSurface@@QAEXXZ 004171f0 f i DrawingSurface.obj
 0001:00016240       ?mySDLTempUnlockSurface@DrawingSurface@@QAEXXZ 00417240 f i DrawingSurface.obj
 0001:00016290       ?setDrawPointsFilter@DrawingSurface@@QAEXPAVFilterPoints@@@Z 00417290 f i DrawingSurface.obj
 0001:000162b0       ?initialiseState@End@@UAEXXZ 004172b0 f   End.obj
 0001:00016400       ?setScore@End@@QAEXH@Z     00417400 f   End.obj
 0001:00016420       ?scanInput@End@@QAEXH@Z    00417420 f   End.obj
 0001:00016480       ?printName@End@@QAEXXZ     00417480 f   End.obj
 0001:000165d0       ??$_Construct_in_place@DD@std@@YAXAAD$$QAD@Z 004175d0 f i End.obj
 0001:00016620       ??$_Copy_memmove@PADPAD@std@@YAPADPAD00@Z 00417620 f i End.obj
 0001:000166b0       ??$_Destroy_range@V?$allocator@D@std@@@std@@YAXPADQADAAV?$allocator@D@0@@Z 004176b0 f i End.obj
 0001:000166c0       ??$_Emplace_back@D@?$_Uninitialized_backout_al@V?$allocator@D@std@@@std@@QAEX$$QAD@Z 004176c0 f i End.obj
 0001:00016720       ??$_Emplace_back_with_unused_capacity@D@?$vector@DV?$allocator@D@std@@@std@@AAEAAD$$QAD@Z 00417720 f i End.obj
 0001:000167a0       ??$_Emplace_one_at_back@D@?$vector@DV?$allocator@D@std@@@std@@AAEAAD$$QAD@Z 004177a0 f i End.obj
 0001:00016820       ??$_Emplace_reallocate@D@?$vector@DV?$allocator@D@std@@@std@@AAEPADQAD$$QAD@Z 00417820 f i End.obj
 0001:00016a70       ??$_Get_unwrapped@ABQAD@std@@YA?A_TABQAD@Z 00417a70 f i End.obj
 0001:00016a80       ??$_To_address@PAD@std@@YA?A_PABQAD@Z 00417a80 f i End.obj
 0001:00016a90       ??$_Uninitialized_move@PADV?$allocator@D@std@@@std@@YAPADQAD0PADAAV?$allocator@D@0@@Z 00417a90 f i End.obj
 0001:00016ba0       ??$_Voidify_iter@PAD@std@@YAPAXPAD@Z 00417ba0 f i End.obj
 0001:00016bb0       ??$addressof@D@std@@YAPADAAD@Z 00417bb0 f i End.obj
 0001:00016bc0       ??$construct@DD@?$_Default_allocator_traits@V?$allocator@D@std@@@std@@SAXAAV?$allocator@D@1@QAD$$QAD@Z 00417bc0 f i End.obj
 0001:00016c10       ??$destroy@D@?$_Default_allocator_traits@V?$allocator@D@std@@@std@@SAXAAV?$allocator@D@1@QAD@Z 00417c10 f i End.obj
 0001:00016c20       ??$forward@D@std@@YA$$QADAAD@Z 00417c20 f i End.obj
 0001:00016c30       ??0?$_Uninitialized_backout_al@V?$allocator@D@std@@@std@@QAE@PADAAV?$allocator@D@1@@Z 00417c30 f i End.obj
 0001:00016c70       ??1?$_Uninitialized_backout_al@V?$allocator@D@std@@@std@@QAE@XZ 00417c70 f i End.obj
 0001:00016ca0       ?_Calculate_growth@?$vector@DV?$allocator@D@std@@@std@@ABEII@Z 00417ca0 f i End.obj
 0001:00016d10       ?_Change_array@?$vector@DV?$allocator@D@std@@@std@@AAEXQADII@Z 00417d10 f i End.obj
 0001:00016dd0       ?_Get_first@?$_Compressed_pair@V?$allocator@D@std@@V?$_Vector_val@U?$_Simple_types@D@std@@@2@$00@std@@QAEAAV?$allocator@D@2@XZ 00417dd0 f i End.obj
 0001:00016df0       ?_Get_first@?$_Compressed_pair@V?$allocator@D@std@@V?$_Vector_val@U?$_Simple_types@D@std@@@2@$00@std@@QBEABV?$allocator@D@2@XZ 00417df0 f i End.obj
 0001:00016e10       ?_Getal@?$vector@DV?$allocator@D@std@@@std@@AAEAAV?$allocator@D@2@XZ 00417e10 f i End.obj
 0001:00016e30       ?_Getal@?$vector@DV?$allocator@D@std@@@std@@ABEABV?$allocator@D@2@XZ 00417e30 f i End.obj
 0001:00016e50       ?_Orphan_range@?$vector@DV?$allocator@D@std@@@std@@ABEXPAD0@Z 00417e50 f i End.obj
 0001:00016e80       ?_Orphan_range_locked@?$vector@DV?$allocator@D@std@@@std@@ABEXPAD0@Z 00417e80 f i End.obj
 0001:00016f10       ?_Orphan_range_unlocked@?$vector@DV?$allocator@D@std@@@std@@ABEXPAD0@Z 00417f10 f i End.obj
 0001:00016f90       ?_Release@?$_Uninitialized_backout_al@V?$allocator@D@std@@@std@@QAEPADXZ 00417f90 f i End.obj
 0001:00016fc0       ?_Xlength@?$vector@DV?$allocator@D@std@@@std@@CAXXZ 00417fc0 f i End.obj
 0001:00016fe0       ?_Xrange@?$vector@DV?$allocator@D@std@@@std@@CAXXZ 00417fe0 f i End.obj
 0001:00017000       ?at@?$vector@DV?$allocator@D@std@@@std@@QAEAADI@Z 00418000 f i End.obj
 0001:00017050       ?capacity@?$vector@DV?$allocator@D@std@@@std@@QBEIXZ 00418050 f i End.obj
 0001:00017080       ?drawForegroundRectangle@BaseEngine@@QAEXHHHHI@Z 00418080 f i End.obj
 0001:000170c0       ?max_size@?$vector@DV?$allocator@D@std@@@std@@QBEIXZ 004180c0 f i End.obj
 0001:00017110       ?pop_back@?$vector@DV?$allocator@D@std@@@std@@QAEXXZ 00418110 f i End.obj
 0001:00017240       ?push_back@?$vector@DV?$allocator@D@std@@@std@@QAEX$$QAD@Z 00418240 f i End.obj
 0001:00017270       ?size@?$vector@DV?$allocator@D@std@@@std@@QBEIXZ 00418270 f i End.obj
 0001:000172a0       __vsnprintf_l              004182a0 f i End.obj
 0001:00017310       __vsprintf_l               00418310 f i End.obj
 0001:00017340       _sprintf                   00418340 f i End.obj
 0001:00017380       ??0FlashingDemo@@QAE@XZ    00418380 f   FlashingDemo.obj
 0001:00017440       ??1FlashingDemo@@UAE@XZ    00418440 f   FlashingDemo.obj
 0001:00017490       ?virtSetupBackgroundBuffer@FlashingDemo@@UAEXXZ 00418490 f   FlashingDemo.obj
 0001:00017910       ?virtMainLoopDoBeforeUpdate@FlashingDemo@@UAEXXZ 00418910 f   FlashingDemo.obj
 0001:000179d0       ?virtCreateSurfaces@FlashingDemo@@UAEXXZ 004189d0 f   FlashingDemo.obj
 0001:00017bf0       ??1DrawingSurface@@QAE@XZ  00418bf0 f i FlashingDemo.obj
 0001:00017c00       ??_EFlashingDemo@@UAEPAXI@Z 00418c00 f i FlashingDemo.obj
 0001:00017c00       ??_GFlashingDemo@@UAEPAXI@Z 00418c00 f i FlashingDemo.obj
 0001:00017c40       ?copyAllBackgroundBuffer@BaseEngine@@UAEXXZ 00418c40 f i FlashingDemo.obj
 0001:00017c70       ?copyBackgroundPixels@BaseEngine@@UAEXHHHH@Z 00418c70 f i FlashingDemo.obj
 0001:00017cc0       ?createSurface@DrawingSurface@@QAEXHH@Z 00418cc0 f i FlashingDemo.obj
 0001:00017d10       ?destroyOldObjects@DisplayableObjectContainer@@UAEX_N@Z 00418d10 f i FlashingDemo.obj
 0001:00017e00       ?fillBackground@BaseEngine@@UAEXI@Z 00418e00 f i FlashingDemo.obj
 0001:00017e30       ?fillSurface@DrawingSurface@@QAEXI@Z 00418e30 f i FlashingDemo.obj
 0001:00017ec0       ?filter@BaseEngine@@UAE_NPAVDrawingSurface@@AAH1AAI@Z 00418ec0 f i FlashingDemo.obj
 0001:00017f80       ?filterConvertRealToVirtualXPosition@FilterPoints@@UAEHH@Z 00418f80 f i FlashingDemo.obj
 0001:00017fa0       ?filterConvertRealToVirtualYPosition@FilterPoints@@UAEHH@Z 00418fa0 f i FlashingDemo.obj
 0001:00017fc0       ?filterConvertVirtualToRealXPosition@FilterPoints@@UAEHH@Z 00418fc0 f i FlashingDemo.obj
 0001:00017fe0       ?filterConvertVirtualToRealYPosition@FilterPoints@@UAEHH@Z 00418fe0 f i FlashingDemo.obj
 0001:00018000       ?getModifiedTime@BaseEngine@@UBEHXZ 00419000 f i FlashingDemo.obj
 0001:00018040       ?virtBackgroundMouseDown@BaseEngine@@UAEXHHHHH@Z 00419040 f i FlashingDemo.obj
 0001:00018050       ?virtMainLoopDoAfterUpdate@BaseEngine@@UAEXXZ 00419050 f i FlashingDemo.obj
 0001:00018060       ?virtMainLoopPostUpdate@BaseEngine@@UAEXXZ 00419060 f i FlashingDemo.obj
 0001:00018070       ?virtMainLoopPreUpdate@BaseEngine@@UAEXXZ 00419070 f i FlashingDemo.obj
 0001:00018080       ?virtMainLoopStartIteration@BaseEngine@@UAEXXZ 00419080 f i FlashingDemo.obj
 0001:00018090       ?virtMouseWheel@BaseEngine@@UAEXHHHH@Z 00419090 f i FlashingDemo.obj
 0001:000180a0       ?virtPostDraw@BaseEngine@@UAEXXZ 004190a0 f i FlashingDemo.obj
 0001:000180b0       ?virtPreDraw@BaseEngine@@UAEXXZ 004190b0 f i FlashingDemo.obj
 0001:000180c0       ?virtRealMouseDown@BaseEngine@@UAEXHHH@Z 004190c0 f i FlashingDemo.obj
 0001:000180d0       ?virtRealMouseUp@BaseEngine@@UAEXHHH@Z 004190d0 f i FlashingDemo.obj
 0001:000180e0       ?virtTouchEvent@BaseEngine@@UAEXHH_J0MMMMM@Z 004190e0 f i FlashingDemo.obj
 0001:000180f0       ?checkCollision@GameObject@@UAE_NV1@@Z 004190f0 f   GameObject.obj
 0001:000182f0       ?resetObject@GameObject@@UAEXXZ 004192f0 f   GameObject.obj
 0001:00018380       ?checkRectangles@CollisionDetection@@SA_NHHHHHHHH@Z 00419380 f i GameObject.obj
 0001:000183d0       ?max@@YAHHH@Z              004193d0 f i GameObject.obj
 0001:000183f0       ?min@@YAHHH@Z              004193f0 f i GameObject.obj
 0001:00018410       ?rawGetForegroundPixel@BaseEngine@@QBEIHH@Z 00419410 f i GameObject.obj
 0001:00018440       ?virtSetupBackgroundBuffer@ImageMappingDemo@@UAEXXZ 00419440 f   ImageMappingDemo.obj
 0001:00018540       ?virtInitialiseObjects@ImageMappingDemo@@UAEHXZ 00419540 f   ImageMappingDemo.obj
 0001:000188b0       ?virtKeyDown@ImageMappingDemo@@UAEXH@Z 004198b0 f   ImageMappingDemo.obj
 0001:000188e0       ?virtMainLoopDoBeforeUpdate@ImageMappingDemo@@UAEXXZ 004198e0 f   ImageMappingDemo.obj
 0001:00018970       ?mapCoordinates@ImageMappingDemo@@UAE_NAAN0ABVSimpleImage@@@Z 00419970 f   ImageMappingDemo.obj
 0001:00018de0       ??0MappableImageObject@@QAE@PAVImagePixelMapping@@HHPAVBaseEngine@@V?$basic_string@DU?$char_traits@D@std@@V?$allocator@D@2@@std@@_N3@Z 00419de0 f i ImageMappingDemo.obj
 0001:00018ea0       ??1MappableImageObject@@UAE@XZ 00419ea0 f i ImageMappingDemo.obj
 0001:00018ec0       ??_EMappableImageObject@@UAEPAXI@Z 00419ec0 f i ImageMappingDemo.obj
 0001:00018ec0       ??_GMappableImageObject@@UAEPAXI@Z 00419ec0 f i ImageMappingDemo.obj
 0001:00018f00       ?getPixelColour@MappableImageObject@@QAEHHH@Z 00419f00 f i ImageMappingDemo.obj
 0001:00018f30       ?getPixelColour@SimpleImage@@QBEHHH@Z 00419f30 f i ImageMappingDemo.obj
 0001:00018f60       ?getRawPixelColour@RawImageData@@QBEHHH@Z 00419f60 f i ImageMappingDemo.obj
 0001:00018fb0       ?getTheData@SimpleImage@@QBEABV?$shared_ptr@VRawImageData@@@std@@XZ 00419fb0 f i ImageMappingDemo.obj
 0001:00018fd0       ?setOpaque@RawImageData@@QAEXXZ 00419fd0 f i ImageMappingDemo.obj
 0001:00019040       ?setRotation@ImagePixelMappingRotate@@QAEXN@Z 0041a040 f i ImageMappingDemo.obj
 0001:00019060       ?setTransparencyColour@MappableImageObject@@QAEXH@Z 0041a060 f i ImageMappingDemo.obj
 0001:00019090       ?setTransparencyColour@SimpleImage@@QAEXH@Z 0041a090 f i ImageMappingDemo.obj
 0001:00019100       ?setTransparentColour@RawImageData@@QAEXI@Z 0041a100 f i ImageMappingDemo.obj
 0001:00019220       ?setXShift@ImagePixelMappingShiftXY@@QAEXN@Z 0041a220 f i ImageMappingDemo.obj
 0001:00019240       ?setYShift@ImagePixelMappingShiftXY@@QAEXN@Z 0041a240 f i ImageMappingDemo.obj
 0001:00019260       ?virtDraw@MappableImageObject@@UAEXXZ 0041a260 f i ImageMappingDemo.obj
 0001:000192f0       _SDL_main                  0041a2f0 f   mainfunction.obj
 0001:00019350       ?doProgram@@YAHHQAPAD@Z    0041a350 f   mainfunction.obj
 0001:00019490       ??$_Erase_head@V?$allocator@U?$_Tree_node@U?$pair@$$CBV?$basic_string@DU?$char_traits@D@std@@V?$allocator@D@2@@std@@V?$shared_ptr@VRawImageData@@@2@@std@@PAX@std@@@std@@@?$_Tree_val@U?$_Tree_simple_types@U?$pair@$$CBV?$basic_string@DU?$char_traits@D@std@@V?$allocator@D@2@@std@@V?$shared_ptr@VRawImageData@@@2@@std@@@std@@@std@@QAEXAAV?$allocator@U?$_Tree_node@U?$pair@$$CBV?$basic_string@DU?$char_traits@D@std@@V?$allocator@D@2@@std@@V?$shared_ptr@VRawImageData@@@2@@std@@PAX@std@@@1@@Z 0041a490 f i mainfunction.obj
 0001:000194e0       ??$_Erase_tree@V?$allocator@U?$_Tree_node@U?$pair@$$CBV?$basic_string@DU?$char_traits@D@std@@V?$allocator@D@2@@std@@V?$shared_ptr@VRawImageData@@@2@@std@@PAX@std@@@std@@@?$_Tree_val@U?$_Tree_simple_types@U?$pair@$$CBV?$basic_string@DU?$char_traits@D@std@@V?$allocator@D@2@@std@@V?$shared_ptr@VRawImageData@@@2@@std@@@std@@@std@@QAEXAAV?$allocator@U?$_Tree_node@U?$pair@$$CBV?$basic_string@DU?$char_traits@D@std@@V?$allocator@D@2@@std@@V?$shared_ptr@VRawImageData@@@2@@std@@PAX@std@@@1@PAU?$_Tree_node@U?$pair@$$CBV?$basic_string@DU?$char_traits@D@std@@V?$allocator@D@2@@std@@V?$shared_ptr@VRawImageData@@@2@@std@@PAX@1@@Z 0041a4e0 f i mainfunction.obj
 0001:00019540       ??$_Freenode0@V?$allocator@U?$_Tree_node@U?$pair@$$CBV?$basic_string@DU?$char_traits@D@std@@V?$allocator@D@2@@std@@V?$shared_ptr@VRawImageData@@@2@@std@@PAX@std@@@std@@@?$_Tree_node@U?$pair@$$CBV?$basic_string@DU?$char_traits@D@std@@V?$allocator@D@2@@std@@V?$shared_ptr@VRawImageData@@@2@@std@@PAX@std@@SAXAAV?$allocator@U?$_Tree_node@U?$pair@$$CBV?$basic_string@DU?$char_traits@D@std@@V?$allocator@D@2@@std@@V?$shared_ptr@VRawImageData@@@2@@std@@PAX@std@@@1@PAU01@@Z 0041a540 f i mainfunction.obj
 0001:000195d0       ??$_Freenode@V?$allocator@U?$_Tree_node@U?$pair@$$CBV?$basic_string@DU?$char_traits@D@std@@V?$allocator@D@2@@std@@V?$shared_ptr@VRawImageData@@@2@@std@@PAX@std@@@std@@@?$_Tree_node@U?$pair@$$CBV?$basic_string@DU?$char_traits@D@std@@V?$allocator@D@2@@std@@V?$shared_ptr@VRawImageData@@@2@@std@@PAX@std@@SAXAAV?$allocator@U?$_Tree_node@U?$pair@$$CBV?$basic_string@DU?$char_traits@D@std@@V?$allocator@D@2@@std@@V?$shared_ptr@VRawImageData@@@2@@std@@PAX@std@@@1@PAU01@@Z 0041a5d0 f i mainfunction.obj
 0001:00019650       ??$exchange@PAU?$_Tree_node@U?$pair@$$CBV?$basic_string@DU?$char_traits@D@std@@V?$allocator@D@2@@std@@V?$shared_ptr@VRawImageData@@@2@@std@@PAX@std@@AAPAU12@@std@@YAPAU?$_Tree_node@U?$pair@$$CBV?$basic_string@DU?$char_traits@D@std@@V?$allocator@D@2@@std@@V?$shared_ptr@VRawImageData@@@2@@std@@PAX@0@AAPAU10@0@Z 0041a650 f i mainfunction.obj
 0001:00019680       ??0FilterPoints@@QAE@XZ    0041a680 f i mainfunction.obj
 0001:000196a0       ??0FilterScaling@@QAE@HHPAVFilterPoints@@@Z 0041a6a0 f i mainfunction.obj
 0001:00019720       ??0FilterTranslation@@QAE@HHPAVFilterPoints@@@Z 0041a720 f i mainfunction.obj
 0001:00019770       ??0Psyew3Engine@@QAE@XZ    0041a770 f i mainfunction.obj
 0001:00019850       ??1?$_Tree@V?$_Tmap_traits@V?$basic_string@DU?$char_traits@D@std@@V?$allocator@D@2@@std@@V?$shared_ptr@VRawImageData@@@2@U?$less@V?$basic_string@DU?$char_traits@D@std@@V?$allocator@D@2@@std@@@2@V?$allocator@U?$pair@$$CBV?$basic_string@DU?$char_traits@D@std@@V?$allocator@D@2@@std@@V?$shared_ptr@VRawImageData@@@2@@std@@@2@$0A@@std@@@std@@QAE@XZ 0041a850 f i mainfunction.obj
 0001:000198c0       ??1?$map@V?$basic_string@DU?$char_traits@D@std@@V?$allocator@D@2@@std@@V?$shared_ptr@VRawImageData@@@2@U?$less@V?$basic_string@DU?$char_traits@D@std@@V?$allocator@D@2@@std@@@2@V?$allocator@U?$pair@$$CBV?$basic_string@DU?$char_traits@D@std@@V?$allocator@D@2@@std@@V?$shared_ptr@VRawImageData@@@2@@std@@@2@@std@@QAE@XZ 0041a8c0 f i mainfunction.obj
 0001:000198e0       ??1ImageManager@@QAE@XZ    0041a8e0 f i mainfunction.obj
 0001:00019910       ??1Psyew3Engine@@UAE@XZ    0041a910 f i mainfunction.obj
 0001:000199c0       ??_GImageManager@@QAEPAXI@Z 0041a9c0 f i mainfunction.obj
 0001:00019a00       ??_EPsyew3Engine@@UAEPAXI@Z 0041aa00 f i mainfunction.obj
 0001:00019a00       ??_GPsyew3Engine@@UAEPAXI@Z 0041aa00 f i mainfunction.obj
 0001:00019a40       ?deallocate@?$_Default_allocator_traits@V?$allocator@U?$_Tree_node@U?$pair@$$CBV?$basic_string@DU?$char_traits@D@std@@V?$allocator@D@2@@std@@V?$shared_ptr@VRawImageData@@@2@@std@@PAX@std@@@std@@@std@@SAXAAV?$allocator@U?$_Tree_node@U?$pair@$$CBV?$basic_string@DU?$char_traits@D@std@@V?$allocator@D@2@@std@@V?$shared_ptr@VRawImageData@@@2@@std@@PAX@std@@@2@QAU?$_Tree_node@U?$pair@$$CBV?$basic_string@DU?$char_traits@D@std@@V?$allocator@D@2@@std@@V?$shared_ptr@VRawImageData@@@2@@std@@PAX@2@I@Z 0041aa40 f i mainfunction.obj
 0001:00019a60       ?destroyImageManager@ImageManager@@SAXXZ 0041aa60 f i mainfunction.obj
 0001:00019ac0       ?filter@FilterScaling@@UAE_NPAVDrawingSurface@@AAH1AAI@Z 0041aac0 f i mainfunction.obj
 0001:00019b00       ?filter@FilterTranslation@@UAE_NPAVDrawingSurface@@AAH1AAI@Z 0041ab00 f i mainfunction.obj
 0001:00019ba0       ?filterConvertRealToVirtualXPosition@FilterScaling@@UAEHH@Z 0041aba0 f i mainfunction.obj
 0001:00019c10       ?filterConvertRealToVirtualYPosition@FilterScaling@@UAEHH@Z 0041ac10 f i mainfunction.obj
 0001:00019c80       ?filterConvertVirtualToRealXPosition@FilterScaling@@UAEHH@Z 0041ac80 f i mainfunction.obj
 0001:00019d30       ?filterConvertVirtualToRealYPosition@FilterScaling@@UAEHH@Z 0041ad30 f i mainfunction.obj
 0001:00019de0       ?handleXthenY@FilterScaling@@AAEXPAVDrawingSurface@@HHAAI@Z 0041ade0 f i mainfunction.obj
 0001:00019e90       ?handleY@FilterScaling@@AAEXPAVDrawingSurface@@HHAAI@Z 0041ae90 f i mainfunction.obj
 0001:00019fc0       ?setStretch@FilterScaling@@QAEXHH@Z 0041afc0 f i mainfunction.obj
 0001:0001a0b0       ??0BaseEngine@@QAE@XZ      0041b0b0 f   BaseEngine.obj
 0001:0001a2f0       ??1BaseEngine@@UAE@XZ      0041b2f0 f   BaseEngine.obj
 0001:0001a340       ?initialise@BaseEngine@@QAEHPBDHH0H@Z 0041b340 f   BaseEngine.obj
 0001:0001a470       ?deinitialise@BaseEngine@@QAEXXZ 0041b470 f   BaseEngine.obj
 0001:0001a4a0       ?mainLoop@BaseEngine@@QAEHXZ 0041b4a0 f   BaseEngine.obj
 0001:0001a5d0       ?handleEvent@BaseEngine@@QAE_NPATSDL_Event@@@Z 0041b5d0 f   BaseEngine.obj
 0001:0001ac10       ?isKeyPressed@BaseEngine@@QBE_NH@Z 0041bc10 f   BaseEngine.obj
 0001:0001ac40       ?virtKeyUp@BaseEngine@@UAEXH@Z 0041bc40 f   BaseEngine.obj
 0001:0001ac50       ?virtKeyDown@BaseEngine@@UAEXH@Z 0041bc50 f   BaseEngine.obj
 0001:0001ac60       ?virtMouseMoved@BaseEngine@@UAEXHH@Z 0041bc60 f   BaseEngine.obj
 0001:0001ac70       ?virtMouseDown@BaseEngine@@UAEXHHH@Z 0041bc70 f   BaseEngine.obj
 0001:0001ac80       ?virtMouseUp@BaseEngine@@UAEXHHH@Z 0041bc80 f   BaseEngine.obj
 0001:0001ac90       ?virtInitialise@BaseEngine@@UAEHXZ 0041bc90 f   BaseEngine.obj
 0001:0001ace0       ?virtCreateWindows@BaseEngine@@UAEXPBD@Z 0041bce0 f   BaseEngine.obj
 0001:0001ad70       ?virtCreateSurfaces@BaseEngine@@UAEXXZ 0041bd70 f   BaseEngine.obj
 0001:0001adc0       ?virtCleanUp@BaseEngine@@UAEXXZ 0041bdc0 f   BaseEngine.obj
 0001:0001add0       ?virtSetupBackgroundBuffer@BaseEngine@@UAEXXZ 0041bdd0 f   BaseEngine.obj
 0001:0001adf0       ?virtDrawStringsUnderneath@BaseEngine@@UAEXXZ 0041bdf0 f   BaseEngine.obj
 0001:0001ae00       ?virtDrawStringsOnTop@BaseEngine@@UAEXXZ 0041be00 f   BaseEngine.obj
 0001:0001ae10       ?virtCheckForUpdateTime@BaseEngine@@UAE_NXZ 0041be10 f   BaseEngine.obj
 0001:0001ae60       ?virtRenderScreen@BaseEngine@@UAEXXZ 0041be60 f   BaseEngine.obj
 0001:0001aff0       ?getColour@BaseEngine@@QBEIH@Z 0041bff0 f   BaseEngine.obj
 0001:0001b230       ?virtInitialiseObjects@BaseEngine@@UAEHXZ 0041c230 f   BaseEngine.obj
 0001:0001b260       ?drawAllObjects@BaseEngine@@UAEXXZ 0041c260 f   BaseEngine.obj
 0001:0001b420       ?updateAllObjects@BaseEngine@@UAEXH@Z 0041c420 f   BaseEngine.obj
 0001:0001b5e0       _mydebug                   0041c5e0 f   BaseEngine.obj
 0001:0001bda0       ??$?0ABV?$allocator@PAVDisplayableObject@@@std@@$$V@?$_Compressed_pair@V?$allocator@PAVDisplayableObject@@@std@@V?$_Vector_val@U?$_Simple_types@PAVDisplayableObject@@@std@@@2@$00@std@@QAE@U_One_then_variadic_args_t@1@ABV?$allocator@PAVDisplayableObject@@@1@@Z 0041cda0 f i BaseEngine.obj
 0001:0001bdd0       ??$?0PAVDisplayableObject@@@?$allocator@U_Container_proxy@std@@@std@@QAE@ABV?$allocator@PAVDisplayableObject@@@1@@Z 0041cdd0 f i BaseEngine.obj
 0001:0001bdf0       ??$_Construct_n@$$V@?$vector@PAVDisplayableObject@@V?$allocator@PAVDisplayableObject@@@std@@@std@@AAEXI@Z 0041cdf0 f i BaseEngine.obj
 0001:0001bf00       ??$exchange@PAU_Container_proxy@std@@$$T@std@@YAPAU_Container_proxy@0@AAPAU10@$$QA$$T@Z 0041cf00 f i BaseEngine.obj
 0001:0001c3b0       ??$forward@ABV?$allocator@PAVDisplayableObject@@@std@@@std@@YAABV?$allocator@PAVDisplayableObject@@@0@ABV10@@Z 0041d3b0 f i BaseEngine.obj
 0001:0001c3c0       ??0?$_Vector_iterator@V?$_Vector_val@U?$_Simple_types@PAVDisplayableObject@@@std@@@std@@@std@@QAE@ABV01@@Z 0041d3c0 f i BaseEngine.obj
 0001:0001c3f0       ??0?$_Vector_val@U?$_Simple_types@PAVDisplayableObject@@@std@@@std@@QAE@XZ 0041d3f0 f i BaseEngine.obj
 0001:0001c440       ??0?$allocator@PAVDisplayableObject@@@std@@QAE@XZ 0041d440 f i BaseEngine.obj
 0001:0001c460       ??0?$vector@PAVDisplayableObject@@V?$allocator@PAVDisplayableObject@@@std@@@std@@QAE@IABV?$allocator@PAVDisplayableObject@@@1@@Z 0041d460 f i BaseEngine.obj
 0001:0001c4a0       ??0DisplayableObjectContainer@@QAE@H@Z 0041d4a0 f i BaseEngine.obj
 0001:0001c500       ??1?$_Tidy_guard@V?$vector@PAVDisplayableObject@@V?$allocator@PAVDisplayableObject@@@std@@@std@@@std@@QAE@XZ 0041d500 f i BaseEngine.obj
 0001:0001c530       ??1?$vector@PAVDisplayableObject@@V?$allocator@PAVDisplayableObject@@@std@@@std@@QAE@XZ 0041d530 f i BaseEngine.obj
 0001:0001c5a0       ??1DisplayableObjectContainer@@UAE@XZ 0041d5a0 f i BaseEngine.obj
 0001:0001c610       ??D?$_Vector_const_iterator@V?$_Vector_val@U?$_Simple_types@PAVDisplayableObject@@@std@@@std@@@std@@QBEABQAVDisplayableObject@@XZ 0041d610 f i BaseEngine.obj
 0001:0001c720       ??D?$_Vector_iterator@V?$_Vector_val@U?$_Simple_types@PAVDisplayableObject@@@std@@@std@@@std@@QBEAAPAVDisplayableObject@@XZ 0041d720 f i BaseEngine.obj
 0001:0001c740       ??E?$_Vector_const_iterator@V?$_Vector_val@U?$_Simple_types@PAVDisplayableObject@@@std@@@std@@@std@@QAEAAV01@XZ 0041d740 f i BaseEngine.obj
 0001:0001c850       ??E?$_Vector_iterator@V?$_Vector_val@U?$_Simple_types@PAVDisplayableObject@@@std@@@std@@@std@@QAE?AV01@H@Z 0041d850 f i BaseEngine.obj
 0001:0001c8a0       ??_EBaseEngine@@UAEPAXI@Z  0041d8a0 f i BaseEngine.obj
 0001:0001c8a0       ??_GBaseEngine@@UAEPAXI@Z  0041d8a0 f i BaseEngine.obj
 0001:0001c8e0       ??_EDisplayableObjectContainer@@UAEPAXI@Z 0041d8e0 f i BaseEngine.obj
 0001:0001c8e0       ??_GDisplayableObjectContainer@@UAEPAXI@Z 0041d8e0 f i BaseEngine.obj
 0001:0001c920       ?_Buy_nonzero@?$vector@PAVDisplayableObject@@V?$allocator@PAVDisplayableObject@@@std@@@std@@AAEXI@Z 0041d920 f i BaseEngine.obj
 0001:0001c960       ?_Buy_raw@?$vector@PAVDisplayableObject@@V?$allocator@PAVDisplayableObject@@@std@@@std@@AAEXI@Z 0041d960 f i BaseEngine.obj
 0001:0001c9e0       ?_Tidy@?$vector@PAVDisplayableObject@@V?$allocator@PAVDisplayableObject@@@std@@@std@@AAEXXZ 0041d9e0 f i BaseEngine.obj
 0001:0001cae0       ?getHasActed@DisplayableObject@@QBE_NXZ 0041dae0 f i BaseEngine.obj
 0001:0001cb00       ?isTimeToAct@BaseEngine@@QBE_NXZ 0041db00 f i BaseEngine.obj
 0001:0001cb40       ?mySDLUpdateTexture@DrawingSurface@@QAEXPAUSDL_Texture@@@Z 0041db40 f i BaseEngine.obj
 0001:0001cb80       ?setHasActed@DisplayableObject@@QAEX_N@Z 0041db80 f i BaseEngine.obj
 0001:0001cba0       ?setTimeToAct@BaseEngine@@QAEXH@Z 0041dba0 f i BaseEngine.obj
 0001:0001cbd0       ?symbolToKeycode@BaseEngine@@SAHH@Z 0041dbd0 f i BaseEngine.obj
 0001:0001d0c0       ?virtMainLoopDoBeforeUpdate@BaseEngine@@UAEXXZ 0041e0c0 f i BaseEngine.obj
 0001:0001d0d0       _fprintf                   0041e0d0 f i BaseEngine.obj
 0001:0001d110       ??0DisplayableObject@@QAE@PAVBaseEngine@@HH_N@Z 0041e110 f   DisplayableObject.obj
 0001:0001d1d0       ??0DisplayableObject@@QAE@HHPAVBaseEngine@@HH_N@Z 0041e1d0 f   DisplayableObject.obj
 0001:0001d290       ??1DisplayableObject@@UAE@XZ 0041e290 f   DisplayableObject.obj
 0001:0001d2b0       ?virtDraw@DisplayableObject@@UAEXXZ 0041e2b0 f   DisplayableObject.obj
 0001:0001d350       ?virtDoUpdate@DisplayableObject@@UAEXH@Z 0041e350 f   DisplayableObject.obj
 0001:0001d360       ?redrawDisplay@DisplayableObject@@QAEXXZ 0041e360 f   DisplayableObject.obj
 0001:0001d380       ?redrawRectangle@DisplayableObject@@QAEXXZ 0041e380 f   DisplayableObject.obj
 0001:0001d3c0       ?virtIsObjectInRedrawArea@DisplayableObject@@QAE_NXZ 0041e3c0 f   DisplayableObject.obj
 0001:0001d460       ?fixPosition@DisplayableObject@@QAEXXZ 0041e460 f   DisplayableObject.obj
 0001:0001d630       ?convertVirtualPixelToClickedXPosition@BaseEngine@@QAEHH@Z 0041e630 f i DisplayableObject.obj
 0001:0001d660       ?convertVirtualPixelToClickedYPosition@BaseEngine@@QAEHH@Z 0041e660 f i DisplayableObject.obj
 0001:0001d690       ?convertVirtualToRealXPosition@DrawingSurface@@QAEHH@Z 0041e690 f i DisplayableObject.obj
 0001:0001d6d0       ?convertVirtualToRealYPosition@DrawingSurface@@QAEHH@Z 0041e6d0 f i DisplayableObject.obj
 0001:0001d710       ?redrawRectangle@BaseEngine@@QAEXHHHH@Z 0041e710 f i DisplayableObject.obj
 0001:0001d880       ?setForegroundPixel@BaseEngine@@QAEXHHI@Z 0041e880 f i DisplayableObject.obj
 0001:0001d8b0       ??0FontManager@@QAE@XZ     0041e8b0 f   FontManager.obj
 0001:0001d920       ??1FontManager@@QAE@XZ     0041e920 f   FontManager.obj
 0001:0001d990       ?getFont@FontManager@@QAEPAVFont@@PBDH@Z 0041e990 f   FontManager.obj
 0001:0001db30       ?loadFonts@FontManager@@QAEXXZ 0041eb30 f   FontManager.obj
 0001:0001dc60       ??$growArrayOfObjects@PAVFont@@@@YAPAPAVFont@@PAPAV0@AAHH@Z 0041ec60 f i FontManager.obj
 0001:0001dd20       ??0Font@@QAE@PBDH@Z        0041ed20 f i FontManager.obj
 0001:0001dda0       ??1Font@@QAE@XZ            0041eda0 f i FontManager.obj
 0001:0001de20       ??_GFont@@QAEPAXI@Z        0041ee20 f i FontManager.obj
 0001:0001de60       ?getName@Font@@QAEPBDXZ    0041ee60 f i FontManager.obj
 0001:0001de80       ?getSize@Font@@QAEHXZ      0041ee80 f i FontManager.obj
 0001:0001dea0       ?initialiseState@Menu@@UAEXXZ 0041eea0 f   Menu.obj
 0001:0001e0a0       ?getTileHeight@TileManager@@QBEHXZ 0041f0a0 f i Menu.obj
 0001:0001e0c0       ?getTileWidth@TileManager@@QBEHXZ 0041f0c0 f i Menu.obj
 0001:0001e0e0       ?setAndRedrawMapValueAt@TileManager@@QAEXHHHPAVBaseEngine@@PAVDrawingSurface@@@Z 0041f0e0 f i Menu.obj
 0001:0001e180       ?setMapValue@TileManager@@QAEHHHH@Z 0041f180 f i Menu.obj
 0001:0001e1c0       ?setTopLeftPositionOnScreen@TileManager@@QAEXHH@Z 0041f1c0 f i Menu.obj
 0001:0001e1f0       ?mapCoordinates@ObjectMapper@@UAE_NAAN0ABVSimpleImage@@@Z 0041f1f0 f   ObjectMapper.obj
 0001:0001e460       ?changePixelColour@ObjectMapper@@UAE_NHHAAHPAVDrawingSurface@@@Z 0041f460 f   ObjectMapper.obj
 0001:0001e480       ?getTransparencyColour@ObjectMapper@@QAEHXZ 0041f480 f   ObjectMapper.obj
 0001:0001e540       ?initialiseState@Pause@@UAEXXZ 0041f540 f   Pause.obj
 0001:0001e5a0       ?setupButtons@Pause@@QAEXXZ 0041f5a0 f   Pause.obj
 0001:0001e690       ?getBackgroundSurface@BaseEngine@@QAEPAVDrawingSurface@@XZ 0041f690 f i Pause.obj
 0001:0001e6b0       ?lockBackgroundForDrawing@BaseEngine@@QAEXXZ 0041f6b0 f i Pause.obj
 0001:0001e6d0       ?unlockBackgroundForDrawing@BaseEngine@@QAEXXZ 0041f6d0 f i Pause.obj
 0001:0001e6f0       ?initialiseState@Play@@UAEXXZ 0041f6f0 f   Play.obj
 0001:0001e760       ?updateState@Play@@UAEXH@Z 0041f760 f   Play.obj
 0001:0001e8b0       ??$addressof@$$CBV?$_Vector_val@U?$_Simple_types@PAVDisplayableObject@@@std@@@std@@@std@@YAPBV?$_Vector_val@U?$_Simple_types@PAVDisplayableObject@@@std@@@0@ABV10@@Z 0041f8b0 f i Play.obj
 0001:0001e8c0       ??E?$_Vector_const_iterator@V?$_Vector_val@U?$_Simple_types@PAVDisplayableObject@@@std@@@std@@@std@@QAE?AV01@H@Z 0041f8c0 f i Play.obj
 0001:0001e910       ?begin@?$vector@PAVDisplayableObject@@V?$allocator@PAVDisplayableObject@@@std@@@std@@QBE?AV?$_Vector_const_iterator@V?$_Vector_val@U?$_Simple_types@PAVDisplayableObject@@@std@@@std@@@2@XZ 0041f910 f i Play.obj
 0001:0001e960       ?drawForegroundOval@BaseEngine@@QAEXHHHHI@Z 0041f960 f i Play.obj
 0001:0001e9a0       ?drawForegroundThickLine@BaseEngine@@QAEXHHHHIH@Z 0041f9a0 f i Play.obj
 0001:0001ea10       ?end@?$vector@PAVDisplayableObject@@V?$allocator@PAVDisplayableObject@@@std@@@std@@QBE?AV?$_Vector_const_iterator@V?$_Vector_val@U?$_Simple_types@PAVDisplayableObject@@@std@@@std@@@2@XZ 0041fa10 f i Play.obj
 0001:0001ea60       ?setAllObjectsVisible@DisplayableObjectContainer@@QBEX_N@Z 0041fa60 f i Play.obj
 0001:0001eb60       ?virtSetupBackgroundBuffer@Psyew3Engine@@UAEXXZ 0041fb60 f   Psyew3Engine.obj
 0001:0001ec60       ?virtMouseWheel@Psyew3Engine@@UAEXHHHH@Z 0041fc60 f   Psyew3Engine.obj
 0001:0001ed40       ?virtMouseDown@Psyew3Engine@@UAEXHHH@Z 0041fd40 f   Psyew3Engine.obj
 0001:0001f6d0       ?virtInitialiseObjects@Psyew3Engine@@UAEHXZ 004206d0 f   Psyew3Engine.obj
 0001:0001f9a0       ?respawnRock@Psyew3Engine@@QAEXXZ 004209a0 f   Psyew3Engine.obj
 0001:0001f9d0       ?finishGame@Psyew3Engine@@QAEXXZ 004209d0 f   Psyew3Engine.obj
 0001:0001fa40       ?updateGame@Psyew3Engine@@QAEXH@Z 00420a40 f   Psyew3Engine.obj
 0001:0001fa70       ?addObjectsToArray@Psyew3Engine@@QAEXXZ 00420a70 f   Psyew3Engine.obj
 0001:0001fac0       ?virtDrawStringsUnderneath@Psyew3Engine@@UAEXXZ 00420ac0 f   Psyew3Engine.obj
 0001:0001fc10       ?copyAllBackgroundBuffer@Psyew3Engine@@UAEXXZ 00420c10 f   Psyew3Engine.obj
 0001:0001fcb0       ?virtMainLoopDoBeforeUpdate@Psyew3Engine@@UAEXXZ 00420cb0 f   Psyew3Engine.obj
 0001:0001fd90       ?virtKeyDown@Psyew3Engine@@UAEXH@Z 00420d90 f   Psyew3Engine.obj
 0001:0001fee0       ?resetAllObjects@Psyew3Engine@@QAEXXZ 00420ee0 f   Psyew3Engine.obj
 0001:0001ff40       ?freeStates@Psyew3Engine@@QAEXXZ 00420f40 f   Psyew3Engine.obj
 0001:00020010       ?readFileAndPrint@Psyew3Engine@@QAEXXZ 00421010 f   Psyew3Engine.obj
 0001:00020260       ?virtInitialise@Psyew3Engine@@UAEHXZ 00421260 f   Psyew3Engine.obj
 0001:000202b0       ?virtCreateSurfaces@Psyew3Engine@@UAEXXZ 004212b0 f   Psyew3Engine.obj
 0001:000208a0       ??$?0$$V@?$_Compressed_pair@V?$allocator@D@std@@V?$_Vector_val@U?$_Simple_types@D@std@@@2@$00@std@@QAE@U_Zero_then_variadic_args_t@1@@Z 004218a0 f i Psyew3Engine.obj
 0001:000208d0       ??$?0AAPAV_Facet_base@std@@@?$_Compressed_pair@U?$default_delete@V_Facet_base@std@@@std@@PAV_Facet_base@2@$00@std@@QAE@U_Zero_then_variadic_args_t@1@AAPAV_Facet_base@1@@Z 004218d0 f i Psyew3Engine.obj
 0001:00020900       ??$?0U?$default_delete@V_Facet_base@std@@@std@@$0A@@?$unique_ptr@V_Facet_base@std@@U?$default_delete@V_Facet_base@std@@@2@@std@@QAE@PAV_Facet_base@1@@Z 00421900 f i Psyew3Engine.obj
 0001:00020930       ??$?HDU?$char_traits@D@std@@V?$allocator@D@1@@std@@YA?AV?$basic_string@DU?$char_traits@D@std@@V?$allocator@D@2@@0@ABV10@QBD@Z 00421930 f i Psyew3Engine.obj
 0001:000209e0       ??$_Construct_in_place@PAVDisplayableObject@@ABQAV1@@std@@YAXAAPAVDisplayableObject@@ABQAV1@@Z 004219e0 f i Psyew3Engine.obj
 0001:00020a30       ??$_Emplace_back_with_unused_capacity@ABQAVDisplayableObject@@@?$vector@PAVDisplayableObject@@V?$allocator@PAVDisplayableObject@@@std@@@std@@AAEAAPAVDisplayableObject@@ABQAV2@@Z 00421a30 f i Psyew3Engine.obj
 0001:00020ab0       ??$_Emplace_one_at_back@ABQAVDisplayableObject@@@?$vector@PAVDisplayableObject@@V?$allocator@PAVDisplayableObject@@@std@@@std@@AAEAAPAVDisplayableObject@@ABQAV2@@Z 00421ab0 f i Psyew3Engine.obj
 0001:00020b30       ??$_Emplace_reallocate@ABQAVDisplayableObject@@@?$vector@PAVDisplayableObject@@V?$allocator@PAVDisplayableObject@@@std@@@std@@AAEPAPAVDisplayableObject@@QAPAV2@ABQAV2@@Z 00421b30 f i Psyew3Engine.obj
 0001:00020d90       ??$_Fgetc@D@std@@YA_NAADPAU_iobuf@@@Z 00421d90 f i Psyew3Engine.obj
 0001:00020dd0       ??$_Fputc@D@std@@YA_NDPAU_iobuf@@@Z 00421dd0 f i Psyew3Engine.obj
 0001:00020e10       ??$_Reallocate_grow_by@V<lambda_15711c68e099a15a58f4d77303cb286d>@@D@?$basic_string@DU?$char_traits@D@std@@V?$allocator@D@2@@std@@AAEAAV01@IV<lambda_15711c68e099a15a58f4d77303cb286d>@@D@Z 00421e10 f i Psyew3Engine.obj
 0001:00020f80       ??$_Ungetc@D@std@@YA_NABDPAU_iobuf@@@Z 00421f80 f i Psyew3Engine.obj
 0001:00020fd0       ??$addressof@$$CBV?$codecvt@DDU_Mbstatet@@@std@@@std@@YAPBV?$codecvt@DDU_Mbstatet@@@0@ABV10@@Z 00421fd0 f i Psyew3Engine.obj
 0001:00020fe0       ??$addressof@PAVDisplayableObject@@@std@@YAPAPAVDisplayableObject@@AAPAV1@@Z 00421fe0 f i Psyew3Engine.obj
 0001:00020ff0       ??$addressof@V?$basic_filebuf@DU?$char_traits@D@std@@@std@@@std@@YAPAV?$basic_filebuf@DU?$char_traits@D@std@@@0@AAV10@@Z 00421ff0 f i Psyew3Engine.obj
 0001:00021000       ??$construct@PAVDisplayableObject@@ABQAV1@@?$_Default_allocator_traits@V?$allocator@PAVDisplayableObject@@@std@@@std@@SAXAAV?$allocator@PAVDisplayableObject@@@1@QAPAVDisplayableObject@@ABQAV3@@Z 00422000 f i Psyew3Engine.obj
 0001:00021050       ??$exchange@PAV_Facet_base@std@@$$T@std@@YAPAV_Facet_base@0@AAPAV10@$$QA$$T@Z 00422050 f i Psyew3Engine.obj
 0001:00021080       ??$forward@AAPAV_Facet_base@std@@@std@@YAAAPAV_Facet_base@0@AAPAV10@@Z 00422080 f i Psyew3Engine.obj
 0001:00021090       ??$forward@ABQAVDisplayableObject@@@std@@YAABQAVDisplayableObject@@ABQAV1@@Z 00422090 f i Psyew3Engine.obj
 0001:000210a0       ??$getline@DU?$char_traits@D@std@@V?$allocator@D@2@@std@@YAAAV?$basic_istream@DU?$char_traits@D@std@@@0@$$QAV10@AAV?$basic_string@DU?$char_traits@D@std@@V?$allocator@D@2@@0@D@Z 004220a0 f i Psyew3Engine.obj
 0001:00021320       ??$getline@DU?$char_traits@D@std@@V?$allocator@D@2@@std@@YAAAV?$basic_istream@DU?$char_traits@D@std@@@0@AAV10@AAV?$basic_string@DU?$char_traits@D@std@@V?$allocator@D@2@@0@@Z 00422320 f i Psyew3Engine.obj
 0001:00021370       ??$move@AAV?$basic_istream@DU?$char_traits@D@std@@@std@@@std@@YA$$QAV?$basic_istream@DU?$char_traits@D@std@@@0@AAV10@@Z 00422370 f i Psyew3Engine.obj
 0001:00021380       ??$use_facet@V?$codecvt@DDU_Mbstatet@@@std@@@std@@YAABV?$codecvt@DDU_Mbstatet@@@0@ABVlocale@0@@Z 00422380 f i Psyew3Engine.obj
 0001:000214d0       ??0?$_Vector_val@U?$_Simple_types@D@std@@@std@@QAE@XZ 004224d0 f i Psyew3Engine.obj
 0001:00021520       ??0?$basic_filebuf@DU?$char_traits@D@std@@@std@@QAE@XZ 00422520 f i Psyew3Engine.obj
 0001:000215a0       ??0?$basic_fstream@DU?$char_traits@D@std@@@std@@QAE@XZ 004225a0 f i Psyew3Engine.obj
 0001:000216b0       ??0?$basic_ofstream@DU?$char_traits@D@std@@@std@@QAE@PBDHH@Z 004226b0 f i Psyew3Engine.obj
 0001:00021800       ??0?$basic_string@DU?$char_traits@D@std@@V?$allocator@D@2@@std@@QAE@U_String_constructor_concat_tag@1@ABV01@QBDI2I@Z 00422800 f i Psyew3Engine.obj
 0001:000219e0       ??0?$basic_string@DU?$char_traits@D@std@@V?$allocator@D@2@@std@@QAE@XZ 004229e0 f i Psyew3Engine.obj
 0001:00021a70       ??0?$fpos@U_Mbstatet@@@std@@QAE@U_Mbstatet@@_J@Z 00422a70 f i Psyew3Engine.obj
 0001:00021ac0       ??0?$fpos@U_Mbstatet@@@std@@QAE@_J@Z 00422ac0 f i Psyew3Engine.obj
 0001:00021b10       ??0?$vector@DV?$allocator@D@std@@@std@@QAE@XZ 00422b10 f i Psyew3Engine.obj
 0001:00021b90       ??0Ball@@QAE@HHHHPAVPsyew3Engine@@@Z 00422b90 f i Psyew3Engine.obj
 0001:00021d90       ??0End@@QAE@PAVPsyew3Engine@@@Z 00422d90 f i Psyew3Engine.obj
 0001:00021de0       ??0GameObject@@QAE@HHHHPAVPsyew3Engine@@@Z 00422de0 f i Psyew3Engine.obj
 0001:00021eb0       ??0GameResult@@QAE@XZ      00422eb0 f i Psyew3Engine.obj
 0001:00021ed0       ??0ImagePixelMapping@@QAE@XZ 00422ed0 f i Psyew3Engine.obj
 0001:00021ef0       ??0ImagePixelMappingRotate@@QAE@N@Z 00422ef0 f i Psyew3Engine.obj
 0001:00021f30       ??0ImagePixelMappingRotateAndColour@@QAE@NHH@Z 00422f30 f i Psyew3Engine.obj
 0001:00021ff0       ??0Leaderboard@@QAE@PAVPsyew3Engine@@@Z 00422ff0 f i Psyew3Engine.obj
 0001:000220b0       ??0Menu@@QAE@PAVPsyew3Engine@@@Z 004230b0 f i Psyew3Engine.obj
 0001:00022150       ??0ObjectMapper@@QAE@XZ    00423150 f i Psyew3Engine.obj
 0001:00022190       ??0Pause@@QAE@PAVPsyew3Engine@@@Z 00423190 f i Psyew3Engine.obj
 0001:00022250       ??0Play@@QAE@PAVPsyew3Engine@@@Z 00423250 f i Psyew3Engine.obj
 0001:00022310       ??0Psyew3TileManager@@QAE@XZ 00423310 f i Psyew3Engine.obj
 0001:00022600       ??0Racket@@QAE@HHHHPAVPsyew3Engine@@@Z 00423600 f i Psyew3Engine.obj
 0001:00022710       ??0Rock@@QAE@HHHHPAVPsyew3Engine@@@Z 00423710 f i Psyew3Engine.obj
 0001:00022840       ??0State@@QAE@XZ           00423840 f i Psyew3Engine.obj
 0001:00022860       ??0TileManager@@QAE@HHHH@Z 00423860 f i Psyew3Engine.obj
 0001:000228f0       ??0_Sentry_base@?$basic_istream@DU?$char_traits@D@std@@@std@@QAE@AAV12@@Z 004238f0 f i Psyew3Engine.obj
 0001:00022950       ??0bad_cast@std@@QAE@ABV01@@Z 00423950 f i Psyew3Engine.obj
 0001:00022980       ??0bad_cast@std@@QAE@XZ    00423980 f i Psyew3Engine.obj
 0001:000229b0       ??0sentry@?$basic_istream@DU?$char_traits@D@std@@@std@@QAE@AAV12@_N@Z 004239b0 f i Psyew3Engine.obj
 0001:00022a40       ??1?$basic_filebuf@DU?$char_traits@D@std@@@std@@UAE@XZ 00423a40 f i Psyew3Engine.obj
 0001:00022ad0       ??1?$basic_fstream@DU?$char_traits@D@std@@@std@@UAE@XZ 00423ad0 f i Psyew3Engine.obj
 0001:00022b40       ??1?$basic_ofstream@DU?$char_traits@D@std@@@std@@UAE@XZ 00423b40 f i Psyew3Engine.obj
 0001:00022bb0       ??1?$unique_ptr@V_Facet_base@std@@U?$default_delete@V_Facet_base@std@@@2@@std@@QAE@XZ 00423bb0 f i Psyew3Engine.obj
 0001:00022bf0       ??1?$vector@DV?$allocator@D@std@@@std@@QAE@XZ 00423bf0 f i Psyew3Engine.obj
 0001:00022c60       ??1Ball@@UAE@XZ            00423c60 f i Psyew3Engine.obj
 0001:00022ca0       ??1End@@QAE@XZ             00423ca0 f i Psyew3Engine.obj
 0001:00022cc0       ??1GameResult@@QAE@XZ      00423cc0 f i Psyew3Engine.obj
 0001:00022ce0       ??1Leaderboard@@QAE@XZ     00423ce0 f i Psyew3Engine.obj
 0001:00022d00       ??1Menu@@QAE@XZ            00423d00 f i Psyew3Engine.obj
 0001:00022d30       ??1Pause@@QAE@XZ           00423d30 f i Psyew3Engine.obj
 0001:00022d50       ??1Play@@QAE@XZ            00423d50 f i Psyew3Engine.obj
 0001:00022d70       ??1Psyew3TileManager@@UAE@XZ 00423d70 f i Psyew3Engine.obj
 0001:00022e20       ??1Racket@@UAE@XZ          00423e20 f i Psyew3Engine.obj
 0001:00022e50       ??1Rock@@UAE@XZ            00423e50 f i Psyew3Engine.obj
 0001:00022e70       ??1TileManager@@UAE@XZ     00423e70 f i Psyew3Engine.obj
 0001:00022ec0       ??1_Sentry_base@?$basic_istream@DU?$char_traits@D@std@@@std@@QAE@XZ 00423ec0 f i Psyew3Engine.obj
 0001:00022f50       ??1bad_cast@std@@UAE@XZ    00423f50 f i Psyew3Engine.obj
 0001:00022f70       ??1locale@std@@QAE@XZ      00423f70 f i Psyew3Engine.obj
 0001:00022fd0       ??1sentry@?$basic_istream@DU?$char_traits@D@std@@@std@@QAE@XZ 00423fd0 f i Psyew3Engine.obj
 0001:00022ff0       ??A?$vector@DV?$allocator@D@std@@@std@@QAEAADI@Z 00423ff0 f i Psyew3Engine.obj
 0001:00023090       ??B?$fpos@U_Mbstatet@@@std@@QBE_JXZ 00424090 f i Psyew3Engine.obj
 0001:000230c0       ??Bsentry@?$basic_istream@DU?$char_traits@D@std@@@std@@QBE_NXZ 004240c0 f i Psyew3Engine.obj
 0001:000230e0       ??R<lambda_15711c68e099a15a58f4d77303cb286d>@@QBE@QADQBDID@Z 004240e0 f i Psyew3Engine.obj
 0001:00023150       ??R?$default_delete@V_Facet_base@std@@@std@@QBEXPAV_Facet_base@1@@Z 00424150 f i Psyew3Engine.obj
 0001:000231a0       ??Y?$basic_string@DU?$char_traits@D@std@@V?$allocator@D@2@@std@@QAEAAV01@D@Z 004241a0 f i Psyew3Engine.obj
 0001:000231d0       ??_D?$basic_fstream@DU?$char_traits@D@std@@@std@@QAEXXZ 004241d0 f i Psyew3Engine.obj
 0001:00023200       ??_D?$basic_ofstream@DU?$char_traits@D@std@@@std@@QAEXXZ 00424200 f i Psyew3Engine.obj
 0001:0002322a       ??_E?$basic_fstream@DU?$char_traits@D@std@@@std@@$4PPPPPPPM@A@AEPAXI@Z 0042422a f i Psyew3Engine.obj
 0001:00023234       ??_E?$basic_ofstream@DU?$char_traits@D@std@@@std@@$4PPPPPPPM@A@AEPAXI@Z 00424234 f i Psyew3Engine.obj
 0001:00023240       ??_E?$basic_filebuf@DU?$char_traits@D@std@@@std@@UAEPAXI@Z 00424240 f i Psyew3Engine.obj
 0001:00023240       ??_G?$basic_filebuf@DU?$char_traits@D@std@@@std@@UAEPAXI@Z 00424240 f i Psyew3Engine.obj
 0001:00023280       ??_E?$basic_fstream@DU?$char_traits@D@std@@@std@@UAEPAXI@Z 00424280 f i Psyew3Engine.obj
 0001:00023280       ??_G?$basic_fstream@DU?$char_traits@D@std@@@std@@UAEPAXI@Z 00424280 f i Psyew3Engine.obj
 0001:000232d0       ??_E?$basic_ofstream@DU?$char_traits@D@std@@@std@@UAEPAXI@Z 004242d0 f i Psyew3Engine.obj
 0001:000232d0       ??_G?$basic_ofstream@DU?$char_traits@D@std@@@std@@UAEPAXI@Z 004242d0 f i Psyew3Engine.obj
 0001:00023320       ??_EBall@@UAEPAXI@Z        00424320 f i Psyew3Engine.obj
 0001:00023320       ??_GBall@@UAEPAXI@Z        00424320 f i Psyew3Engine.obj
 0001:00023360       ??_GEnd@@QAEPAXI@Z         00424360 f i Psyew3Engine.obj
 0001:000233a0       ??_GLeaderboard@@QAEPAXI@Z 004243a0 f i Psyew3Engine.obj
 0001:000233e0       ??_GMenu@@QAEPAXI@Z        004243e0 f i Psyew3Engine.obj
 0001:00023420       ??_GPause@@QAEPAXI@Z       00424420 f i Psyew3Engine.obj
 0001:00023460       ??_GPlay@@QAEPAXI@Z        00424460 f i Psyew3Engine.obj
 0001:000234a0       ??_EPsyew3TileManager@@UAEPAXI@Z 004244a0 f i Psyew3Engine.obj
 0001:000234a0       ??_GPsyew3TileManager@@UAEPAXI@Z 004244a0 f i Psyew3Engine.obj
 0001:000234e0       ??_ERacket@@UAEPAXI@Z      004244e0 f i Psyew3Engine.obj
 0001:000234e0       ??_GRacket@@UAEPAXI@Z      004244e0 f i Psyew3Engine.obj
 0001:00023520       ??_ERock@@UAEPAXI@Z        00424520 f i Psyew3Engine.obj
 0001:00023520       ??_GRock@@UAEPAXI@Z        00424520 f i Psyew3Engine.obj
 0001:00023560       ??_ETileManager@@UAEPAXI@Z 00424560 f i Psyew3Engine.obj
 0001:00023560       ??_GTileManager@@UAEPAXI@Z 00424560 f i Psyew3Engine.obj
 0001:000235a0       ??_Ebad_cast@std@@UAEPAXI@Z 004245a0 f i Psyew3Engine.obj
 0001:000235a0       ??_Gbad_cast@std@@UAEPAXI@Z 004245a0 f i Psyew3Engine.obj
 0001:000235e0       ?_Check_offset@?$_String_val@U?$_Simple_types@D@std@@@std@@QBEXI@Z 004245e0 f i Psyew3Engine.obj
 0001:00023610       ?_Clamp_suffix_size@?$_String_val@U?$_Simple_types@D@std@@@std@@QBEIII@Z 00424610 f i Psyew3Engine.obj
 0001:00023650       ?_Endwrite@?$basic_filebuf@DU?$char_traits@D@std@@@std@@IAE_NXZ 00424650 f i Psyew3Engine.obj
 0001:000237b0       ?_Eos@?$basic_string@DU?$char_traits@D@std@@V?$allocator@D@2@@std@@AAEXI@Z 004247b0 f i Psyew3Engine.obj
 0001:00023800       ?_Erase_noexcept@?$basic_string@DU?$char_traits@D@std@@V?$allocator@D@2@@std@@AAEAAV12@II@Z 00424800 f i Psyew3Engine.obj
 0001:00023890       ?_Get_first@?$_Compressed_pair@U?$default_delete@V_Facet_base@std@@@std@@PAV_Facet_base@2@$00@std@@QAEAAU?$default_delete@V_Facet_base@std@@@2@XZ 00424890 f i Psyew3Engine.obj
 0001:000238b0       ?_Getfacet@locale@std@@QBEPBVfacet@12@I@Z 004248b0 f i Psyew3Engine.obj
 0001:00023950       ?_Init@?$basic_filebuf@DU?$char_traits@D@std@@@std@@IAEXPAU_iobuf@@W4_Initfl@12@@Z 00424950 f i Psyew3Engine.obj
 0001:00023a50       ?_Initcvt@?$basic_filebuf@DU?$char_traits@D@std@@@std@@IAEXABV?$codecvt@DDU_Mbstatet@@@2@@Z 00424a50 f i Psyew3Engine.obj
 0001:00023ab0       ?_Lock@?$basic_filebuf@DU?$char_traits@D@std@@@std@@UAEXXZ 00424ab0 f i Psyew3Engine.obj
 0001:00023ae0       ?_Myptr@?$_String_val@U?$_Simple_types@D@std@@@std@@QAEPADXZ 00424ae0 f i Psyew3Engine.obj
 0001:00023b30       ?_Reset_back@?$basic_filebuf@DU?$char_traits@D@std@@@std@@AAEXXZ 00424b30 f i Psyew3Engine.obj
 0001:00023b80       ?_Set_back@?$basic_filebuf@DU?$char_traits@D@std@@@std@@AAEXXZ 00424b80 f i Psyew3Engine.obj
 0001:00023bf0       ?_Throw_bad_cast@std@@YAXXZ 00424bf0 f i Psyew3Engine.obj
 0001:00023c20       ?_Tidy@?$vector@DV?$allocator@D@std@@@std@@AAEXXZ 00424c20 f i Psyew3Engine.obj
 0001:00023d20       ?_Unlock@?$basic_filebuf@DU?$char_traits@D@std@@@std@@UAEXXZ 00424d20 f i Psyew3Engine.obj
 0001:00023d50       ?_Xran@?$_String_val@U?$_Simple_types@D@std@@@std@@SAXXZ 00424d50 f i Psyew3Engine.obj
 0001:00023d70       ?appendObjectToArray@DisplayableObjectContainer@@QAEXPAVDisplayableObject@@@Z 00424d70 f i Psyew3Engine.obj
 0001:00023db0       ?changeOffset@FilterTranslation@@QAEXHH@Z 00424db0 f i Psyew3Engine.obj
 0001:00023df0       ?clear@?$vector@DV?$allocator@D@std@@@std@@QAEXXZ 00424df0 f i Psyew3Engine.obj
 0001:00023e70       ?close@?$basic_filebuf@DU?$char_traits@D@std@@@std@@QAEPAV12@XZ 00424e70 f i Psyew3Engine.obj
 0001:00023f00       ?close@?$basic_ofstream@DU?$char_traits@D@std@@@std@@QAEXXZ 00424f00 f i Psyew3Engine.obj
 0001:00023f40       ?compress@FilterScaling@@QAEXXZ 00424f40 f i Psyew3Engine.obj
 0001:00023f70       ?compressX@FilterScaling@@QAEXXZ 00424f70 f i Psyew3Engine.obj
 0001:00023fc0       ?compressY@FilterScaling@@QAEXXZ 00424fc0 f i Psyew3Engine.obj
 0001:00024010       ?convertClickedToVirtualPixelXPosition@BaseEngine@@QAEHH@Z 00425010 f i Psyew3Engine.obj
 0001:00024040       ?convertClickedToVirtualPixelYPosition@BaseEngine@@QAEHH@Z 00425040 f i Psyew3Engine.obj
 0001:00024070       ?erase@?$basic_string@DU?$char_traits@D@std@@V?$allocator@D@2@@std@@QAEAAV12@I@Z 00425070 f i Psyew3Engine.obj
 0001:000240b0       ?erase@?$basic_string@DU?$char_traits@D@std@@V?$allocator@D@2@@std@@QAEAAV12@II@Z 004250b0 f i Psyew3Engine.obj
 0001:000240f0       ?front@?$basic_string@DU?$char_traits@D@std@@V?$allocator@D@2@@std@@QAEAADXZ 004250f0 f i Psyew3Engine.obj
 0001:00024190       ?getMapXForScreenX@TileManager@@QBEHH@Z 00425190 f i Psyew3Engine.obj
 0001:000241c0       ?getMapYForScreenY@TileManager@@QBEHH@Z 004251c0 f i Psyew3Engine.obj
 0001:000241f0       ?imbue@?$basic_filebuf@DU?$char_traits@D@std@@@std@@MAEXABVlocale@2@@Z 004251f0 f i Psyew3Engine.obj
 0001:00024220       ?isValidTilePosition@TileManager@@QBE_NHH@Z 00425220 f i Psyew3Engine.obj
 0001:000242b0       ?loadImage@ImageManager@@SA?AVSimpleImage@@V?$basic_string@DU?$char_traits@D@std@@V?$allocator@D@2@@std@@_N@Z 004252b0 f i Psyew3Engine.obj
 0001:00024370       ?not_eof@?$_Narrow_char_traits@DH@std@@SAHABH@Z 00425370 f i Psyew3Engine.obj
 0001:000243d0       ?open@?$basic_filebuf@DU?$char_traits@D@std@@@std@@QAEPAV12@PBDHH@Z 004253d0 f i Psyew3Engine.obj
 0001:000244c0       ?open@?$basic_fstream@DU?$char_traits@D@std@@@std@@QAEXPBDHH@Z 004254c0 f i Psyew3Engine.obj
 0001:00024530       ?overflow@?$basic_filebuf@DU?$char_traits@D@std@@@std@@MAEHH@Z 00425530 f i Psyew3Engine.obj
 0001:00024780       ?pbackfail@?$basic_filebuf@DU?$char_traits@D@std@@@std@@MAEHH@Z 00425780 f i Psyew3Engine.obj
 0001:00024930       ?push_back@?$basic_string@DU?$char_traits@D@std@@V?$allocator@D@2@@std@@QAEXD@Z 00425930 f i Psyew3Engine.obj
 0001:000249e0       ?push_back@?$vector@PAVDisplayableObject@@V?$allocator@PAVDisplayableObject@@@std@@@std@@QAEXABQAVDisplayableObject@@@Z 004259e0 f i Psyew3Engine.obj
 0001:00024a00       ?release@?$unique_ptr@V_Facet_base@std@@U?$default_delete@V_Facet_base@std@@@2@@std@@QAEPAV_Facet_base@2@XZ 00425a00 f i Psyew3Engine.obj
 0001:00024a30       ?seekoff@?$basic_filebuf@DU?$char_traits@D@std@@@std@@MAE?AV?$fpos@U_Mbstatet@@@2@_JHH@Z 00425a30 f i Psyew3Engine.obj
 0001:00024b40       ?seekpos@?$basic_filebuf@DU?$char_traits@D@std@@@std@@MAE?AV?$fpos@U_Mbstatet@@@2@V32@H@Z 00425b40 f i Psyew3Engine.obj
 0001:00024c10       ?setMapSize@TileManager@@QAEXHH@Z 00425c10 f i Psyew3Engine.obj
 0001:00024cc0       ?setOffset@FilterTranslation@@QAEXHH@Z 00425cc0 f i Psyew3Engine.obj
 0001:00024cf0       ?setbuf@?$basic_filebuf@DU?$char_traits@D@std@@@std@@MAEPAV?$basic_streambuf@DU?$char_traits@D@std@@@2@PAD_J@Z 00425cf0 f i Psyew3Engine.obj
 0001:00024d90       ?state@?$fpos@U_Mbstatet@@@std@@QBE?AU_Mbstatet@@XZ 00425d90 f i Psyew3Engine.obj
 0001:00024dc0       ?stretch@FilterScaling@@QAEXXZ 00425dc0 f i Psyew3Engine.obj
 0001:00024df0       ?stretchX@FilterScaling@@QAEXXZ 00425df0 f i Psyew3Engine.obj
 0001:00024e40       ?stretchY@FilterScaling@@QAEXXZ 00425e40 f i Psyew3Engine.obj
 0001:00024e90       ?sync@?$basic_filebuf@DU?$char_traits@D@std@@@std@@MAEHXZ 00425e90 f i Psyew3Engine.obj
 0001:00024f10       ?to_char_type@?$_Narrow_char_traits@DH@std@@SADABH@Z 00425f10 f i Psyew3Engine.obj
 0001:00024f20       ?to_int_type@?$_Narrow_char_traits@DH@std@@SAHABD@Z 00425f20 f i Psyew3Engine.obj
 0001:00024f30       ?uflow@?$basic_filebuf@DU?$char_traits@D@std@@@std@@MAEHXZ 00425f30 f i Psyew3Engine.obj
 0001:00025240       ?underflow@?$basic_filebuf@DU?$char_traits@D@std@@@std@@MAEHXZ 00426240 f i Psyew3Engine.obj
 0001:00025300       ?unpause@BaseEngine@@QAEXXZ 00426300 f i Psyew3Engine.obj
 0001:00025350       ?xsgetn@?$basic_filebuf@DU?$char_traits@D@std@@@std@@MAE_JPAD_J@Z 00426350 f i Psyew3Engine.obj
 0001:00025510       ?xsputn@?$basic_filebuf@DU?$char_traits@D@std@@@std@@MAE_JPBD_J@Z 00426510 f i Psyew3Engine.obj
 0001:00025670       ?virtDrawTileAt@Psyew3TileManager@@UBEXPAVBaseEngine@@PAVDrawingSurface@@HHHH@Z 00426670 f   Psyew3TileManager.obj
 0001:000257d0       ?getMapValue@TileManager@@QBEHHH@Z 004267d0 f i Psyew3TileManager.obj
 0001:00025800       ?virtDraw@Racket@@UAEXXZ   00426800 f   Racket.obj
 0001:00025930       ?virtDoUpdate@Racket@@UAEXH@Z 00426930 f   Racket.obj
 0001:000259e0       ?detectCollision@Racket@@QAEXXZ 004269e0 f   Racket.obj
 0001:00025a60       ?resetObject@Racket@@UAEXXZ 00426a60 f   Racket.obj
 0001:00025b60       ?mapCoordinates@CroppedImagePixelMapping@@UAE_NAAN0ABVSimpleImage@@@Z 00426b60 f i SimpleImage.obj
 0001:00025c00       ??0SimpleImage@@QAE@XZ     00426c00 f   SimpleImage.obj
 0001:00025c30       ??0SimpleImage@@QAE@V?$shared_ptr@VRawImageData@@@std@@@Z 00426c30 f   SimpleImage.obj
 0001:00025c70       ?exists@SimpleImage@@QBE_NXZ 00426c70 f   SimpleImage.obj
 0001:00025c90       ?renderImage@SimpleImage@@QBEXPAVDrawingSurface@@HHHHHH@Z 00426c90 f   SimpleImage.obj
 0001:00025da0       ?renderImageWithMask@SimpleImage@@QBEXPAVDrawingSurface@@HHHHHHH@Z 00426da0 f   SimpleImage.obj
 0001:00025ee0       ?renderImageWithMaskAndTransparency@SimpleImage@@QBEXPAVDrawingSurface@@HHHHHHHH@Z 00426ee0 f   SimpleImage.obj
 0001:000260b0       ?renderImageBlit@SimpleImage@@QAEXPAVBaseEngine@@PAVDrawingSurface@@HHHHHHHH@Z 004270b0 f   SimpleImage.obj
 0001:00026360       ?adjustXYWidthHeight@SimpleImage@@SA_NPAVDrawingSurface@@AAH11111@Z 00427360 f   SimpleImage.obj
 0001:00026560       ?renderImageApplyingMapping@SimpleImage@@QBEXPAVBaseEngine@@PAVDrawingSurface@@HHHHPAVImagePixelMapping@@@Z 00427560 f   SimpleImage.obj
 0001:00026b70       ??BDrawingSurface@@QAEPAUSDL_Surface@@XZ 00427b70 f i SimpleImage.obj
 0001:00026b90       ?getSurface@RawImageData@@QAEPAUSDL_Surface@@XZ 00427b90 f i SimpleImage.obj
 0001:00026bb0       ?virtSetupBackgroundBuffer@SimpleDemo@@UAEXXZ 00427bb0 f   SimpleDemo.obj
 0001:00026cf0       ?virtInitialiseObjects@SimpleDemo@@UAEHXZ 00427cf0 f   SimpleDemo.obj
 0001:00026e70       ?virtDrawStringsUnderneath@SimpleDemo@@UAEXXZ 00427e70 f   SimpleDemo.obj
 0001:00026ef0       ?virtDrawStringsOnTop@SimpleDemo@@UAEXXZ 00427ef0 f   SimpleDemo.obj
 0001:00026fb0       ?virtMouseDown@SimpleDemo@@UAEXHHH@Z 00427fb0 f   SimpleDemo.obj
 0001:00026fd0       ?virtKeyDown@SimpleDemo@@UAEXH@Z 00427fd0 f   SimpleDemo.obj
 0001:00027140       ??0BouncingObject@@QAE@PAVBaseEngine@@HHNNNN@Z 00428140 f i SimpleDemo.obj
 0001:00027210       ??1BouncingObject@@UAE@XZ  00428210 f i SimpleDemo.obj
 0001:00027230       ??_EBouncingObject@@UAEPAXI@Z 00428230 f i SimpleDemo.obj
 0001:00027230       ??_GBouncingObject@@UAEPAXI@Z 00428230 f i SimpleDemo.obj
 0001:00027270       ?isPaused@BaseEngine@@QAE_NXZ 00428270 f i SimpleDemo.obj
 0001:000272b0       ?lockAndSetupBackground@BaseEngine@@QAEXXZ 004282b0 f i SimpleDemo.obj
 0001:000272f0       ?virtDoUpdate@BouncingObject@@UAEXH@Z 004282f0 f i SimpleDemo.obj
 0001:000276f0       ?virtDraw@BouncingObject@@UAEXXZ 004286f0 f i SimpleDemo.obj
 0001:00027790       ??0StarfieldDemo@@QAE@XZ   00428790 f   StarfieldDemo.obj
 0001:000277d0       ??1StarfieldDemo@@UAE@XZ   004287d0 f   StarfieldDemo.obj
 0001:00027800       ?virtSetupBackgroundBuffer@StarfieldDemo@@UAEXXZ 00428800 f   StarfieldDemo.obj
 0001:00027940       ?virtMainLoopDoBeforeUpdate@StarfieldDemo@@UAEXXZ 00428940 f   StarfieldDemo.obj
 0001:00027980       ?copyAllBackgroundBuffer@StarfieldDemo@@UAEXXZ 00428980 f   StarfieldDemo.obj
 0001:00027ac0       ??_EStarfieldDemo@@UAEPAXI@Z 00428ac0 f i StarfieldDemo.obj
 0001:00027ac0       ??_GStarfieldDemo@@UAEPAXI@Z 00428ac0 f i StarfieldDemo.obj
 0001:00027b00       ?initialiseState@State@@UAEXXZ 00428b00 f   State.obj
 0001:00027b20       ?updateState@State@@UAEXH@Z 00428b20 f   State.obj
 0001:00027b40       ?drawAllTiles@TileManager@@QBEXPAVBaseEngine@@PAVDrawingSurface@@@Z 00428b40 f   TileManager.obj
 0001:00027be0       ?drawSomeTiles@TileManager@@QBEXPAVBaseEngine@@PAVDrawingSurface@@HHHH@Z 00428be0 f   TileManager.obj
 0001:00027c80       ?virtDrawTileAt@TileManager@@UBEXPAVBaseEngine@@PAVDrawingSurface@@HHHH@Z 00428c80 f   TileManager.obj
 0001:00027d70       ??0BouncingBall@@QAE@PAVBouncingBallMain@@HHHHPBDHH@Z 00428d70 f   BouncingBall.obj
 0001:00027e40       ??1BouncingBall@@UAE@XZ    00428e40 f   BouncingBall.obj
 0001:00027e60       ?virtDraw@BouncingBall@@UAEXXZ 00428e60 f   BouncingBall.obj
 0001:00028130       ?virtDoUpdate@BouncingBall@@UAEXH@Z 00429130 f   BouncingBall.obj
 0001:00028150       ??0BouncingBall1@@QAE@PAVBouncingBallMain@@HHHHPBDHHPAVTileManager@@@Z 00429150 f   BouncingBall.obj
 0001:000281f0       ?setMovement@BouncingBall1@@QAEXHHHHHHH@Z 004291f0 f   BouncingBall.obj
 0001:00028260       ?virtDoUpdate@BouncingBall1@@UAEXH@Z 00429260 f   BouncingBall.obj
 0001:000283d0       ??0BouncingBall2@@QAE@PAVBouncingBallMain@@HHHHPBDHH@Z 004293d0 f   BouncingBall.obj
 0001:00028450       ?setPosition@BouncingBall2@@QAEXNN@Z 00429450 f   BouncingBall.obj
 0001:00028480       ?setSpeed@BouncingBall2@@QAEXNN@Z 00429480 f   BouncingBall.obj
 0001:000284b0       ?virtDoUpdate@BouncingBall2@@UAEXH@Z 004294b0 f   BouncingBall.obj
 0001:00028aa0       ??0MovementPosition@@QAE@XZ 00429aa0 f i BouncingBall.obj
 0001:00028b20       ??1BouncingBall1@@UAE@XZ   00429b20 f i BouncingBall.obj
 0001:00028b40       ??1BouncingBall2@@UAE@XZ   00429b40 f i BouncingBall.obj
 0001:00028b60       ??_EBouncingBall1@@UAEPAXI@Z 00429b60 f i BouncingBall.obj
 0001:00028b60       ??_GBouncingBall1@@UAEPAXI@Z 00429b60 f i BouncingBall.obj
 0001:00028ba0       ??_EBouncingBall2@@UAEPAXI@Z 00429ba0 f i BouncingBall.obj
 0001:00028ba0       ??_GBouncingBall2@@UAEPAXI@Z 00429ba0 f i BouncingBall.obj
 0001:00028be0       ??_EBouncingBall@@UAEPAXI@Z 00429be0 f i BouncingBall.obj
 0001:00028be0       ??_GBouncingBall@@UAEPAXI@Z 00429be0 f i BouncingBall.obj
 0001:00028c20       ?calculate@MovementPosition@@QAEXH@Z 00429c20 f i BouncingBall.obj
 0001:00028ce0       ?getX@MovementPosition@@QBEHXZ 00429ce0 f i BouncingBall.obj
 0001:00028d00       ?getY@MovementPosition@@QBEHXZ 00429d00 f i BouncingBall.obj
 0001:00028d20       ?hasMovementFinished@MovementPosition@@QBE_NH@Z 00429d20 f i BouncingBall.obj
 0001:00028d60       ?reverse@MovementPosition@@QAEXXZ 00429d60 f i BouncingBall.obj
 0001:00028df0       ?setup@MovementPosition@@QAEXHHHHHH@Z 00429df0 f i BouncingBall.obj
 0001:00028e60       ?virtMouseDown@BouncingBall@@UAEXHHH@Z 00429e60 f i BouncingBall.obj
 0001:00028ea0       ?virtSetupBackgroundBuffer@BouncingBallMain@@UAEXXZ 00429ea0 f   BouncingBallMain.obj
 0001:000296e0       ?virtInitialiseObjects@BouncingBallMain@@UAEHXZ 0042a6e0 f   BouncingBallMain.obj
 0001:000299b0       ?virtDrawStringsUnderneath@BouncingBallMain@@UAEXXZ 0042a9b0 f   BouncingBallMain.obj
 0001:000299f0       ?virtMouseDown@BouncingBallMain@@UAEXHHH@Z 0042a9f0 f   BouncingBallMain.obj
 0001:00029a30       ?virtKeyDown@BouncingBallMain@@UAEXH@Z 0042aa30 f   BouncingBallMain.obj
 0001:00029d50       ?drawBackgroundLine@BaseEngine@@QAEXHHHHI@Z 0042ad50 f i BouncingBallMain.obj
 0001:00029dc0       ?drawBackgroundPolygon@BaseEngine@@QAEXNNNNNNNNI@Z 0042adc0 f i BouncingBallMain.obj
 0001:00029e80       ?drawBackgroundPolygon@BaseEngine@@QAEXNNNNNNNNNNI@Z 0042ae80 f i BouncingBallMain.obj
 0001:00029f50       ?drawBackgroundPolygon@BaseEngine@@QAEXNNNNNNNNNNNNI@Z 0042af50 f i BouncingBallMain.obj
 0001:0002a040       ?drawBackgroundPolygon@BaseEngine@@QAEXNNNNNNNNNNNNNNI@Z 0042b040 f i BouncingBallMain.obj
 0001:0002a140       ?drawBackgroundPolygon@BaseEngine@@QAEXNNNNNNNNNNNNNNNNI@Z 0042b140 f i BouncingBallMain.obj
 0001:0002a280       ?drawBackgroundTriangle@BaseEngine@@QAEXHHHHHHI@Z 0042b280 f i BouncingBallMain.obj
 0001:0002a310       ?drawBackgroundVerticalSidedRegion@BaseEngine@@QAEXNNNNNNI@Z 0042b310 f i BouncingBallMain.obj
 0001:0002a3a0       ?getFont@BaseEngine@@QAEPAVFont@@PBDH@Z 0042b3a0 f i BouncingBallMain.obj
 0001:0002a3d0       ?virtInitialise@ZoomingDemo@@UAEHXZ 0042b3d0 f   ZoomingDemo.obj
 0001:0002a420       ?virtSetupBackgroundBuffer@ZoomingDemo@@UAEXXZ 0042b420 f   ZoomingDemo.obj
 0001:0002a440       ?virtInitialiseObjects@ZoomingDemo@@UAEHXZ 0042b440 f   ZoomingDemo.obj
 0001:0002a600       ?virtDrawStringsUnderneath@ZoomingDemo@@UAEXXZ 0042b600 f   ZoomingDemo.obj
 0001:0002a6b0       ?virtDrawStringsOnTop@ZoomingDemo@@UAEXXZ 0042b6b0 f   ZoomingDemo.obj
 0001:0002a730       ?virtMouseDown@ZoomingDemo@@UAEXHHH@Z 0042b730 f   ZoomingDemo.obj
 0001:0002a780       ?virtKeyDown@ZoomingDemo@@UAEXH@Z 0042b780 f   ZoomingDemo.obj
 0001:0002a880       ?virtMouseWheel@ZoomingDemo@@UAEXHHHH@Z 0042b880 f   ZoomingDemo.obj
 0001:0002aa80       ??0SimpleFlashingDragableImageObject@@QAE@HHPAVBaseEngine@@V?$basic_string@DU?$char_traits@D@std@@V?$allocator@D@2@@std@@1_N2@Z 0042ba80 f i ZoomingDemo.obj
 0001:0002ac80       ??1SimpleFlashingDragableImageObject@@UAE@XZ 0042bc80 f i ZoomingDemo.obj
 0001:0002acc0       ??_ESimpleFlashingDragableImageObject@@UAEPAXI@Z 0042bcc0 f i ZoomingDemo.obj
 0001:0002acc0       ??_GSimpleFlashingDragableImageObject@@UAEPAXI@Z 0042bcc0 f i ZoomingDemo.obj
 0001:0002ad00       ?changeOffset@FilterPointsTranslation@@QAEXHH@Z 0042bd00 f i ZoomingDemo.obj
 0001:0002ad40       ?compress@FilterPointsScaling@@QAEXXZ 0042bd40 f i ZoomingDemo.obj
 0001:0002ad70       ?compressX@FilterPointsScaling@@QAEXXZ 0042bd70 f i ZoomingDemo.obj
 0001:0002adc0       ?compressY@FilterPointsScaling@@QAEXXZ 0042bdc0 f i ZoomingDemo.obj
 0001:0002ae10       ?setOffset@FilterPointsTranslation@@QAEXHH@Z 0042be10 f i ZoomingDemo.obj
 0001:0002ae40       ?stretch@FilterPointsScaling@@QAEXXZ 0042be40 f i ZoomingDemo.obj
 0001:0002ae70       ?stretchX@FilterPointsScaling@@QAEXXZ 0042be70 f i ZoomingDemo.obj
 0001:0002aec0       ?stretchY@FilterPointsScaling@@QAEXXZ 0042bec0 f i ZoomingDemo.obj
 0001:0002af10       ?virtDoUpdate@SimpleFlashingDragableImageObject@@UAEXH@Z 0042bf10 f i ZoomingDemo.obj
 0001:0002af70       ?virtDraw@SimpleFlashingDragableImageObject@@UAEXXZ 0042bf70 f i ZoomingDemo.obj
 0001:0002b060       ?virtMouseDown@SimpleFlashingDragableImageObject@@UAEXHHH@Z 0042c060 f i ZoomingDemo.obj
 0001:0002b0d0       ?virtMouseMoved@SimpleFlashingDragableImageObject@@UAEXHH@Z 0042c0d0 f i ZoomingDemo.obj
 0001:0002b130       ?virtMouseUp@SimpleFlashingDragableImageObject@@UAEXHHH@Z 0042c130 f i ZoomingDemo.obj
 0001:0002b150       ??0MazeDemoMain@@QAE@XZ    0042c150 f   MazeDemoMain.obj
 0001:0002b1d0       ??1MazeDemoMain@@UAE@XZ    0042c1d0 f   MazeDemoMain.obj
 0001:0002b210       ?virtSetupBackgroundBuffer@MazeDemoMain@@UAEXXZ 0042c210 f   MazeDemoMain.obj
 0001:0002b400       ?virtInitialiseObjects@MazeDemoMain@@UAEHXZ 0042c400 f   MazeDemoMain.obj
 0001:0002b600       ?virtDrawStringsUnderneath@MazeDemoMain@@UAEXXZ 0042c600 f   MazeDemoMain.obj
 0001:0002b690       ?virtMouseDown@MazeDemoMain@@UAEXHHH@Z 0042c690 f   MazeDemoMain.obj
 0001:0002b6a0       ?virtKeyDown@MazeDemoMain@@UAEXH@Z 0042c6a0 f   MazeDemoMain.obj
 0001:0002b8f0       ??0MazeDemoTileManager@@QAE@XZ 0042c8f0 f i MazeDemoMain.obj
 0001:0002b920       ??0TileManager@@QAE@HH@Z   0042c920 f i MazeDemoMain.obj
 0001:0002b9a0       ??1MazeDemoTileManager@@UAE@XZ 0042c9a0 f i MazeDemoMain.obj
 0001:0002b9d0       ??_EMazeDemoMain@@UAEPAXI@Z 0042c9d0 f i MazeDemoMain.obj
 0001:0002b9d0       ??_GMazeDemoMain@@UAEPAXI@Z 0042c9d0 f i MazeDemoMain.obj
 0001:0002ba10       ??_EMazeDemoTileManager@@UAEPAXI@Z 0042ca10 f i MazeDemoMain.obj
 0001:0002ba10       ??_GMazeDemoTileManager@@UAEPAXI@Z 0042ca10 f i MazeDemoMain.obj
 0001:0002ba50       ??0MazeDemoObject@@QAE@PAVMazeDemoMain@@HH@Z 0042ca50 f   MazeDemoObject.obj
 0001:0002bb30       ??1MazeDemoObject@@UAE@XZ  0042cb30 f   MazeDemoObject.obj
 0001:0002bb50       ?virtDraw@MazeDemoObject@@UAEXXZ 0042cb50 f   MazeDemoObject.obj
 0001:0002bc00       ?virtDoUpdate@MazeDemoObject@@UAEXH@Z 0042cc00 f   MazeDemoObject.obj
 0001:0002c2a0       ??_EMazeDemoObject@@UAEPAXI@Z 0042d2a0 f i MazeDemoObject.obj
 0001:0002c2a0       ??_GMazeDemoObject@@UAEPAXI@Z 0042d2a0 f i MazeDemoObject.obj
 0001:0002c2e0       ?GetTileManager@MazeDemoMain@@QAEAAVMazeDemoTileManager@@XZ 0042d2e0 f i MazeDemoObject.obj
 0001:0002c300       ?checkCircles@CollisionDetection@@SA_NHHHHH@Z 0042d300 f i MazeDemoObject.obj
 0001:0002c360       ?getXCentre@DisplayableObject@@QBEHXZ 0042d360 f i MazeDemoObject.obj
 0001:0002c390       ?getXDiffForDirection@MazeDemoObject@@QAEHH@Z 0042d390 f i MazeDemoObject.obj
 0001:0002c400       ?getYCentre@DisplayableObject@@QBEHXZ 0042d400 f i MazeDemoObject.obj
 0001:0002c430       ?getYDiffForDirection@MazeDemoObject@@QAEHH@Z 0042d430 f i MazeDemoObject.obj
 0001:0002c4a0       ?virtDrawTileAt@MazeDemoTileManager@@UBEXPAVBaseEngine@@PAVDrawingSurface@@HHHH@Z 0042d4a0 f   MazeDemoTileManager.obj
 0001:0002c685       _SDL_FreeSurface           0042d685 f   SDL2:SDL2.dll
 0001:0002c68b       _SDL_LockSurface           0042d68b f   SDL2:SDL2.dll
 0001:0002c691       _SDL_UnlockSurface         0042d691 f   SDL2:SDL2.dll
 0001:0002c697       _SDL_CreateRGBSurface      0042d697 f   SDL2:SDL2.dll
 0001:0002c69d       _SDL_UpperBlit             0042d69d f   SDL2:SDL2.dll
 0001:0002c6a3       _SDL_FillRect              0042d6a3 f   SDL2:SDL2.dll
 0001:0002c6a9       _SDL_GetError              0042d6a9 f   SDL2:SDL2.dll
 0001:0002c6af       _SDL_CreateWindow          0042d6af f   SDL2:SDL2.dll
 0001:0002c6b5       _SDL_PollEvent             0042d6b5 f   SDL2:SDL2.dll
 0001:0002c6bb       _SDL_WaitEvent             0042d6bb f   SDL2:SDL2.dll
 0001:0002c6c1       _SDL_CreateRenderer        0042d6c1 f   SDL2:SDL2.dll
 0001:0002c6c7       _SDL_CreateTexture         0042d6c7 f   SDL2:SDL2.dll
 0001:0002c6cd       _SDL_UpdateTexture         0042d6cd f   SDL2:SDL2.dll
 0001:0002c6d3       _SDL_RenderCopy            0042d6d3 f   SDL2:SDL2.dll
 0001:0002c6d9       _SDL_RenderPresent         0042d6d9 f   SDL2:SDL2.dll
 0001:0002c6df       _SDL_GetTicks              0042d6df f   SDL2:SDL2.dll
 0001:0002c6e5       _SDL_Init                  0042d6e5 f   SDL2:SDL2.dll
 0001:0002c6eb       _SDL_Quit                  0042d6eb f   SDL2:SDL2.dll
 0001:0002c6f1       _SDL_SetClipRect           0042d6f1 f   SDL2:SDL2.dll
 0001:0002c6f7       _SDL_UpperBlitScaled       0042d6f7 f   SDL2:SDL2.dll
 0001:0002c6fd       _IMG_Load                  0042d6fd f   SDL2_image:SDL2_image.dll
 0001:0002c703       _TTF_RenderText_Solid      0042d703 f   SDL2_ttf:SDL2_ttf.dll
 0001:0002c709       _TTF_Init                  0042d709 f   SDL2_ttf:SDL2_ttf.dll
 0001:0002c70f       _TTF_Quit                  0042d70f f   SDL2_ttf:SDL2_ttf.dll
 0001:0002c715       _TTF_OpenFont              0042d715 f   SDL2_ttf:SDL2_ttf.dll
 0001:0002c71b       _TTF_CloseFont             0042d71b f   SDL2_ttf:SDL2_ttf.dll
 0001:0002c721       ??0_Lockit@std@@QAE@H@Z    0042d721 f   msvcprtd:MSVCP140D.dll
 0001:0002c727       ??1_Lockit@std@@QAE@XZ     0042d727 f   msvcprtd:MSVCP140D.dll
 0001:00036cb0       ___std_count_trivial_1@12  00437cb0 f   msvcprtd:vector_algorithms.obj
 0001:00036cd0       ___std_count_trivial_2@12  00437cd0 f   msvcprtd:vector_algorithms.obj
 0001:00036cf0       ___std_count_trivial_4@12  00437cf0 f   msvcprtd:vector_algorithms.obj
 0001:00036d10       ___std_count_trivial_8@16  00437d10 f   msvcprtd:vector_algorithms.obj
 0001:00036d40       ___std_find_trivial_1@12   00437d40 f   msvcprtd:vector_algorithms.obj
 0001:00036d60       ___std_find_trivial_2@12   00437d60 f   msvcprtd:vector_algorithms.obj
 0001:00036d80       ___std_find_trivial_4@12   00437d80 f   msvcprtd:vector_algorithms.obj
 0001:00036da0       ___std_find_trivial_8@16   00437da0 f   msvcprtd:vector_algorithms.obj
 0001:00036dd0       ___std_find_trivial_unsized_1@8 00437dd0 f   msvcprtd:vector_algorithms.obj
 0001:00036df0       ___std_find_trivial_unsized_2@8 00437df0 f   msvcprtd:vector_algorithms.obj
 0001:00036e10       ___std_find_trivial_unsized_4@8 00437e10 f   msvcprtd:vector_algorithms.obj
 0001:00036e30       ___std_find_trivial_unsized_8@12 00437e30 f   msvcprtd:vector_algorithms.obj
 0001:00036e50       ___std_max_element_1@12    00437e50 f   msvcprtd:vector_algorithms.obj
 0001:00036e70       ___std_max_element_2@12    00437e70 f   msvcprtd:vector_algorithms.obj
 0001:00036e90       ___std_max_element_4@12    00437e90 f   msvcprtd:vector_algorithms.obj
 0001:00036eb0       ___std_max_element_8@12    00437eb0 f   msvcprtd:vector_algorithms.obj
 0001:00036ed0       ___std_min_element_1@12    00437ed0 f   msvcprtd:vector_algorithms.obj
 0001:00036ef0       ___std_min_element_2@12    00437ef0 f   msvcprtd:vector_algorithms.obj
 0001:00036f10       ___std_min_element_4@12    00437f10 f   msvcprtd:vector_algorithms.obj
 0001:00036f30       ___std_min_element_8@12    00437f30 f   msvcprtd:vector_algorithms.obj
 0001:00036f50       ___std_minmax_element_1@12 00437f50 f   msvcprtd:vector_algorithms.obj
 0001:00036f90       ___std_minmax_element_2@12 00437f90 f   msvcprtd:vector_algorithms.obj
 0001:00036fd0       ___std_minmax_element_4@12 00437fd0 f   msvcprtd:vector_algorithms.obj
 0001:00037010       ___std_minmax_element_8@12 00438010 f   msvcprtd:vector_algorithms.obj
 0001:00037050       ___std_reverse_copy_trivially_copyable_1 00438050 f   msvcprtd:vector_algorithms.obj
 0001:000372d0       ___std_reverse_copy_trivially_copyable_2 004382d0 f   msvcprtd:vector_algorithms.obj
 0001:00037550       ___std_reverse_copy_trivially_copyable_4 00438550 f   msvcprtd:vector_algorithms.obj
 0001:00037780       ___std_reverse_copy_trivially_copyable_8 00438780 f   msvcprtd:vector_algorithms.obj
 0001:00037980       ___std_reverse_trivially_swappable_1 00438980 f   msvcprtd:vector_algorithms.obj
 0001:00037cf0       ___std_reverse_trivially_swappable_2 00438cf0 f   msvcprtd:vector_algorithms.obj
 0001:00038060       ___std_reverse_trivially_swappable_4 00439060 f   msvcprtd:vector_algorithms.obj
 0001:00038350       ___std_reverse_trivially_swappable_8 00439350 f   msvcprtd:vector_algorithms.obj
 0001:00038600       ___std_swap_ranges_trivially_swappable 00439600 f   msvcprtd:vector_algorithms.obj
 0001:00038630       ___std_swap_ranges_trivially_swappable_noalias 00439630 f   msvcprtd:vector_algorithms.obj
 0001:00038949       ?_Xlength_error@std@@YAXPBD@Z 00439949 f   msvcprtd:MSVCP140D.dll
 0001:0003894f       ?uncaught_exception@std@@YA_NXZ 0043994f f   msvcprtd:MSVCP140D.dll
 0001:00038955       ?good@ios_base@std@@QBE_NXZ 00439955 f   msvcprtd:MSVCP140D.dll
 0001:0003895b       ?flags@ios_base@std@@QBEHXZ 0043995b f   msvcprtd:MSVCP140D.dll
 0001:00038961       ?width@ios_base@std@@QBE_JXZ 00439961 f   msvcprtd:MSVCP140D.dll
 0001:00038967       ?width@ios_base@std@@QAE_J_J@Z 00439967 f   msvcprtd:MSVCP140D.dll
 0001:0003896d       ?sputc@?$basic_streambuf@DU?$char_traits@D@std@@@std@@QAEHD@Z 0043996d f   msvcprtd:MSVCP140D.dll
 0001:00038973       ?sputn@?$basic_streambuf@DU?$char_traits@D@std@@@std@@QAE_JPBD_J@Z 00439973 f   msvcprtd:MSVCP140D.dll
 0001:00038979       ?setstate@?$basic_ios@DU?$char_traits@D@std@@@std@@QAEXH_N@Z 00439979 f   msvcprtd:MSVCP140D.dll
 0001:0003897f       ?tie@?$basic_ios@DU?$char_traits@D@std@@@std@@QBEPAV?$basic_ostream@DU?$char_traits@D@std@@@2@XZ 0043997f f   msvcprtd:MSVCP140D.dll
 0001:00038985       ?rdbuf@?$basic_ios@DU?$char_traits@D@std@@@std@@QBEPAV?$basic_streambuf@DU?$char_traits@D@std@@@2@XZ 00439985 f   msvcprtd:MSVCP140D.dll
 0001:0003898b       ?fill@?$basic_ios@DU?$char_traits@D@std@@@std@@QBEDXZ 0043998b f   msvcprtd:MSVCP140D.dll
 0001:00038991       ?widen@?$basic_ios@DU?$char_traits@D@std@@@std@@QBEDD@Z 00439991 f   msvcprtd:MSVCP140D.dll
 0001:00038997       ?_Osfx@?$basic_ostream@DU?$char_traits@D@std@@@std@@QAEXXZ 00439997 f   msvcprtd:MSVCP140D.dll
 0001:0003899d       ??6?$basic_ostream@DU?$char_traits@D@std@@@std@@QAEAAV01@P6AAAV01@AAV01@@Z@Z 0043999d f   msvcprtd:MSVCP140D.dll
 0001:000389a3       ?put@?$basic_ostream@DU?$char_traits@D@std@@@std@@QAEAAV12@D@Z 004399a3 f   msvcprtd:MSVCP140D.dll
 0001:000389a9       ?flush@?$basic_ostream@DU?$char_traits@D@std@@@std@@QAEAAV12@XZ 004399a9 f   msvcprtd:MSVCP140D.dll
 0001:000389af       ?_Xout_of_range@std@@YAXPBD@Z 004399af f   msvcprtd:MSVCP140D.dll
 0001:000389c0       ??0_Fac_node@std@@QAE@PAU01@PAV_Facet_base@1@@Z 004399c0 f i msvcprtd:locale0_implib.obj
 0001:000389f0       ??1_Fac_node@std@@QAE@XZ   004399f0 f i msvcprtd:locale0_implib.obj
 0001:00038a70       ??1_Fac_tidy_reg_t@std@@QAE@XZ 00439a70 f i msvcprtd:locale0_implib.obj
 0001:00038ad0       ??2_Fac_node@std@@SAPAXI@Z 00439ad0 f i msvcprtd:locale0_implib.obj
 0001:00038b30       ??3_Fac_node@std@@SAXPAX@Z 00439b30 f i msvcprtd:locale0_implib.obj
 0001:00038b50       ??_G_Fac_node@std@@QAEPAXI@Z 00439b50 f i msvcprtd:locale0_implib.obj
 0001:00038bb0       ?_Facet_Register@std@@YAXPAV_Facet_base@1@@Z 00439bb0 f   msvcprtd:locale0_implib.obj
 0001:00038c60       ?__empty_global_delete@@YAXPAXIW4align_val_t@std@@@Z 00439c60 f i msvcprtd:locale0_implib.obj
 0001:00038c70       ?__empty_global_delete@@YAXPAXW4align_val_t@std@@@Z 00439c70 f i msvcprtd:locale0_implib.obj
 0001:00038c75       ??Bid@locale@std@@QAEIXZ   00439c75 f   msvcprtd:MSVCP140D.dll
 0001:00038c7b       ?_Getgloballocale@locale@std@@CAPAV_Locimp@12@XZ 00439c7b f   msvcprtd:MSVCP140D.dll
 0001:00038c81       ?always_noconv@codecvt_base@std@@QBE_NXZ 00439c81 f   msvcprtd:MSVCP140D.dll
 0001:00038c87       ?in@?$codecvt@DDU_Mbstatet@@@std@@QBEHAAU_Mbstatet@@PBD1AAPBDPAD3AAPAD@Z 00439c87 f   msvcprtd:MSVCP140D.dll
 0001:00038c8d       ?out@?$codecvt@DDU_Mbstatet@@@std@@QBEHAAU_Mbstatet@@PBD1AAPBDPAD3AAPAD@Z 00439c8d f   msvcprtd:MSVCP140D.dll
 0001:00038c93       ?unshift@?$codecvt@DDU_Mbstatet@@@std@@QBEHAAU_Mbstatet@@PAD1AAPAD@Z 00439c93 f   msvcprtd:MSVCP140D.dll
 0001:00038c99       ?_Getcat@?$codecvt@DDU_Mbstatet@@@std@@SAIPAPBVfacet@locale@2@PBV42@@Z 00439c99 f   msvcprtd:MSVCP140D.dll
 0001:00038c9f       ??Bios_base@std@@QBE_NXZ   00439c9f f   msvcprtd:MSVCP140D.dll
 0001:00038ca5       ??0?$basic_streambuf@DU?$char_traits@D@std@@@std@@IAE@XZ 00439ca5 f   msvcprtd:MSVCP140D.dll
 0001:00038cab       ??1?$basic_streambuf@DU?$char_traits@D@std@@@std@@UAE@XZ 00439cab f   msvcprtd:MSVCP140D.dll
 0001:00038cb1       ?getloc@?$basic_streambuf@DU?$char_traits@D@std@@@std@@QBE?AVlocale@2@XZ 00439cb1 f   msvcprtd:MSVCP140D.dll
 0001:00038cb7       ?sbumpc@?$basic_streambuf@DU?$char_traits@D@std@@@std@@QAEHXZ 00439cb7 f   msvcprtd:MSVCP140D.dll
 0001:00038cbd       ?sgetc@?$basic_streambuf@DU?$char_traits@D@std@@@std@@QAEHXZ 00439cbd f   msvcprtd:MSVCP140D.dll
 0001:00038cc3       ?snextc@?$basic_streambuf@DU?$char_traits@D@std@@@std@@QAEHXZ 00439cc3 f   msvcprtd:MSVCP140D.dll
 0001:00038cc9       ?eback@?$basic_streambuf@DU?$char_traits@D@std@@@std@@IBEPADXZ 00439cc9 f   msvcprtd:MSVCP140D.dll
 0001:00038ccf       ?gptr@?$basic_streambuf@DU?$char_traits@D@std@@@std@@IBEPADXZ 00439ccf f   msvcprtd:MSVCP140D.dll
 0001:00038cd5       ?pptr@?$basic_streambuf@DU?$char_traits@D@std@@@std@@IBEPADXZ 00439cd5 f   msvcprtd:MSVCP140D.dll
 0001:00038cdb       ?egptr@?$basic_streambuf@DU?$char_traits@D@std@@@std@@IBEPADXZ 00439cdb f   msvcprtd:MSVCP140D.dll
 0001:00038ce1       ?gbump@?$basic_streambuf@DU?$char_traits@D@std@@@std@@IAEXH@Z 00439ce1 f   msvcprtd:MSVCP140D.dll
 0001:00038ce7       ?setg@?$basic_streambuf@DU?$char_traits@D@std@@@std@@IAEXPAD00@Z 00439ce7 f   msvcprtd:MSVCP140D.dll
 0001:00038ced       ?epptr@?$basic_streambuf@DU?$char_traits@D@std@@@std@@IBEPADXZ 00439ced f   msvcprtd:MSVCP140D.dll
 0001:00038cf3       ?_Gndec@?$basic_streambuf@DU?$char_traits@D@std@@@std@@IAEPADXZ 00439cf3 f   msvcprtd:MSVCP140D.dll
 0001:00038cf9       ?_Gninc@?$basic_streambuf@DU?$char_traits@D@std@@@std@@IAEPADXZ 00439cf9 f   msvcprtd:MSVCP140D.dll
 0001:00038cff       ?_Gnavail@?$basic_streambuf@DU?$char_traits@D@std@@@std@@IBE_JXZ 00439cff f   msvcprtd:MSVCP140D.dll
 0001:00038d05       ?pbump@?$basic_streambuf@DU?$char_traits@D@std@@@std@@IAEXH@Z 00439d05 f   msvcprtd:MSVCP140D.dll
 0001:00038d0b       ?_Pninc@?$basic_streambuf@DU?$char_traits@D@std@@@std@@IAEPADXZ 00439d0b f   msvcprtd:MSVCP140D.dll
 0001:00038d11       ?_Pnavail@?$basic_streambuf@DU?$char_traits@D@std@@@std@@IBE_JXZ 00439d11 f   msvcprtd:MSVCP140D.dll
 0001:00038d17       ?_Init@?$basic_streambuf@DU?$char_traits@D@std@@@std@@IAEXXZ 00439d17 f   msvcprtd:MSVCP140D.dll
 0001:00038d1d       ?_Init@?$basic_streambuf@DU?$char_traits@D@std@@@std@@IAEXPAPAD0PAH001@Z 00439d1d f   msvcprtd:MSVCP140D.dll
 0001:00038d23       ?xsgetn@?$basic_streambuf@DU?$char_traits@D@std@@@std@@MAE_JPAD_J@Z 00439d23 f   msvcprtd:MSVCP140D.dll
 0001:00038d29       ?xsputn@?$basic_streambuf@DU?$char_traits@D@std@@@std@@MAE_JPBD_J@Z 00439d29 f   msvcprtd:MSVCP140D.dll
 0001:00038d2f       ??1?$basic_ios@DU?$char_traits@D@std@@@std@@UAE@XZ 00439d2f f   msvcprtd:MSVCP140D.dll
 0001:00038d35       ?clear@?$basic_ios@DU?$char_traits@D@std@@@std@@QAEXH_N@Z 00439d35 f   msvcprtd:MSVCP140D.dll
 0001:00038d3b       ??0?$basic_ios@DU?$char_traits@D@std@@@std@@IAE@XZ 00439d3b f   msvcprtd:MSVCP140D.dll
 0001:00038d41       ??0?$basic_ostream@DU?$char_traits@D@std@@@std@@QAE@PAV?$basic_streambuf@DU?$char_traits@D@std@@@1@_N@Z 00439d41 f   msvcprtd:MSVCP140D.dll
 0001:00038d47       ??1?$basic_ostream@DU?$char_traits@D@std@@@std@@UAE@XZ 00439d47 f   msvcprtd:MSVCP140D.dll
 0001:00038d4d       ??6?$basic_ostream@DU?$char_traits@D@std@@@std@@QAEAAV01@H@Z 00439d4d f   msvcprtd:MSVCP140D.dll
 0001:00038d53       ?_Ipfx@?$basic_istream@DU?$char_traits@D@std@@@std@@QAE_N_N@Z 00439d53 f   msvcprtd:MSVCP140D.dll
 0001:00038d59       ??0?$basic_iostream@DU?$char_traits@D@std@@@std@@QAE@PAV?$basic_streambuf@DU?$char_traits@D@std@@@1@@Z 00439d59 f   msvcprtd:MSVCP140D.dll
 0001:00038d5f       ??1?$basic_iostream@DU?$char_traits@D@std@@@std@@UAE@XZ 00439d5f f   msvcprtd:MSVCP140D.dll
 0001:00038d65       ?_Fiopen@std@@YAPAU_iobuf@@PBDHH@Z 00439d65 f   msvcprtd:MSVCP140D.dll
 0001:00038d6b       ?showmanyc@?$basic_streambuf@DU?$char_traits@D@std@@@std@@MAE_JXZ 00439d6b f   msvcprtd:MSVCP140D.dll
 0001:00038d71       ?_Xbad_alloc@std@@YAXXZ    00439d71 f   msvcprtd:MSVCP140D.dll
 0001:00039150       ?configure_argv@__scrt_narrow_argv_policy@@SAHXZ 0043a150 f i MSVCRTD:exe_main.obj
 0001:00039170       ?initialize_environment@__scrt_narrow_environment_policy@@SAHXZ 0043a170 f i MSVCRTD:exe_main.obj
 0001:000391d0       ?set_app_type@__scrt_main_policy@@SAXXZ 0043a1d0 f i MSVCRTD:exe_main.obj
 0001:000391f0       ?set_commode@__scrt_file_policy@@SAXXZ 0043a1f0 f i MSVCRTD:exe_main.obj
 0001:00039210       ?set_fmode@__scrt_file_policy@@SAXXZ 0043a210 f i MSVCRTD:exe_main.obj
 0001:00039230       _mainCRTStartup            0043a230 f   MSVCRTD:exe_main.obj
 0001:00039240       ??3@YAXPAXI@Z              0043a240 f   MSVCRTD:delete_scalar_size.obj
 0001:00039260       ??1type_info@@UAE@XZ       0043a260 f   MSVCRTD:std_type_info_static.obj
 0001:00039280       ??_Etype_info@@UAEPAXI@Z   0043a280 f i MSVCRTD:std_type_info_static.obj
 0001:00039280       ??_Gtype_info@@UAEPAXI@Z   0043a280 f i MSVCRTD:std_type_info_static.obj
 0001:000392c0       ??2@YAPAXI@Z               0043a2c0 f   MSVCRTD:new_scalar.obj
 0001:00039320       ??_V@YAXPAX@Z              0043a320 f   MSVCRTD:delete_array.obj
 0001:00039340       @__security_check_cookie@4 0043a340 f   MSVCRTD:secchk.obj
 0001:00039360       ??_U@YAPAXI@Z              0043a360 f   MSVCRTD:new_array.obj
 0001:000394c0       _NtCurrentTeb              0043a4c0 f i MSVCRTD:utility.obj
 0001:000394d0       ___scrt_acquire_startup_lock 0043a4d0 f   MSVCRTD:utility.obj
 0001:00039530       ___scrt_dllmain_after_initialize_c 0043a530 f   MSVCRTD:utility.obj
 0001:00039570       ___scrt_dllmain_before_initialize_c 0043a570 f   MSVCRTD:utility.obj
 0001:000395a0       ___scrt_dllmain_crt_thread_attach 0043a5a0 f   MSVCRTD:utility.obj
 0001:000395e0       ___scrt_dllmain_crt_thread_detach 0043a5e0 f   MSVCRTD:utility.obj
 0001:00039600       ___scrt_dllmain_exception_filter 0043a600 f   MSVCRTD:utility.obj
 0001:00039660       ___scrt_dllmain_uninitialize_c 0043a660 f   MSVCRTD:utility.obj
 0001:000396a0       ___scrt_dllmain_uninitialize_critical 0043a6a0 f   MSVCRTD:utility.obj
 0001:000396c0       ___scrt_initialize_crt     0043a6c0 f   MSVCRTD:utility.obj
 0001:00039720       ___scrt_initialize_onexit_tables 0043a720 f   MSVCRTD:utility.obj
 0001:00039830       ___scrt_is_nonwritable_in_current_image 0043a830 f   MSVCRTD:utility.obj
 0001:000399b0       ___scrt_release_startup_lock 0043a9b0 f   MSVCRTD:utility.obj
 0001:000399e0       ___scrt_uninitialize_crt   0043a9e0 f   MSVCRTD:utility.obj
 0001:00039a30       __onexit                   0043aa30 f   MSVCRTD:utility.obj
 0001:00039ab0       _at_quick_exit             0043aab0 f   MSVCRTD:utility.obj
 0001:00039b00       _atexit                    0043ab00 f   MSVCRTD:utility.obj
 0001:00039b40       __allmul                   0043ab40 f   MSVCRTD:llmul.obj
 0001:00039b90       __allshl                   0043ab90 f   MSVCRTD:llshl.obj
 0001:00039bc0       ___isa_available_init      0043abc0 f   MSVCRTD:cpu_disp.obj
 0001:00039fc0       @_guard_check_icall_nop@4  0043afc0 f i MSVCRTD:guard_support.obj
 0001:00039fd0       _ReadNoFence               0043afd0 f i MSVCRTD:guard_support.obj
 0001:00039ff0       _ReadPointerNoFence        0043aff0 f i MSVCRTD:guard_support.obj
 0001:0003a010       ___castguard_check_failure_debugbreak 0043b010 f i MSVCRTD:guard_support.obj
 0001:0003a030       ___castguard_check_failure_fastfail 0043b030 f i MSVCRTD:guard_support.obj
 0001:0003a060       ___castguard_check_failure_nop 0043b060 f i MSVCRTD:guard_support.obj
 0001:0003a070       ___castguard_check_failure_os_handled 0043b070 f i MSVCRTD:guard_support.obj
 0001:0003a120       ___castguard_slow_path_check_debugbreak 0043b120 f i MSVCRTD:guard_support.obj
 0001:0003a160       ___castguard_slow_path_check_fastfail 0043b160 f i MSVCRTD:guard_support.obj
 0001:0003a1b0       ___castguard_slow_path_check_nop 0043b1b0 f i MSVCRTD:guard_support.obj
 0001:0003a1c0       ___castguard_slow_path_check_os_handled 0043b1c0 f i MSVCRTD:guard_support.obj
 0001:0003a260       __guard_icall_checks_enforced 0043b260 f i MSVCRTD:guard_support.obj
 0001:0003a330       ___security_init_cookie    0043b330 f   MSVCRTD:gs_support.obj
 0001:0003a3d0       __matherr                  0043b3d0 f   MSVCRTD:matherr.obj
 0001:0003a3e0       __get_startup_argv_mode    0043b3e0 f   MSVCRTD:argv_mode.obj
 0001:0003a3f0       __get_startup_commit_mode  0043b3f0 f   MSVCRTD:commit_mode.obj
 0001:0003a400       __get_startup_file_mode    0043b400 f   MSVCRTD:file_mode.obj
 0001:0003a410       __get_startup_new_mode     0043b410 f   MSVCRTD:new_mode.obj
 0001:0003a420       __get_startup_thread_locale_mode 0043b420 f   MSVCRTD:thread_locale.obj
 0001:0003a430       ?__scrt_initialize_type_info@@YAXXZ 0043b430 f   MSVCRTD:tncleanup.obj
 0001:0003a450       ?__scrt_uninitialize_type_info@@YAXXZ 0043b450 f   MSVCRTD:tncleanup.obj
 0001:0003a470       __should_initialize_environment 0043b470 f   MSVCRTD:env_mode.obj
 0001:0003a480       __initialize_default_precision 0043b480 f   MSVCRTD:default_precision.obj
 0001:0003a4b0       __initialize_invalid_parameter_handler 0043b4b0 f   MSVCRTD:invalid_parameter_handler.obj
 0001:0003a4c0       __initialize_denormal_control 0043b4c0 f   MSVCRTD:denormal_control.obj
 0001:0003a4d0       ___local_stdio_scanf_options 0043b4d0 f i MSVCRTD:default_local_stdio_options.obj
 0001:0003a4e0       ___scrt_initialize_default_local_stdio_options 0043b4e0 f   MSVCRTD:default_local_stdio_options.obj
 0001:0003a530       ___scrt_is_user_matherr_present 0043b530 f   MSVCRTD:matherr_detection.obj
 0001:0003a560       ___scrt_get_dyn_tls_init_callback 0043b560 f   MSVCRTD:dyn_tls_init.obj
 0001:0003a570       ___scrt_get_dyn_tls_dtor_callback 0043b570 f   MSVCRTD:dyn_tls_dtor.obj
 0001:0003a580       ___scrt_fastfail           0043b580 f   MSVCRTD:utility_desktop.obj
 0001:0003a710       ___scrt_get_show_window_mode 0043b710 f   MSVCRTD:utility_desktop.obj
 0001:0003a760       ___scrt_initialize_mta     0043b760 f   MSVCRTD:utility_desktop.obj
 0001:0003a770       ___scrt_initialize_winrt   0043b770 f   MSVCRTD:utility_desktop.obj
 0001:0003a780       ___scrt_is_managed_app     0043b780 f   MSVCRTD:utility_desktop.obj
 0001:0003a830       ___scrt_set_unhandled_exception_filter 0043b830 f   MSVCRTD:utility_desktop.obj
 0001:0003a850       ___scrt_exe_initialize_mta 0043b850 f   MSVCRTD:utility_desktop.obj
 0001:0003a850       ___scrt_stub_for_initialize_mta 0043b850 f   MSVCRTD:utility_desktop.obj
 0001:0003a860       ___scrt_unhandled_exception_filter@4 0043b860 f   MSVCRTD:utility_desktop.obj
 0001:0003a900       __crt_debugger_hook        0043b900 f   MSVCRTD:utility_desktop.obj
 0001:0003a920       __RTC_Initialize           0043b920 f   MSVCRTD:initsect.obj
 0001:0003a960       __RTC_Terminate            0043b960 f   MSVCRTD:initsect.obj
 0001:0003a9a0       __except_handler4          0043b9a0 f   MSVCRTD:chandler4gs.obj
 0001:0003a9f0       ??3@YAXPAX@Z               0043b9f0 f   MSVCRTD:delete_scalar.obj
 0001:0003aa10       ??0bad_alloc@std@@QAE@XZ   0043ba10 f i MSVCRTD:throw_bad_alloc.obj
 0001:0003aa40       ?__scrt_throw_std_bad_alloc@@YAXXZ 0043ba40 f   MSVCRTD:throw_bad_alloc.obj
 0001:0003aa70       ?__scrt_throw_std_bad_array_new_length@@YAXXZ 0043ba70 f   MSVCRTD:throw_bad_alloc.obj
 0001:0003aaa0       ___raise_securityfailure   0043baa0 f   MSVCRTD:gs_report.obj
 0001:0003aae0       ___report_gsfailure        0043bae0 f   MSVCRTD:gs_report.obj
 0001:0003ac30       ___report_rangecheckfailure 0043bc30 f   MSVCRTD:gs_report.obj
 0001:0003ac40       ___report_securityfailure  0043bc40 f   MSVCRTD:gs_report.obj
 0001:0003ad50       ___report_securityfailureEx 0043bd50 f   MSVCRTD:gs_report.obj
 0001:0003aec0       ___scrt_is_ucrt_dll_in_use 0043bec0 f   MSVCRTD:ucrt_detection.obj
 0001:0003aeed       __purecall                 0043beed f   vcruntimed:VCRUNTIME140D.dll
 0001:0003aef3       _memcmp                    0043bef3 f   vcruntimed:VCRUNTIME140D.dll
 0001:0003aef9       _memcpy                    0043bef9 f   vcruntimed:VCRUNTIME140D.dll
 0001:0003aeff       _memmove                   0043beff f   vcruntimed:VCRUNTIME140D.dll
 0001:0003af05       ___std_exception_copy      0043bf05 f   vcruntimed:VCRUNTIME140D.dll
 0001:0003af0b       ___std_exception_destroy   0043bf0b f   vcruntimed:VCRUNTIME140D.dll
 0001:0003af11       __CxxThrowException@8      0043bf11 f   vcruntimed:VCRUNTIME140D.dll
 0001:0003af17       ___CxxFrameHandler3        0043bf17 f   vcruntimed:VCRUNTIME140D.dll
 0001:0003af1d       _memset                    0043bf1d f   vcruntimed:VCRUNTIME140D.dll
 0001:0003af23       ___std_type_info_destroy_list 0043bf23 f   vcruntimed:VCRUNTIME140D.dll
 0001:0003af29       ___current_exception       0043bf29 f   vcruntimed:VCRUNTIME140D.dll
 0001:0003af2f       ___current_exception_context 0043bf2f f   vcruntimed:VCRUNTIME140D.dll
 0001:0003af35       __except_handler4_common   0043bf35 f   vcruntimed:VCRUNTIME140D.dll
 0001:0003af3b       __invalid_parameter        0043bf3b f   ucrtd:ucrtbased.dll
 0001:0003af41       __CrtDbgReport             0043bf41 f   ucrtd:ucrtbased.dll
 0001:0003af47       _atan                      0043bf47 f   ucrtd:ucrtbased.dll
 0001:0003af4d       _cos                       0043bf4d f   ucrtd:ucrtbased.dll
 0001:0003af53       _sin                       0043bf53 f   ucrtd:ucrtbased.dll
 0001:0003af59       _sqrt                      0043bf59 f   ucrtd:ucrtbased.dll
 0001:0003af5f       ___acrt_iob_func           0043bf5f f   ucrtd:ucrtbased.dll
 0001:0003af65       ___stdio_common_vfprintf   0043bf65 f   ucrtd:ucrtbased.dll
 0001:0003af6b       _strlen                    0043bf6b f   ucrtd:ucrtbased.dll
 0001:0003af71       _rand                      0043bf71 f   ucrtd:ucrtbased.dll
 0001:0003af77       ___stdio_common_vsprintf   0043bf77 f   ucrtd:ucrtbased.dll
 0001:0003af7d       __CrtDumpMemoryLeaks       0043bf7d f   ucrtd:ucrtbased.dll
 0001:0003af83       _srand                     0043bf83 f   ucrtd:ucrtbased.dll
 0001:0003af89       __time64                   0043bf89 f   ucrtd:ucrtbased.dll
 0001:0003af8f       _puts                      0043bf8f f   ucrtd:ucrtbased.dll
 0001:0003af95       _strcmp                    0043bf95 f   ucrtd:ucrtbased.dll
 0001:0003af9b       _strcpy                    0043bf9b f   ucrtd:ucrtbased.dll
 0001:0003afa1       __get_stream_buffer_pointers 0043bfa1 f   ucrtd:ucrtbased.dll
 0001:0003afa7       _fclose                    0043bfa7 f   ucrtd:ucrtbased.dll
 0001:0003afad       _fflush                    0043bfad f   ucrtd:ucrtbased.dll
 0001:0003afb3       _fgetc                     0043bfb3 f   ucrtd:ucrtbased.dll
 0001:0003afb9       _fgetpos                   0043bfb9 f   ucrtd:ucrtbased.dll
 0001:0003afbf       _fputc                     0043bfbf f   ucrtd:ucrtbased.dll
 0001:0003afc5       _fread                     0043bfc5 f   ucrtd:ucrtbased.dll
 0001:0003afcb       _fsetpos                   0043bfcb f   ucrtd:ucrtbased.dll
 0001:0003afd1       __fseeki64                 0043bfd1 f   ucrtd:ucrtbased.dll
 0001:0003afd7       _fwrite                    0043bfd7 f   ucrtd:ucrtbased.dll
 0001:0003afdd       _setvbuf                   0043bfdd f   ucrtd:ucrtbased.dll
 0001:0003afe3       _ungetc                    0043bfe3 f   ucrtd:ucrtbased.dll
 0001:0003afe9       __lock_file                0043bfe9 f   ucrtd:ucrtbased.dll
 0001:0003afef       __unlock_file              0043bfef f   ucrtd:ucrtbased.dll
 0001:0003aff5       __free_dbg                 0043bff5 f   ucrtd:ucrtbased.dll
 0001:0003affb       __malloc_dbg               0043bffb f   ucrtd:ucrtbased.dll
 0001:0003b001       __seh_filter_exe           0043c001 f   ucrtd:ucrtbased.dll
 0001:0003b007       __set_app_type             0043c007 f   ucrtd:ucrtbased.dll
 0001:0003b00d       ___setusermatherr          0043c00d f   ucrtd:ucrtbased.dll
 0001:0003b013       __configure_narrow_argv    0043c013 f   ucrtd:ucrtbased.dll
 0001:0003b019       __initialize_narrow_environment 0043c019 f   ucrtd:ucrtbased.dll
 0001:0003b01f       __get_initial_narrow_environment 0043c01f f   ucrtd:ucrtbased.dll
 0001:0003b025       __initterm                 0043c025 f   ucrtd:ucrtbased.dll
 0001:0003b02b       __initterm_e               0043c02b f   ucrtd:ucrtbased.dll
 0001:0003b031       _exit                      0043c031 f   ucrtd:ucrtbased.dll
 0001:0003b037       __exit                     0043c037 f   ucrtd:ucrtbased.dll
 0001:0003b03d       __set_fmode                0043c03d f   ucrtd:ucrtbased.dll
 0001:0003b043       ___p___argc                0043c043 f   ucrtd:ucrtbased.dll
 0001:0003b049       ___p___argv                0043c049 f   ucrtd:ucrtbased.dll
 0001:0003b04f       __cexit                    0043c04f f   ucrtd:ucrtbased.dll
 0001:0003b055       __c_exit                   0043c055 f   ucrtd:ucrtbased.dll
 0001:0003b05b       __register_thread_local_exe_atexit_callback 0043c05b f   ucrtd:ucrtbased.dll
 0001:0003b061       __configthreadlocale       0043c061 f   ucrtd:ucrtbased.dll
 0001:0003b067       __set_new_mode             0043c067 f   ucrtd:ucrtbased.dll
 0001:0003b06d       ___p__commode              0043c06d f   ucrtd:ucrtbased.dll
 0001:0003b073       __callnewh                 0043c073 f   ucrtd:ucrtbased.dll
 0001:0003b079       _malloc                    0043c079 f   ucrtd:ucrtbased.dll
 0001:0003b07f       __seh_filter_dll           0043c07f f   ucrtd:ucrtbased.dll
 0001:0003b085       __initialize_onexit_table  0043c085 f   ucrtd:ucrtbased.dll
 0001:0003b08b       __register_onexit_function 0043c08b f   ucrtd:ucrtbased.dll
 0001:0003b091       __execute_onexit_table     0043c091 f   ucrtd:ucrtbased.dll
 0001:0003b097       __crt_atexit               0043c097 f   ucrtd:ucrtbased.dll
 0001:0003b09d       __crt_at_quick_exit        0043c09d f   ucrtd:ucrtbased.dll
 0001:0003b0a3       __controlfp_s              0043c0a3 f   ucrtd:ucrtbased.dll
 0001:0003b0a9       _terminate                 0043c0a9 f   ucrtd:ucrtbased.dll
 0001:0003b1f0       _WinMain@16                0043c1f0 f   SDL2main:SDL_windows_main.obj
 0001:0003b200       _main                      0043c200 f   SDL2main:SDL_windows_main.obj
 0001:0003b350       _wmain                     0043c350 f   SDL2main:SDL_windows_main.obj
 0001:0003b355       _IsProcessorFeaturePresent@4 0043c355 f   kernel32:KERNEL32.dll
 0001:0003b35b       _QueryPerformanceCounter@4 0043c35b f   kernel32:KERNEL32.dll
 0001:0003b361       _GetCurrentProcessId@0     0043c361 f   kernel32:KERNEL32.dll
 0001:0003b367       _GetCurrentThreadId@0      0043c367 f   kernel32:KERNEL32.dll
 0001:0003b36d       _GetSystemTimeAsFileTime@4 0043c36d f   kernel32:KERNEL32.dll
 0001:0003b373       _InitializeSListHead@4     0043c373 f   kernel32:KERNEL32.dll
 0001:0003b379       _IsDebuggerPresent@0       0043c379 f   kernel32:KERNEL32.dll
 0001:0003b37f       _UnhandledExceptionFilter@4 0043c37f f   kernel32:KERNEL32.dll
 0001:0003b385       _SetUnhandledExceptionFilter@4 0043c385 f   kernel32:KERNEL32.dll
 0001:0003b38b       _GetStartupInfoW@4         0043c38b f   kernel32:KERNEL32.dll
 0001:0003b391       _GetModuleHandleW@4        0043c391 f   kernel32:KERNEL32.dll
 0001:0003b397       _GetCurrentProcess@0       0043c397 f   kernel32:KERNEL32.dll
 0001:0003b39d       _TerminateProcess@8        0043c39d f   kernel32:KERNEL32.dll
 0001:0003b3a3       _GetCommandLineW@0         0043c3a3 f   kernel32:KERNEL32.dll
 0001:0003b3a9       _VirtualAlloc@16           0043c3a9 f   kernel32:KERNEL32.dll
 0001:0003b3af       _VirtualFree@12            0043c3af f   kernel32:KERNEL32.dll
 0001:0003b3b5       _WideCharToMultiByte@32    0043c3b5 f   kernel32:KERNEL32.dll
 0001:0003b3bb       _SDL_SetMainReady          0043c3bb f   SDL2:SDL2.dll
 0001:0003b3c1       _SDL_ShowSimpleMessageBox  0043c3c1 f   SDL2:SDL2.dll
 0001:0003b3d0       ___acrt_initialize         0043c3d0 f   MSVCRTD:ucrt_stubs.obj
 0001:0003b3d0       ___scrt_stub_for_acrt_initialize 0043c3d0 f   MSVCRTD:ucrt_stubs.obj
 0001:0003b3d0       ___vcrt_initialize         0043c3d0 f   MSVCRTD:ucrt_stubs.obj
 0001:0003b3e0       ___acrt_thread_attach      0043c3e0 f   MSVCRTD:ucrt_stubs.obj
 0001:0003b3e0       ___scrt_stub_for_acrt_thread_attach 0043c3e0 f   MSVCRTD:ucrt_stubs.obj
 0001:0003b3e0       ___vcrt_thread_attach      0043c3e0 f   MSVCRTD:ucrt_stubs.obj
 0001:0003b3f0       ___acrt_thread_detach      0043c3f0 f   MSVCRTD:ucrt_stubs.obj
 0001:0003b3f0       ___scrt_stub_for_acrt_thread_detach 0043c3f0 f   MSVCRTD:ucrt_stubs.obj
 0001:0003b3f0       ___vcrt_thread_detach      0043c3f0 f   MSVCRTD:ucrt_stubs.obj
 0001:0003b400       ___acrt_uninitialize       0043c400 f   MSVCRTD:ucrt_stubs.obj
 0001:0003b400       ___scrt_stub_for_acrt_uninitialize 0043c400 f   MSVCRTD:ucrt_stubs.obj
 0001:0003b400       ___vcrt_uninitialize       0043c400 f   MSVCRTD:ucrt_stubs.obj
 0001:0003b410       ___acrt_uninitialize_critical 0043c410 f   MSVCRTD:ucrt_stubs.obj
 0001:0003b410       ___scrt_stub_for_acrt_uninitialize_critical 0043c410 f   MSVCRTD:ucrt_stubs.obj
 0001:0003b410       ___vcrt_uninitialize_critical 0043c410 f   MSVCRTD:ucrt_stubs.obj
 0001:0003b420       ___scrt_stub_for_is_c_termination_complete 0043c420 f   MSVCRTD:ucrt_stubs.obj
 0001:0003b420       __is_c_termination_complete 0043c420 f   MSVCRTD:ucrt_stubs.obj
 0001:0003b430       __filter_x86_sse2_floating_point_exception 0043c430 f   MSVCRTD:x86_exception_filter.obj
 0001:0003b430       __filter_x86_sse2_floating_point_exception_default 0043c430 f   MSVCRTD:x86_exception_filter.obj
 0002:00000000       ___xc_a                    00443000     MSVCRTD:initializers.obj
 0002:0000030c       ___xc_z                    0044330c     MSVCRTD:initializers.obj
 0002:00000410       ___xi_a                    00443410     MSVCRTD:initializers.obj
 0002:0000071c       ___xi_z                    0044371c     MSVCRTD:initializers.obj
 0002:00000820       ___xp_a                    00443820     MSVCRTD:initializers.obj
 0002:00000924       ___xp_z                    00443924     MSVCRTD:initializers.obj
 0002:00000a28       ___xt_a                    00443a28     MSVCRTD:initializers.obj
 0002:00000b2c       ___xt_z                    00443b2c     MSVCRTD:initializers.obj
 0002:00001054       ??_C@_02DKCKIIND@?$CFs@    00444054     Ball.obj
 0002:00001058       ??_C@_11LOCGONAA@@         00444058     Ball.obj
 0002:00001060       ??_7DisplayableObject@@6B@ 00444060     Ball.obj
 0002:000010a4       ??_7ImagePixelMapping@@6B@ 004440a4     Ball.obj
 0002:000010b4       ??_7ImagePixelMappingRotate@@6B@ 004440b4     Ball.obj
 0002:000010c4       ??_7ImagePixelMappingRotateAndColour@@6B@ 004440c4     Ball.obj
 0002:000010d8       ??_7ObjectMapper@@6B@      004440d8     Ball.obj
 0002:000010ec       ??_7GameObject@@6B@        004440ec     Ball.obj
 0002:00001138       ??_C@_0GC@DIPBGCKN@C?3?2Program?5Files?2Microsoft?5Visu@ 00444138     Ball.obj
 0002:000011b0       ??_C@_1ME@FPLDIAPH@?$AAC?$AA?3?$AA?2?$AAP?$AAr?$AAo?$AAg?$AAr?$AAa?$AAm?$AA?5?$AAF?$AAi?$AAl?$AAe@ 004441b0     Ball.obj
 0002:0000129c       ??_C@_0BO@PFKOHNJC@vector?5subscript?5out?5of?5range@ 0044429c     Ball.obj
 0002:000012c0       ??_C@_1EA@LEKOKFNB@?$AA?$CC?$AAv?$AAe?$AAc?$AAt?$AAo?$AAr?$AA?5?$AAs?$AAu?$AAb?$AAs?$AAc?$AAr?$AAi@ 004442c0     Ball.obj
 0002:00001310       __real@0000000000000000    00444310     Ball.obj
 0002:00001320       __real@3f1a36e2eb1c432d    00444320     Ball.obj
 0002:00001330       __real@3fe0000000000000    00444330     Ball.obj
 0002:00001340       __real@400921fb54442d18    00444340     Ball.obj
 0002:00001350       __real@4059000000000000    00444350     Ball.obj
 0002:00001360       __real@406fe00000000000    00444360     Ball.obj
 0002:00001c78       ??_7exception@std@@6B@     00444c78     Rock.obj
 0002:00001c84       ??_C@_0BC@EOODALEL@Unknown?5exception@ 00444c84     Rock.obj
 0002:00001ca0       ??_7bad_alloc@std@@6B@     00444ca0     Rock.obj
 0002:00001cb0       ??_7bad_array_new_length@std@@6B@ 00444cb0     Rock.obj
 0002:00001cbc       ??_C@_0BF@KINCDENJ@bad?5array?5new?5length@ 00444cbc     Rock.obj
 0002:00001cd8       ??_C@_0BB@FCMFBGOM@invalid?5argument@ 00444cd8     Rock.obj
 0002:00001cf0       ??_C@_0GD@MLGOKGDD@C?3?2Program?5Files?2Microsoft?5Visu@ 00444cf0     Rock.obj
 0002:00001d68       ??_C@_1MG@IHCPKDKA@?$AAC?$AA?3?$AA?2?$AAP?$AAr?$AAo?$AAg?$AAr?$AAa?$AAm?$AA?5?$AAF?$AAi?$AAl?$AAe@ 00444d68     Rock.obj
 0002:00001e58       ??_C@_1CG@JNLFBNGN@?$AA?$CC?$AAi?$AAn?$AAv?$AAa?$AAl?$AAi?$AAd?$AA?5?$AAa?$AAr?$AAg?$AAu?$AAm?$AAe@ 00444e58     Rock.obj
 0002:00001e88       ??_C@_0BJ@LFDBABJJ@ITERATOR?5LIST?5CORRUPTED?$CB@ 00444e88     Rock.obj
 0002:00001ea8       ??_C@_1DG@PLBPCAEM@?$AA?$CC?$AAI?$AAT?$AAE?$AAR?$AAA?$AAT?$AAO?$AAR?$AA?5?$AAL?$AAI?$AAS?$AAT?$AA?5@ 00444ea8     Rock.obj
 0002:00001ee8       ??_C@_0BA@JFNIOLAK@string?5too?5long@ 00444ee8     Rock.obj
 0002:00001efc       ??_C@_0BB@GCADKGJO@map?1set?5too?5long@ 00444efc     Rock.obj
 0002:00001f10       ??_C@_0DC@BNOGMHFL@Error?5creating?5surface?5in?5RawIm@ 00444f10     Rock.obj
 0002:00001f4c       ??_C@_0BD@IFIGDDIC@?7?7?$CL?$CL?$CL?5Load?5image?3?5@ 00444f4c     Rock.obj
 0002:00001f64       ??_C@_0DJ@OJEPJEDH@ImageManager?3?3getImagePtrbyURL?$CI@ 00444f64     Rock.obj
 0002:00001fa8       ??_C@_0BJ@LOCNEGOL@Failed?5to?5load?5image?5?$CFs?6@ 00444fa8     Rock.obj
 0002:00001fc8       ??_C@_0CE@EAMOGAIE@vector?5erase?5iterator?5outside?5r@ 00444fc8     Rock.obj
 0002:00001ff8       ??_C@_1EM@BEMPOGMM@?$AA?$CC?$AAv?$AAe?$AAc?$AAt?$AAo?$AAr?$AA?5?$AAe?$AAr?$AAa?$AAs?$AAe?$AA?5?$AAi@ 00444ff8     Rock.obj
 0002:00002054       ??_C@_0BP@OLDKBHLM@map?1set?5iterators?5incompatible@ 00445054     Rock.obj
 0002:00002080       ??_C@_0GB@PPIPLHMH@C?3?2Program?5Files?2Microsoft?5Visu@ 00445080     Rock.obj
 0002:000020f8       ??_C@_1MC@EFKACGGM@?$AAC?$AA?3?$AA?2?$AAP?$AAr?$AAo?$AAg?$AAr?$AAa?$AAm?$AA?5?$AAF?$AAi?$AAl?$AAe@ 004450f8     Rock.obj
 0002:000021e0       ??_C@_1EC@JLIDLCDH@?$AA?$CC?$AAm?$AAa?$AAp?$AA?1?$AAs?$AAe?$AAt?$AA?5?$AAi?$AAt?$AAe?$AAr?$AAa?$AAt@ 004451e0     Rock.obj
 0002:00002230       ??_C@_0DG@LCFNIIPB@cannot?5dereference?5value?9initia@ 00445230     Rock.obj
 0002:00002270       ??_C@_1HA@ILGCNILF@?$AA?$CC?$AAc?$AAa?$AAn?$AAn?$AAo?$AAt?$AA?5?$AAd?$AAe?$AAr?$AAe?$AAf?$AAe?$AAr@ 00445270     Rock.obj
 0002:000022f8       ??_C@_0CI@OKFEHCEB@cannot?5dereference?5end?5map?1set?5@ 004452f8     Rock.obj
 0002:00002328       ??_C@_1FE@NKHAAGMB@?$AA?$CC?$AAc?$AAa?$AAn?$AAn?$AAo?$AAt?$AA?5?$AAd?$AAe?$AAr?$AAe?$AAf?$AAe?$AAr@ 00445328     Rock.obj
 0002:0000238c       ??_C@_0BO@CAOBBIOC@vector?5iterators?5incompatible@ 0044538c     Rock.obj
 0002:000023b0       ??_C@_1EA@DJDGNIII@?$AA?$CC?$AAv?$AAe?$AAc?$AAt?$AAo?$AAr?$AA?5?$AAi?$AAt?$AAe?$AAr?$AAa?$AAt?$AAo@ 004453b0     Rock.obj
 0002:000023fc       ??_C@_0DG@KGHKKGBC@null?5pointer?5cannot?5point?5to?5a?5@ 004453fc     Rock.obj
 0002:00002440       ??_C@_1HA@FACCKGGH@?$AA?$CC?$AAn?$AAu?$AAl?$AAl?$AA?5?$AAp?$AAo?$AAi?$AAn?$AAt?$AAe?$AAr?$AA?5?$AAc@ 00445440     Rock.obj
 0002:000024c8       ??_C@_0DA@GGPHOHEL@map?1set?5erase?5iterator?5from?5inc@ 004454c8     Rock.obj
 0002:00002508       ??_C@_1GE@FENJBJJO@?$AA?$CC?$AAm?$AAa?$AAp?$AA?1?$AAs?$AAe?$AAt?$AA?5?$AAe?$AAr?$AAa?$AAs?$AAe?$AA?5@ 00445508     Rock.obj
 0002:00002580       ??_C@_0CE@JAJNKOFK@cannot?5erase?5map?1set?5end?$CI?$CJ?5iter@ 00445580     Rock.obj
 0002:000025b0       ??_C@_1EM@MEAEPHLP@?$AA?$CC?$AAc?$AAa?$AAn?$AAn?$AAo?$AAt?$AA?5?$AAe?$AAr?$AAa?$AAs?$AAe?$AA?5?$AAm@ 004455b0     Rock.obj
 0002:00002610       ??_7?$_Ref_count@VRawImageData@@@std@@6B@ 00445610     Rock.obj
 0002:00002628       ??_C@_0GE@HMOAALOA@C?3?2Program?5Files?2Microsoft?5Visu@ 00445628     Rock.obj
 0002:000026a0       ??_C@_1MI@OMBIOEJG@?$AAC?$AA?3?$AA?2?$AAP?$AAr?$AAo?$AAg?$AAr?$AAa?$AAm?$AA?5?$AAF?$AAi?$AAl?$AAe@ 004456a0     Rock.obj
 0002:00002790       ??_C@_0DI@PBEELKIF@vector?5iterators?5in?5range?5are?5f@ 00445790     Rock.obj
 0002:000027d8       ??_C@_1HE@KBMFDAFB@?$AA?$CC?$AAv?$AAe?$AAc?$AAt?$AAo?$AAr?$AA?5?$AAi?$AAt?$AAe?$AAr?$AAa?$AAt?$AAo@ 004457d8     Rock.obj
 0002:00002864       ??_C@_0CB@LIAHLBAO@vector?5iterator?5range?5transpose@ 00445864     Rock.obj
 0002:00002890       ??_C@_1EG@ODKBEHFN@?$AA?$CC?$AAv?$AAe?$AAc?$AAt?$AAo?$AAr?$AA?5?$AAi?$AAt?$AAe?$AAr?$AAa?$AAt?$AAo@ 00445890     Rock.obj
 0002:000028e4       ??_C@_0BD@FEEMDEPI@invalid?5comparator@ 004458e4     Rock.obj
 0002:000028fc       ??_C@_1CK@NDNHPKPI@?$AA?$CC?$AAi?$AAn?$AAv?$AAa?$AAl?$AAi?$AAd?$AA?5?$AAc?$AAo?$AAm?$AAp?$AAa?$AAr@ 004458fc     Rock.obj
 0002:00002d5c       ??_C@_0CN@GHCLOPHF@Error?5in?5setting?5pixel?9?5should?5@ 00445d5c     DraggingDemo.obj
 0002:00002d98       ??_C@_0JM@GIEKPEHN@WARNING?3?5Attempted?5write?5to?5sur@ 00445d98     DraggingDemo.obj
 0002:00002e58       ??_7DragableBaseClassObject@@6B@ 00445e58     DraggingDemo.obj
 0002:00002eb0       ??_7DragableObject@@6B@    00445eb0     DraggingDemo.obj
 0002:00002f08       ??_7DragableImageObject@@6B@ 00445f08     DraggingDemo.obj
 0002:00002f60       ??_7ImageObject@@6B@       00445f60     DraggingDemo.obj
 0002:00002fa0       ??_C@_0BA@FOIKENOD@vector?5too?5long@ 00445fa0     DraggingDemo.obj
 0002:00003148       ?MY_PI@DrawingSurface@@2NB 00446148     DrawingSurface.obj
 0002:000033d8       ??_C@_0LN@HOLHFHJI@WARNING?3?5Attempted?5blit?5to?5lock@ 004463d8     DrawingSurface.obj
 0002:000034c0       __real@3fe0c152382d7365    004464c0     DrawingSurface.obj
 0002:000034d0       __real@3ff0000000000000    004464d0     DrawingSurface.obj
 0002:000034e0       __real@3ff8000000000000    004464e0     DrawingSurface.obj
 0002:000034f0       __real@3ff921fb54442d18    004464f0     DrawingSurface.obj
 0002:00003500       __real@4000000000000000    00446500     DrawingSurface.obj
 0002:00003510       __real@4008000000000000    00446510     DrawingSurface.obj
 0002:00003520       __real@400f6a7a2955385e    00446520     DrawingSurface.obj
 0002:00003530       __real@4010000000000000    00446530     DrawingSurface.obj
 0002:00003540       __real@401921fb54442d18    00446540     DrawingSurface.obj
 0002:000039bc       ??_C@_0BI@PJHAPDF@vector?5empty?5before?5pop@ 004469bc     End.obj
 0002:000039d8       ??_C@_1DE@IPIBMNGD@?$AA?$CC?$AAv?$AAe?$AAc?$AAt?$AAo?$AAr?$AA?5?$AAe?$AAm?$AAp?$AAt?$AAy?$AA?5?$AAb@ 004469d8     End.obj
 0002:00003a18       ??_C@_0BJ@DHFDPMIM@invalid?5vector?5subscript@ 00446a18     End.obj
 0002:00003e50       ??_7FlashingDemo@@6BDisplayableObjectContainer@@@ 00446e50     FlashingDemo.obj
 0002:00003efc       ??_7FlashingDemo@@6BFilterPoints@@@ 00446efc     FlashingDemo.obj
 0002:0000478c       ??_7MappableImageObject@@6B@ 0044778c     ImageMappingDemo.obj
 0002:000047e0       __real@c059000000000000    004477e0     ImageMappingDemo.obj
 0002:00004c38       ??_7FilterPoints@@6B@      00447c38     mainfunction.obj
 0002:00004c54       ??_7FilterScaling@@6B@     00447c54     mainfunction.obj
 0002:00004c70       ??_7FilterTranslation@@6B@ 00447c70     mainfunction.obj
 0002:00004c8c       ??_7Psyew3Engine@@6BDisplayableObjectContainer@@@ 00447c8c     mainfunction.obj
 0002:00004d38       ??_7Psyew3Engine@@6BFilterPoints@@@ 00447d38     mainfunction.obj
 0002:000051bc       ??_7DisplayableObjectContainer@@6B@ 004481bc     BaseEngine.obj
 0002:000051cc       ??_7BaseEngine@@6BDisplayableObjectContainer@@@ 004481cc     BaseEngine.obj
 0002:00005278       ??_7BaseEngine@@6BFilterPoints@@@ 00448278     BaseEngine.obj
 0002:00005290       ??_C@_0DE@CHADHGFF@can?8t?5dereference?5value?9initial@ 00448290     BaseEngine.obj
 0002:000052d0       ??_C@_1GM@FNBFNBEL@?$AA?$CC?$AAc?$AAa?$AAn?$AA?8?$AAt?$AA?5?$AAd?$AAe?$AAr?$AAe?$AAf?$AAe?$AAr?$AAe@ 004482d0     BaseEngine.obj
 0002:00005354       ??_C@_0CP@MDHADBHN@can?8t?5dereference?5out?5of?5range?5@ 00448354     BaseEngine.obj
 0002:00005390       ??_C@_1GC@JDCKOLAC@?$AA?$CC?$AAc?$AAa?$AAn?$AA?8?$AAt?$AA?5?$AAd?$AAe?$AAr?$AAe?$AAf?$AAe?$AAr?$AAe@ 00448390     BaseEngine.obj
 0002:00005408       ??_C@_0DC@KEKNBAEB@can?8t?5increment?5value?9initializ@ 00448408     BaseEngine.obj
 0002:00005448       ??_C@_1GI@EDCILPL@?$AA?$CC?$AAc?$AAa?$AAn?$AA?8?$AAt?$AA?5?$AAi?$AAn?$AAc?$AAr?$AAe?$AAm?$AAe?$AAn@ 00448448     BaseEngine.obj
 0002:000054c4       ??_C@_0CJ@OAAAAGPM@can?8t?5increment?5vector?5iterator@ 004484c4     BaseEngine.obj
 0002:000054f8       ??_C@_1FG@LDPPKMGP@?$AA?$CC?$AAc?$AAa?$AAn?$AA?8?$AAt?$AA?5?$AAi?$AAn?$AAc?$AAr?$AAe?$AAm?$AAe?$AAn@ 004484f8     BaseEngine.obj
 0002:00005be8       ??_C@_0BI@GMOFELCF@Free?5font?3?5?$CFd?5point?5?$CFs?6@ 00448be8     FontManager.obj
 0002:00006fc4       ??_7bad_cast@std@@6B@      00449fc4     Psyew3Engine.obj
 0002:00006fd0       ??_C@_08EPJLHIJG@bad?5cast@ 00449fd0     Psyew3Engine.obj
 0002:00006fe0       ??_7TileManager@@6B@       00449fe0     Psyew3Engine.obj
 0002:00006ff0       ??_7Psyew3TileManager@@6B@ 00449ff0     Psyew3Engine.obj
 0002:00006ffc       ??_C@_0M@LNGGLFF@racket1?4png@ 00449ffc     Psyew3Engine.obj
 0002:0000700c       ??_C@_0BE@JMCGHDJO@racket_selected?4png@ 0044a00c     Psyew3Engine.obj
 0002:00007024       ??_C@_0M@INECBJPL@racket2?4png@ 0044a024     Psyew3Engine.obj
 0002:00007034       ??_C@_0BF@IJKAALNN@selected_racket2?4png@ 0044a034     Psyew3Engine.obj
 0002:00007050       ??_C@_0O@IOPJIJDN@skin_ball?4png@ 0044a050     Psyew3Engine.obj
 0002:00007060       ??_C@_0BD@MMLAPPBO@selected_ball1?4png@ 0044a060     Psyew3Engine.obj
 0002:00007078       ??_C@_0P@EHAKAFFD@ball2_skin?4png@ 0044a078     Psyew3Engine.obj
 0002:0000708c       ??_C@_0BD@EKCEINLA@selected_ball2?4png@ 0044a08c     Psyew3Engine.obj
 0002:000070a8       ??_7State@@6B@             0044a0a8     Psyew3Engine.obj
 0002:000070b8       ??_7Menu@@6B@              0044a0b8     Psyew3Engine.obj
 0002:000070c8       ??_7Ball@@6B@              0044a0c8     Psyew3Engine.obj
 0002:00007110       ??_C@_0BA@GABCMJLB@tennis_ball?4png@ 0044a110     Psyew3Engine.obj
 0002:00007124       ??_C@_0N@DHKLNAGH@hit_ball?4png@ 0044a124     Psyew3Engine.obj
 0002:00007138       ??_7Racket@@6B@            0044a138     Psyew3Engine.obj
 0002:00007184       ??_7Rock@@6B@              0044a184     Psyew3Engine.obj
 0002:000071cc       ??_C@_08GLDODBEH@rock?4png@ 0044a1cc     Psyew3Engine.obj
 0002:000071dc       ??_7Play@@6B@              0044a1dc     Psyew3Engine.obj
 0002:000071e8       ??_C@_0BF@JHLHPMPP@space_background?4PNG@ 0044a1e8     Psyew3Engine.obj
 0002:00007208       ??_7Pause@@6B@             0044a208     Psyew3Engine.obj
 0002:00007214       ??_C@_0BF@JKEMDBID@space_background?4png@ 0044a214     Psyew3Engine.obj
 0002:00007234       ??_7End@@6B@               0044a234     Psyew3Engine.obj
 0002:00007244       ??_7Leaderboard@@6B@       0044a244     Psyew3Engine.obj
 0002:00007254       ??_7?$basic_filebuf@DU?$char_traits@D@std@@@std@@6B@ 0044a254     Psyew3Engine.obj
 0002:000072a0       ??_7?$basic_ofstream@DU?$char_traits@D@std@@@std@@6B@ 0044a2a0     Psyew3Engine.obj
 0002:000072a8       ??_8?$basic_ofstream@DU?$char_traits@D@std@@@std@@7B@ 0044a2a8     Psyew3Engine.obj
 0002:000072b8       ??_7?$basic_fstream@DU?$char_traits@D@std@@@std@@6B@ 0044a2b8     Psyew3Engine.obj
 0002:000072c0       ??_8?$basic_fstream@DU?$char_traits@D@std@@@std@@7B?$basic_istream@DU?$char_traits@D@std@@@1@@ 0044a2c0     Psyew3Engine.obj
 0002:000072cc       ??_8?$basic_fstream@DU?$char_traits@D@std@@@std@@7B?$basic_ostream@DU?$char_traits@D@std@@@1@@ 0044a2cc     Psyew3Engine.obj
 0002:000072d8       ??_C@_0GD@DCKDKKNK@C?3?2Program?5Files?2Microsoft?5Visu@ 0044a2d8     Psyew3Engine.obj
 0002:00007350       ??_C@_1MG@GJKDFKHB@?$AAC?$AA?3?$AA?2?$AAP?$AAr?$AAo?$AAg?$AAr?$AAa?$AAm?$AA?5?$AAF?$AAi?$AAl?$AAe@ 0044a350     Psyew3Engine.obj
 0002:00007440       ??_C@_0BP@PFIPNLNI@front?$CI?$CJ?5called?5on?5empty?5string@ 0044a440     Psyew3Engine.obj
 0002:00007468       ??_C@_1EC@DINNLDHA@?$AA?$CC?$AAf?$AAr?$AAo?$AAn?$AAt?$AA?$CI?$AA?$CJ?$AA?5?$AAc?$AAa?$AAl?$AAl?$AAe?$AAd@ 0044a468     Psyew3Engine.obj
 0002:000074b8       ??_C@_0BI@CFPLBAOH@invalid?5string?5position@ 0044a4b8     Psyew3Engine.obj
 0002:00007d10       __real@bff921fb54442d18    0044ad10     Racket.obj
 0002:00008370       ??_7CroppedImagePixelMapping@@6B@ 0044b370     SimpleImage.obj
 0002:0000884c       ??_7BouncingObject@@6B@    0044b84c     SimpleDemo.obj
 0002:00008890       __real@3f747ae147ae147b    0044b890     SimpleDemo.obj
 0002:000088a0       __real@4004000000000000    0044b8a0     SimpleDemo.obj
 0002:000088b0       __real@400c000000000000    0044b8b0     SimpleDemo.obj
 0002:000088c0       __real@4069000000000000    0044b8c0     SimpleDemo.obj
 0002:000088d0       __real@4072c00000000000    0044b8d0     SimpleDemo.obj
 0002:000088e0       __xmm@80000000000000008000000000000000 0044b8e0     SimpleDemo.obj
 0002:00008d10       ??_7StarfieldDemo@@6BDisplayableObjectContainer@@@ 0044bd10     StarfieldDemo.obj
 0002:00008dbc       ??_7StarfieldDemo@@6BFilterPoints@@@ 0044bdbc     StarfieldDemo.obj
 0002:00009850       ??_7BouncingBall@@6B@      0044c850     BouncingBall.obj
 0002:00009894       ??_7BouncingBall1@@6B@     0044c894     BouncingBall.obj
 0002:000098d8       ??_7BouncingBall2@@6B@     0044c8d8     BouncingBall.obj
 0002:00009918       __real@3f847ae147ae147b    0044c918     BouncingBall.obj
 0002:00009d78       __real@3fe999999999999a    0044cd78     BouncingBallMain.obj
 0002:00009d88       __real@3ff199999999999a    0044cd88     BouncingBallMain.obj
 0002:00009d98       __real@3ff3333333333333    0044cd98     BouncingBallMain.obj
 0002:00009da8       __real@4049000000000000    0044cda8     BouncingBallMain.obj
 0002:00009db8       __real@4062c00000000000    0044cdb8     BouncingBallMain.obj
 0002:00009dc8       __real@4066800000000000    0044cdc8     BouncingBallMain.obj
 0002:00009dd8       __real@406f400000000000    0044cdd8     BouncingBallMain.obj
 0002:00009de8       __real@4071300000000000    0044cde8     BouncingBallMain.obj
 0002:00009df8       __real@4074500000000000    0044cdf8     BouncingBallMain.obj
 0002:00009e08       __real@4075e00000000000    0044ce08     BouncingBallMain.obj
 0002:00009e18       __real@4077700000000000    0044ce18     BouncingBallMain.obj
 0002:00009e28       __real@4079000000000000    0044ce28     BouncingBallMain.obj
 0002:00009e38       __real@4079a00000000000    0044ce38     BouncingBallMain.obj
 0002:00009e48       __real@407c200000000000    0044ce48     BouncingBallMain.obj
 0002:00009e58       __real@407f400000000000    0044ce58     BouncingBallMain.obj
 0002:00009e68       __real@4081300000000000    0044ce68     BouncingBallMain.obj
 0002:00009e78       __real@4082c00000000000    0044ce78     BouncingBallMain.obj
 0002:00009e88       __real@4084500000000000    0044ce88     BouncingBallMain.obj
 0002:00009e98       __real@4087700000000000    0044ce98     BouncingBallMain.obj
 0002:0000a35c       ??_7SimpleFlashingDragableImageObject@@6B@ 0044d35c     ZoomingDemo.obj
 0002:0000a950       ??_7MazeDemoTileManager@@6B@ 0044d950     MazeDemoMain.obj
 0002:0000a960       ??_7MazeDemoMain@@6BDisplayableObjectContainer@@@ 0044d960     MazeDemoMain.obj
 0002:0000aa0c       ??_7MazeDemoMain@@6BFilterPoints@@@ 0044da0c     MazeDemoMain.obj
 0002:0000ae40       ??_7MazeDemoObject@@6B@    0044de40     MazeDemoObject.obj
 0002:0000b370       __xmm@00000000000000010000000000000001 0044e370     msvcprtd:vector_algorithms.obj
 0002:0000b390       __xmm@00000001000000010000000100000001 0044e390     msvcprtd:vector_algorithms.obj
 0002:0000b3b0       __xmm@00010001000100010001000100010001 0044e3b0     msvcprtd:vector_algorithms.obj
 0002:0000b3d0       __xmm@000102030405060708090a0b0c0d0e0f 0044e3d0     msvcprtd:vector_algorithms.obj
 0002:0000b3f0       __xmm@010003020504070609080b0a0d0c0f0e 0044e3f0     msvcprtd:vector_algorithms.obj
 0002:0000b410       __xmm@01010101010101010101010101010101 0044e410     msvcprtd:vector_algorithms.obj
 0002:0000b430       __xmm@0d0c0f0e09080b0a0504070601000302 0044e430     msvcprtd:vector_algorithms.obj
 0002:0000b450       __xmm@0e0f0c0d0a0b08090607040502030001 0044e450     msvcprtd:vector_algorithms.obj
 0002:0000b470       __xmm@ffffffffffffffffffffffffffffffff 0044e470     msvcprtd:vector_algorithms.obj
 0002:0000b4a0       __ymm@0000000000000001000000020000000300000004000000050000000600000007 0044e4a0     msvcprtd:vector_algorithms.obj
 0002:0000b4e0       __ymm@000102030405060708090a0b0c0d0e0f000102030405060708090a0b0c0d0e0f 0044e4e0     msvcprtd:vector_algorithms.obj
 0002:0000b520       __ymm@010003020504070609080b0a0d0c0f0e010003020504070609080b0a0d0c0f0e 0044e520     msvcprtd:vector_algorithms.obj
 0002:0000b548       ??_C@_0DK@PCBCHJKC@D?3?2a?2_work?21?2s?2src?2vctools?2crt?2@ 0044e548     msvcprtd:locale0_implib.obj
 0002:0000b594       ??_7type_info@@6B@         0044e594     MSVCRTD:std_type_info_static.obj
 0002:0000b59c       ??_C@_0P@GHFPNOJB@bad?5allocation@ 0044e59c     MSVCRTD:throw_bad_alloc.obj
 0002:0000b5bc       ??_C@_0BJ@HFNMHALN@Out?5of?5memory?5?9?5aborting@ 0044e5bc     SDL2main:SDL_windows_main.obj
 0002:0000b5dc       ??_C@_0M@HFFOIJBL@Fatal?5Error@ 0044e5dc     SDL2main:SDL_windows_main.obj
 0002:0000b5f0       __load_config_used         0044e5f0     MSVCRTD:loadcfg.obj
 0002:0000b980       ___CastGuardVftablesStart  0044e980     MSVCRTD:guard_support.obj
 0002:0000bb00       ___CastGuardVftablesEnd    0044eb00     MSVCRTD:guard_support.obj
 0002:0000bc4c       ??_R4DisplayableObject@@6B@ 0044ec4c     Ball.obj
 0002:0000bc64       ??_R3DisplayableObject@@8  0044ec64     Ball.obj
 0002:0000bc78       ??_R2DisplayableObject@@8  0044ec78     Ball.obj
 0002:0000bc80       ??_R1A@?0A@EA@DisplayableObject@@8 0044ec80     Ball.obj
 0002:0000bca4       ??_R4ImagePixelMapping@@6B@ 0044eca4     Ball.obj
 0002:0000bcbc       ??_R3ImagePixelMapping@@8  0044ecbc     Ball.obj
 0002:0000bcd0       ??_R2ImagePixelMapping@@8  0044ecd0     Ball.obj
 0002:0000bcd8       ??_R1A@?0A@EA@ImagePixelMapping@@8 0044ecd8     Ball.obj
 0002:0000bcfc       ??_R4ImagePixelMappingRotate@@6B@ 0044ecfc     Ball.obj
 0002:0000bd14       ??_R3ImagePixelMappingRotate@@8 0044ed14     Ball.obj
 0002:0000bd28       ??_R2ImagePixelMappingRotate@@8 0044ed28     Ball.obj
 0002:0000bd34       ??_R1A@?0A@EA@ImagePixelMappingRotate@@8 0044ed34     Ball.obj
 0002:0000bd58       ??_R4ImagePixelMappingRotateAndColour@@6B@ 0044ed58     Ball.obj
 0002:0000bd70       ??_R3ImagePixelMappingRotateAndColour@@8 0044ed70     Ball.obj
 0002:0000bd84       ??_R2ImagePixelMappingRotateAndColour@@8 0044ed84     Ball.obj
 0002:0000bd94       ??_R1A@?0A@EA@ImagePixelMappingRotateAndColour@@8 0044ed94     Ball.obj
 0002:0000bdb8       ??_R4ObjectMapper@@6B@     0044edb8     Ball.obj
 0002:0000bdd0       ??_R3ObjectMapper@@8       0044edd0     Ball.obj
 0002:0000bde4       ??_R2ObjectMapper@@8       0044ede4     Ball.obj
 0002:0000bdf8       ??_R1A@?0A@EA@ObjectMapper@@8 0044edf8     Ball.obj
 0002:0000be1c       ??_R4GameObject@@6B@       0044ee1c     Ball.obj
 0002:0000be34       ??_R3GameObject@@8         0044ee34     Ball.obj
 0002:0000be48       ??_R2GameObject@@8         0044ee48     Ball.obj
 0002:0000be54       ??_R1A@?0A@EA@GameObject@@8 0044ee54     Ball.obj
 0002:0000be78       ??_R4exception@std@@6B@    0044ee78     Rock.obj
 0002:0000be90       ??_R3exception@std@@8      0044ee90     Rock.obj
 0002:0000bea4       ??_R2exception@std@@8      0044eea4     Rock.obj
 0002:0000beac       ??_R1A@?0A@EA@exception@std@@8 0044eeac     Rock.obj
 0002:0000bed0       ??_R4bad_alloc@std@@6B@    0044eed0     Rock.obj
 0002:0000bee8       ??_R3bad_alloc@std@@8      0044eee8     Rock.obj
 0002:0000befc       ??_R2bad_alloc@std@@8      0044eefc     Rock.obj
 0002:0000bf08       ??_R1A@?0A@EA@bad_alloc@std@@8 0044ef08     Rock.obj
 0002:0000bf2c       ??_R4bad_array_new_length@std@@6B@ 0044ef2c     Rock.obj
 0002:0000bf44       ??_R3bad_array_new_length@std@@8 0044ef44     Rock.obj
 0002:0000bf58       ??_R2bad_array_new_length@std@@8 0044ef58     Rock.obj
 0002:0000bf68       ??_R1A@?0A@EA@bad_array_new_length@std@@8 0044ef68     Rock.obj
 0002:0000bf8c       ??_R3_Ref_count_base@std@@8 0044ef8c     Rock.obj
 0002:0000bfa0       ??_R2_Ref_count_base@std@@8 0044efa0     Rock.obj
 0002:0000bfa8       ??_R1A@?0A@EA@_Ref_count_base@std@@8 0044efa8     Rock.obj
 0002:0000bfcc       ??_R4?$_Ref_count@VRawImageData@@@std@@6B@ 0044efcc     Rock.obj
 0002:0000bfe4       ??_R3?$_Ref_count@VRawImageData@@@std@@8 0044efe4     Rock.obj
 0002:0000bff8       ??_R2?$_Ref_count@VRawImageData@@@std@@8 0044eff8     Rock.obj
 0002:0000c004       ??_R1A@?0A@EA@?$_Ref_count@VRawImageData@@@std@@8 0044f004     Rock.obj
 0002:0000c028       ??_R4DragableBaseClassObject@@6B@ 0044f028     DraggingDemo.obj
 0002:0000c040       ??_R3DragableBaseClassObject@@8 0044f040     DraggingDemo.obj
 0002:0000c054       ??_R2DragableBaseClassObject@@8 0044f054     DraggingDemo.obj
 0002:0000c060       ??_R1A@?0A@EA@DragableBaseClassObject@@8 0044f060     DraggingDemo.obj
 0002:0000c084       ??_R4DragableObject@@6B@   0044f084     DraggingDemo.obj
 0002:0000c09c       ??_R3DragableObject@@8     0044f09c     DraggingDemo.obj
 0002:0000c0b0       ??_R2DragableObject@@8     0044f0b0     DraggingDemo.obj
 0002:0000c0c0       ??_R1A@?0A@EA@DragableObject@@8 0044f0c0     DraggingDemo.obj
 0002:0000c0e4       ??_R4DragableImageObject@@6B@ 0044f0e4     DraggingDemo.obj
 0002:0000c0fc       ??_R3DragableImageObject@@8 0044f0fc     DraggingDemo.obj
 0002:0000c110       ??_R2DragableImageObject@@8 0044f110     DraggingDemo.obj
 0002:0000c120       ??_R1A@?0A@EA@DragableImageObject@@8 0044f120     DraggingDemo.obj
 0002:0000c144       ??_R4ImageObject@@6B@      0044f144     DraggingDemo.obj
 0002:0000c15c       ??_R3ImageObject@@8        0044f15c     DraggingDemo.obj
 0002:0000c170       ??_R2ImageObject@@8        0044f170     DraggingDemo.obj
 0002:0000c17c       ??_R1A@?0A@EA@ImageObject@@8 0044f17c     DraggingDemo.obj
 0002:0000c1a0       ??_R3DisplayableObjectContainer@@8 0044f1a0     FlashingDemo.obj
 0002:0000c1b4       ??_R2DisplayableObjectContainer@@8 0044f1b4     FlashingDemo.obj
 0002:0000c1bc       ??_R1A@?0A@EA@DisplayableObjectContainer@@8 0044f1bc     FlashingDemo.obj
 0002:0000c1e0       ??_R4FlashingDemo@@6BDisplayableObjectContainer@@@ 0044f1e0     FlashingDemo.obj
 0002:0000c1f8       ??_R3FlashingDemo@@8       0044f1f8     FlashingDemo.obj
 0002:0000c20c       ??_R2FlashingDemo@@8       0044f20c     FlashingDemo.obj
 0002:0000c220       ??_R1A@?0A@EA@FlashingDemo@@8 0044f220     FlashingDemo.obj
 0002:0000c244       ??_R1A@?0A@EA@BaseEngine@@8 0044f244     FlashingDemo.obj
 0002:0000c268       ??_R3BaseEngine@@8         0044f268     FlashingDemo.obj
 0002:0000c27c       ??_R2BaseEngine@@8         0044f27c     FlashingDemo.obj
 0002:0000c28c       ??_R1BM@?0A@EA@FilterPoints@@8 0044f28c     FlashingDemo.obj
 0002:0000c2b0       ??_R3FilterPoints@@8       0044f2b0     FlashingDemo.obj
 0002:0000c2c4       ??_R2FilterPoints@@8       0044f2c4     FlashingDemo.obj
 0002:0000c2cc       ??_R1A@?0A@EA@FilterPoints@@8 0044f2cc     FlashingDemo.obj
 0002:0000c2f0       ??_R4FlashingDemo@@6BFilterPoints@@@ 0044f2f0     FlashingDemo.obj
 0002:0000c308       ??_R4MappableImageObject@@6B@ 0044f308     ImageMappingDemo.obj
 0002:0000c320       ??_R3MappableImageObject@@8 0044f320     ImageMappingDemo.obj
 0002:0000c334       ??_R2MappableImageObject@@8 0044f334     ImageMappingDemo.obj
 0002:0000c348       ??_R1A@?0A@EA@MappableImageObject@@8 0044f348     ImageMappingDemo.obj
 0002:0000c36c       ??_R4FilterPoints@@6B@     0044f36c     mainfunction.obj
 0002:0000c384       ??_R4FilterScaling@@6B@    0044f384     mainfunction.obj
 0002:0000c39c       ??_R3FilterScaling@@8      0044f39c     mainfunction.obj
 0002:0000c3b0       ??_R2FilterScaling@@8      0044f3b0     mainfunction.obj
 0002:0000c3bc       ??_R1A@?0A@EA@FilterScaling@@8 0044f3bc     mainfunction.obj
 0002:0000c3e0       ??_R4FilterTranslation@@6B@ 0044f3e0     mainfunction.obj
 0002:0000c3f8       ??_R3FilterTranslation@@8  0044f3f8     mainfunction.obj
 0002:0000c40c       ??_R2FilterTranslation@@8  0044f40c     mainfunction.obj
 0002:0000c418       ??_R1A@?0A@EA@FilterTranslation@@8 0044f418     mainfunction.obj
 0002:0000c43c       ??_R4Psyew3Engine@@6BDisplayableObjectContainer@@@ 0044f43c     mainfunction.obj
 0002:0000c454       ??_R3Psyew3Engine@@8       0044f454     mainfunction.obj
 0002:0000c468       ??_R2Psyew3Engine@@8       0044f468     mainfunction.obj
 0002:0000c47c       ??_R1A@?0A@EA@Psyew3Engine@@8 0044f47c     mainfunction.obj
 0002:0000c4a0       ??_R4Psyew3Engine@@6BFilterPoints@@@ 0044f4a0     mainfunction.obj
 0002:0000c4b8       ??_R4BaseEngine@@6BDisplayableObjectContainer@@@ 0044f4b8     BaseEngine.obj
 0002:0000c4d0       ??_R4BaseEngine@@6BFilterPoints@@@ 0044f4d0     BaseEngine.obj
 0002:0000c4e8       ??_R4DisplayableObjectContainer@@6B@ 0044f4e8     BaseEngine.obj
 0002:0000c500       ??_R4?$basic_filebuf@DU?$char_traits@D@std@@@std@@6B@ 0044f500     Psyew3Engine.obj
 0002:0000c518       ??_R3?$basic_filebuf@DU?$char_traits@D@std@@@std@@8 0044f518     Psyew3Engine.obj
 0002:0000c52c       ??_R2?$basic_filebuf@DU?$char_traits@D@std@@@std@@8 0044f52c     Psyew3Engine.obj
 0002:0000c538       ??_R1A@?0A@EA@?$basic_filebuf@DU?$char_traits@D@std@@@std@@8 0044f538     Psyew3Engine.obj
 0002:0000c55c       ??_R1A@?0A@EA@?$basic_streambuf@DU?$char_traits@D@std@@@std@@8 0044f55c     Psyew3Engine.obj
 0002:0000c580       ??_R3?$basic_streambuf@DU?$char_traits@D@std@@@std@@8 0044f580     Psyew3Engine.obj
 0002:0000c594       ??_R2?$basic_streambuf@DU?$char_traits@D@std@@@std@@8 0044f594     Psyew3Engine.obj
 0002:0000c59c       ??_R4?$basic_ofstream@DU?$char_traits@D@std@@@std@@6B@ 0044f59c     Psyew3Engine.obj
 0002:0000c5b4       ??_R3?$basic_ofstream@DU?$char_traits@D@std@@@std@@8 0044f5b4     Psyew3Engine.obj
 0002:0000c5c8       ??_R2?$basic_ofstream@DU?$char_traits@D@std@@@std@@8 0044f5c8     Psyew3Engine.obj
 0002:0000c5e4       ??_R1A@?0A@EA@?$basic_ofstream@DU?$char_traits@D@std@@@std@@8 0044f5e4     Psyew3Engine.obj
 0002:0000c608       ??_R1A@?0A@EA@?$basic_ostream@DU?$char_traits@D@std@@@std@@8 0044f608     Psyew3Engine.obj
 0002:0000c62c       ??_R3?$basic_ostream@DU?$char_traits@D@std@@@std@@8 0044f62c     Psyew3Engine.obj
 0002:0000c640       ??_R2?$basic_ostream@DU?$char_traits@D@std@@@std@@8 0044f640     Psyew3Engine.obj
 0002:0000c654       ??_R1A@A@3FA@?$basic_ios@DU?$char_traits@D@std@@@std@@8 0044f654     Psyew3Engine.obj
 0002:0000c678       ??_R3?$basic_ios@DU?$char_traits@D@std@@@std@@8 0044f678     Psyew3Engine.obj
 0002:0000c68c       ??_R2?$basic_ios@DU?$char_traits@D@std@@@std@@8 0044f68c     Psyew3Engine.obj
 0002:0000c69c       ??_R1A@?0A@EA@?$basic_ios@DU?$char_traits@D@std@@@std@@8 0044f69c     Psyew3Engine.obj
 0002:0000c6c0       ??_R1A@?0A@EA@ios_base@std@@8 0044f6c0     Psyew3Engine.obj
 0002:0000c6e4       ??_R3ios_base@std@@8       0044f6e4     Psyew3Engine.obj
 0002:0000c6f8       ??_R2ios_base@std@@8       0044f6f8     Psyew3Engine.obj
 0002:0000c704       ??_R17?0A@EA@?$_Iosb@H@std@@8 0044f704     Psyew3Engine.obj
 0002:0000c728       ??_R3?$_Iosb@H@std@@8      0044f728     Psyew3Engine.obj
 0002:0000c73c       ??_R2?$_Iosb@H@std@@8      0044f73c     Psyew3Engine.obj
 0002:0000c744       ??_R1A@?0A@EA@?$_Iosb@H@std@@8 0044f744     Psyew3Engine.obj
 0002:0000c768       ??_R1A@A@3EA@ios_base@std@@8 0044f768     Psyew3Engine.obj
 0002:0000c78c       ??_R17A@3EA@?$_Iosb@H@std@@8 0044f78c     Psyew3Engine.obj
 0002:0000c7b0       ??_R4?$basic_fstream@DU?$char_traits@D@std@@@std@@6B@ 0044f7b0     Psyew3Engine.obj
 0002:0000c7c8       ??_R3?$basic_fstream@DU?$char_traits@D@std@@@std@@8 0044f7c8     Psyew3Engine.obj
 0002:0000c7dc       ??_R2?$basic_fstream@DU?$char_traits@D@std@@@std@@8 0044f7dc     Psyew3Engine.obj
 0002:0000c810       ??_R1A@?0A@EA@?$basic_fstream@DU?$char_traits@D@std@@@std@@8 0044f810     Psyew3Engine.obj
 0002:0000c834       ??_R1A@?0A@EA@?$basic_iostream@DU?$char_traits@D@std@@@std@@8 0044f834     Psyew3Engine.obj
 0002:0000c858       ??_R3?$basic_iostream@DU?$char_traits@D@std@@@std@@8 0044f858     Psyew3Engine.obj
 0002:0000c86c       ??_R2?$basic_iostream@DU?$char_traits@D@std@@@std@@8 0044f86c     Psyew3Engine.obj
 0002:0000c898       ??_R1A@?0A@EA@?$basic_istream@DU?$char_traits@D@std@@@std@@8 0044f898     Psyew3Engine.obj
 0002:0000c8bc       ??_R3?$basic_istream@DU?$char_traits@D@std@@@std@@8 0044f8bc     Psyew3Engine.obj
 0002:0000c8d0       ??_R2?$basic_istream@DU?$char_traits@D@std@@@std@@8 0044f8d0     Psyew3Engine.obj
 0002:0000c8e4       ??_R1BA@?0A@EA@?$basic_ostream@DU?$char_traits@D@std@@@std@@8 0044f8e4     Psyew3Engine.obj
 0002:0000c908       ??_R4bad_cast@std@@6B@     0044f908     Psyew3Engine.obj
 0002:0000c920       ??_R3bad_cast@std@@8       0044f920     Psyew3Engine.obj
 0002:0000c934       ??_R2bad_cast@std@@8       0044f934     Psyew3Engine.obj
 0002:0000c940       ??_R1A@?0A@EA@bad_cast@std@@8 0044f940     Psyew3Engine.obj
 0002:0000c964       ??_R4TileManager@@6B@      0044f964     Psyew3Engine.obj
 0002:0000c97c       ??_R3TileManager@@8        0044f97c     Psyew3Engine.obj
 0002:0000c990       ??_R2TileManager@@8        0044f990     Psyew3Engine.obj
 0002:0000c998       ??_R1A@?0A@EA@TileManager@@8 0044f998     Psyew3Engine.obj
 0002:0000c9bc       ??_R4Psyew3TileManager@@6B@ 0044f9bc     Psyew3Engine.obj
 0002:0000c9d4       ??_R3Psyew3TileManager@@8  0044f9d4     Psyew3Engine.obj
 0002:0000c9e8       ??_R2Psyew3TileManager@@8  0044f9e8     Psyew3Engine.obj
 0002:0000c9f4       ??_R1A@?0A@EA@Psyew3TileManager@@8 0044f9f4     Psyew3Engine.obj
 0002:0000ca18       ??_R4State@@6B@            0044fa18     Psyew3Engine.obj
 0002:0000ca30       ??_R3State@@8              0044fa30     Psyew3Engine.obj
 0002:0000ca44       ??_R2State@@8              0044fa44     Psyew3Engine.obj
 0002:0000ca4c       ??_R1A@?0A@EA@State@@8     0044fa4c     Psyew3Engine.obj
 0002:0000ca70       ??_R4Menu@@6B@             0044fa70     Psyew3Engine.obj
 0002:0000ca88       ??_R3Menu@@8               0044fa88     Psyew3Engine.obj
 0002:0000ca9c       ??_R2Menu@@8               0044fa9c     Psyew3Engine.obj
 0002:0000caa8       ??_R1A@?0A@EA@Menu@@8      0044faa8     Psyew3Engine.obj
 0002:0000cacc       ??_R4Ball@@6B@             0044facc     Psyew3Engine.obj
 0002:0000cae4       ??_R3Ball@@8               0044fae4     Psyew3Engine.obj
 0002:0000caf8       ??_R2Ball@@8               0044faf8     Psyew3Engine.obj
 0002:0000cb08       ??_R1A@?0A@EA@Ball@@8      0044fb08     Psyew3Engine.obj
 0002:0000cb2c       ??_R4Racket@@6B@           0044fb2c     Psyew3Engine.obj
 0002:0000cb44       ??_R3Racket@@8             0044fb44     Psyew3Engine.obj
 0002:0000cb58       ??_R2Racket@@8             0044fb58     Psyew3Engine.obj
 0002:0000cb68       ??_R1A@?0A@EA@Racket@@8    0044fb68     Psyew3Engine.obj
 0002:0000cb8c       ??_R4Rock@@6B@             0044fb8c     Psyew3Engine.obj
 0002:0000cba4       ??_R3Rock@@8               0044fba4     Psyew3Engine.obj
 0002:0000cbb8       ??_R2Rock@@8               0044fbb8     Psyew3Engine.obj
 0002:0000cbc8       ??_R1A@?0A@EA@Rock@@8      0044fbc8     Psyew3Engine.obj
 0002:0000cbec       ??_R4Play@@6B@             0044fbec     Psyew3Engine.obj
 0002:0000cc04       ??_R3Play@@8               0044fc04     Psyew3Engine.obj
 0002:0000cc18       ??_R2Play@@8               0044fc18     Psyew3Engine.obj
 0002:0000cc24       ??_R1A@?0A@EA@Play@@8      0044fc24     Psyew3Engine.obj
 0002:0000cc48       ??_R4Pause@@6B@            0044fc48     Psyew3Engine.obj
 0002:0000cc60       ??_R3Pause@@8              0044fc60     Psyew3Engine.obj
 0002:0000cc74       ??_R2Pause@@8              0044fc74     Psyew3Engine.obj
 0002:0000cc80       ??_R1A@?0A@EA@Pause@@8     0044fc80     Psyew3Engine.obj
 0002:0000cca4       ??_R4End@@6B@              0044fca4     Psyew3Engine.obj
 0002:0000ccbc       ??_R3End@@8                0044fcbc     Psyew3Engine.obj
 0002:0000ccd0       ??_R2End@@8                0044fcd0     Psyew3Engine.obj
 0002:0000ccdc       ??_R1A@?0A@EA@End@@8       0044fcdc     Psyew3Engine.obj
 0002:0000cd00       ??_R4Leaderboard@@6B@      0044fd00     Psyew3Engine.obj
 0002:0000cd18       ??_R3Leaderboard@@8        0044fd18     Psyew3Engine.obj
 0002:0000cd2c       ??_R2Leaderboard@@8        0044fd2c     Psyew3Engine.obj
 0002:0000cd38       ??_R1A@?0A@EA@Leaderboard@@8 0044fd38     Psyew3Engine.obj
 0002:0000cd5c       ??_R4CroppedImagePixelMapping@@6B@ 0044fd5c     SimpleImage.obj
 0002:0000cd74       ??_R3CroppedImagePixelMapping@@8 0044fd74     SimpleImage.obj
 0002:0000cd88       ??_R2CroppedImagePixelMapping@@8 0044fd88     SimpleImage.obj
 0002:0000cd94       ??_R1A@?0A@EA@CroppedImagePixelMapping@@8 0044fd94     SimpleImage.obj
 0002:0000cdb8       ??_R4BouncingObject@@6B@   0044fdb8     SimpleDemo.obj
 0002:0000cdd0       ??_R3BouncingObject@@8     0044fdd0     SimpleDemo.obj
 0002:0000cde4       ??_R2BouncingObject@@8     0044fde4     SimpleDemo.obj
 0002:0000cdf0       ??_R1A@?0A@EA@BouncingObject@@8 0044fdf0     SimpleDemo.obj
 0002:0000ce14       ??_R4StarfieldDemo@@6BDisplayableObjectContainer@@@ 0044fe14     StarfieldDemo.obj
 0002:0000ce2c       ??_R3StarfieldDemo@@8      0044fe2c     StarfieldDemo.obj
 0002:0000ce40       ??_R2StarfieldDemo@@8      0044fe40     StarfieldDemo.obj
 0002:0000ce54       ??_R1A@?0A@EA@StarfieldDemo@@8 0044fe54     StarfieldDemo.obj
 0002:0000ce78       ??_R4StarfieldDemo@@6BFilterPoints@@@ 0044fe78     StarfieldDemo.obj
 0002:0000ce90       ??_R4BouncingBall@@6B@     0044fe90     BouncingBall.obj
 0002:0000cea8       ??_R3BouncingBall@@8       0044fea8     BouncingBall.obj
 0002:0000cebc       ??_R2BouncingBall@@8       0044febc     BouncingBall.obj
 0002:0000cec8       ??_R1A@?0A@EA@BouncingBall@@8 0044fec8     BouncingBall.obj
 0002:0000ceec       ??_R4BouncingBall1@@6B@    0044feec     BouncingBall.obj
 0002:0000cf04       ??_R3BouncingBall1@@8      0044ff04     BouncingBall.obj
 0002:0000cf18       ??_R2BouncingBall1@@8      0044ff18     BouncingBall.obj
 0002:0000cf28       ??_R1A@?0A@EA@BouncingBall1@@8 0044ff28     BouncingBall.obj
 0002:0000cf4c       ??_R4BouncingBall2@@6B@    0044ff4c     BouncingBall.obj
 0002:0000cf64       ??_R3BouncingBall2@@8      0044ff64     BouncingBall.obj
 0002:0000cf78       ??_R2BouncingBall2@@8      0044ff78     BouncingBall.obj
 0002:0000cf88       ??_R1A@?0A@EA@BouncingBall2@@8 0044ff88     BouncingBall.obj
 0002:0000cfac       ??_R4SimpleFlashingDragableImageObject@@6B@ 0044ffac     ZoomingDemo.obj
 0002:0000cfc4       ??_R3SimpleFlashingDragableImageObject@@8 0044ffc4     ZoomingDemo.obj
 0002:0000cfd8       ??_R2SimpleFlashingDragableImageObject@@8 0044ffd8     ZoomingDemo.obj
 0002:0000cfe4       ??_R1A@?0A@EA@SimpleFlashingDragableImageObject@@8 0044ffe4     ZoomingDemo.obj
 0002:0000d008       ??_R4MazeDemoMain@@6BDisplayableObjectContainer@@@ 00450008     MazeDemoMain.obj
 0002:0000d020       ??_R3MazeDemoMain@@8       00450020     MazeDemoMain.obj
 0002:0000d034       ??_R2MazeDemoMain@@8       00450034     MazeDemoMain.obj
 0002:0000d048       ??_R1A@?0A@EA@MazeDemoMain@@8 00450048     MazeDemoMain.obj
 0002:0000d06c       ??_R4MazeDemoMain@@6BFilterPoints@@@ 0045006c     MazeDemoMain.obj
 0002:0000d084       ??_R4MazeDemoTileManager@@6B@ 00450084     MazeDemoMain.obj
 0002:0000d09c       ??_R3MazeDemoTileManager@@8 0045009c     MazeDemoMain.obj
 0002:0000d0b0       ??_R2MazeDemoTileManager@@8 004500b0     MazeDemoMain.obj
 0002:0000d0bc       ??_R1A@?0A@EA@MazeDemoTileManager@@8 004500bc     MazeDemoMain.obj
 0002:0000d0e0       ??_R4MazeDemoObject@@6B@   004500e0     MazeDemoObject.obj
 0002:0000d0f8       ??_R3MazeDemoObject@@8     004500f8     MazeDemoObject.obj
 0002:0000d10c       ??_R2MazeDemoObject@@8     0045010c     MazeDemoObject.obj
 0002:0000d118       ??_R1A@?0A@EA@MazeDemoObject@@8 00450118     MazeDemoObject.obj
 0002:0000d13c       ??_R4type_info@@6B@        0045013c     MSVCRTD:std_type_info_static.obj
 0002:0000d154       ??_R3type_info@@8          00450154     MSVCRTD:std_type_info_static.obj
 0002:0000d168       ??_R2type_info@@8          00450168     MSVCRTD:std_type_info_static.obj
 0002:0000d170       ??_R1A@?0A@EA@type_info@@8 00450170     MSVCRTD:std_type_info_static.obj
 0002:0000d320       ___safe_se_handler_table   00450320     <linker-defined>
 0002:0000d858       ___rtc_iaa                 00450858     MSVCRTD:initsect.obj
 0002:0000d95c       ___rtc_izz                 0045095c     MSVCRTD:initsect.obj
 0002:0000da60       ___rtc_taa                 00450a60     MSVCRTD:initsect.obj
 0002:0000db64       ___rtc_tzz                 00450b64     MSVCRTD:initsect.obj
 0002:0000e464       __TI3?AVbad_array_new_length@std@@ 00451464     Rock.obj
 0002:0000e478       __CTA3?AVbad_array_new_length@std@@ 00451478     Rock.obj
 0002:0000e48c       __CT??_R0?AVbad_array_new_length@std@@@8??0bad_array_new_length@std@@QAE@ABV01@@Z12 0045148c     Rock.obj
 0002:0000e4ac       __CT??_R0?AVbad_alloc@std@@@8??0bad_alloc@std@@QAE@ABV01@@Z12 004514ac     Rock.obj
 0002:0000e4cc       __CT??_R0?AVexception@std@@@8??0exception@std@@QAE@ABV01@@Z12 004514cc     Rock.obj
 0002:0000f404       __TI2?AVbad_cast@std@@     00452404     Psyew3Engine.obj
 0002:0000f418       __CTA2?AVbad_cast@std@@    00452418     Psyew3Engine.obj
 0002:0000f428       __CT??_R0?AVbad_cast@std@@@8??0bad_cast@std@@QAE@ABV01@@Z12 00452428     Psyew3Engine.obj
 0002:0000fc08       __TI2?AVbad_alloc@std@@    00452c08     MSVCRTD:throw_bad_alloc.obj
 0002:0000fc1c       __CTA2?AVbad_alloc@std@@   00452c1c     MSVCRTD:throw_bad_alloc.obj
 0003:00000000       ?ballNum@@3HA              00454000     Ball.obj
 0003:0000000c       __fltused                  0045400c     MSVCRTD:fltused.obj
 0003:00000010       ___security_cookie         00454010     MSVCRTD:gs_cookie.obj
 0003:00000014       ___security_cookie_complement 00454014     MSVCRTD:gs_cookie.obj
 0003:0000001c       ___scrt_native_dllmain_reason 0045401c     MSVCRTD:utility.obj
 0003:00000020       ___isa_enabled             00454020     MSVCRTD:cpu_disp.obj
 0003:00000024       ___scrt_default_matherr    00454024     MSVCRTD:matherr.obj
 0003:00000028       ___scrt_ucrt_dll_is_in_use 00454028     MSVCRTD:ucrt_stubs.obj
 0003:00000134       ??_R0?AVbad_array_new_length@std@@@8 00454134     Rock.obj
 0003:00000164       ??_R0?AVbad_alloc@std@@@8  00454164     Rock.obj
 0003:00000188       ??_R0?AVexception@std@@@8  00454188     Rock.obj
 0003:000001ac       ??_R0?AVbad_cast@std@@@8   004541ac     Psyew3Engine.obj
 0003:000002d0       ??_R0?AVDisplayableObject@@@8 004542d0     Ball.obj
 0003:000002f8       ??_R0?AVImagePixelMapping@@@8 004542f8     Ball.obj
 0003:00000320       ??_R0?AVImagePixelMappingRotate@@@8 00454320     Ball.obj
 0003:00000350       ??_R0?AVImagePixelMappingRotateAndColour@@@8 00454350     Ball.obj
 0003:00000388       ??_R0?AVObjectMapper@@@8   00454388     Ball.obj
 0003:000003a8       ??_R0?AVGameObject@@@8     004543a8     Ball.obj
 0003:000003c8       ??_R0?AV_Ref_count_base@std@@@8 004543c8     Rock.obj
 0003:000003f0       ??_R0?AV?$_Ref_count@VRawImageData@@@std@@@8 004543f0     Rock.obj
 0003:00000428       ??_R0?AVDragableBaseClassObject@@@8 00454428     DraggingDemo.obj
 0003:00000458       ??_R0?AVDragableObject@@@8 00454458     DraggingDemo.obj
 0003:0000047c       ??_R0?AVDragableImageObject@@@8 0045447c     DraggingDemo.obj
 0003:000004a4       ??_R0?AVImageObject@@@8    004544a4     DraggingDemo.obj
 0003:000004c4       ??_R0?AVDisplayableObjectContainer@@@8 004544c4     FlashingDemo.obj
 0003:000004f8       ??_R0?AVFlashingDemo@@@8   004544f8     FlashingDemo.obj
 0003:00000518       ??_R0?AVBaseEngine@@@8     00454518     FlashingDemo.obj
 0003:00000538       ??_R0?AVFilterPoints@@@8   00454538     FlashingDemo.obj
 0003:00000558       ??_R0?AVMappableImageObject@@@8 00454558     ImageMappingDemo.obj
 0003:00000580       ??_R0?AVFilterScaling@@@8  00454580     mainfunction.obj
 0003:000005a4       ??_R0?AVFilterTranslation@@@8 004545a4     mainfunction.obj
 0003:000005cc       ??_R0?AVPsyew3Engine@@@8   004545cc     mainfunction.obj
 0003:000005ec       ??_R0?AV?$basic_filebuf@DU?$char_traits@D@std@@@std@@@8 004545ec     Psyew3Engine.obj
 0003:00000634       ??_R0?AV?$basic_streambuf@DU?$char_traits@D@std@@@std@@@8 00454634     Psyew3Engine.obj
 0003:0000067c       ??_R0?AV?$basic_ofstream@DU?$char_traits@D@std@@@std@@@8 0045467c     Psyew3Engine.obj
 0003:000006c4       ??_R0?AV?$basic_ostream@DU?$char_traits@D@std@@@std@@@8 004546c4     Psyew3Engine.obj
 0003:0000070c       ??_R0?AV?$basic_ios@DU?$char_traits@D@std@@@std@@@8 0045470c     Psyew3Engine.obj
 0003:0000074c       ??_R0?AVios_base@std@@@8   0045474c     Psyew3Engine.obj
 0003:0000076c       ??_R0?AV?$_Iosb@H@std@@@8  0045476c     Psyew3Engine.obj
 0003:00000790       ??_R0?AV?$basic_fstream@DU?$char_traits@D@std@@@std@@@8 00454790     Psyew3Engine.obj
 0003:000007d8       ??_R0?AV?$basic_iostream@DU?$char_traits@D@std@@@std@@@8 004547d8     Psyew3Engine.obj
 0003:00000820       ??_R0?AV?$basic_istream@DU?$char_traits@D@std@@@std@@@8 00454820     Psyew3Engine.obj
 0003:00000868       ??_R0?AVTileManager@@@8    00454868     Psyew3Engine.obj
 0003:00000888       ??_R0?AVPsyew3TileManager@@@8 00454888     Psyew3Engine.obj
 0003:000008b0       ??_R0?AVState@@@8          004548b0     Psyew3Engine.obj
 0003:000008c8       ??_R0?AVMenu@@@8           004548c8     Psyew3Engine.obj
 0003:000008e0       ??_R0?AVBall@@@8           004548e0     Psyew3Engine.obj
 0003:000008f8       ??_R0?AVRacket@@@8         004548f8     Psyew3Engine.obj
 0003:00000914       ??_R0?AVRock@@@8           00454914     Psyew3Engine.obj
 0003:0000092c       ??_R0?AVPlay@@@8           0045492c     Psyew3Engine.obj
 0003:00000944       ??_R0?AVPause@@@8          00454944     Psyew3Engine.obj
 0003:0000095c       ??_R0?AVEnd@@@8            0045495c     Psyew3Engine.obj
 0003:00000974       ??_R0?AVLeaderboard@@@8    00454974     Psyew3Engine.obj
 0003:00000994       ??_R0?AVCroppedImagePixelMapping@@@8 00454994     SimpleImage.obj
 0003:000009c4       ??_R0?AVBouncingObject@@@8 004549c4     SimpleDemo.obj
 0003:000009e8       ??_R0?AVStarfieldDemo@@@8  004549e8     StarfieldDemo.obj
 0003:00000a0c       ??_R0?AVBouncingBall@@@8   00454a0c     BouncingBall.obj
 0003:00000a2c       ??_R0?AVBouncingBall1@@@8  00454a2c     BouncingBall.obj
 0003:00000a50       ??_R0?AVBouncingBall2@@@8  00454a50     BouncingBall.obj
 0003:00000a74       ??_R0?AVSimpleFlashingDragableImageObject@@@8 00454a74     ZoomingDemo.obj
 0003:00000ab0       ??_R0?AVMazeDemoMain@@@8   00454ab0     MazeDemoMain.obj
 0003:00000ad0       ??_R0?AVMazeDemoTileManager@@@8 00454ad0     MazeDemoMain.obj
 0003:00000af8       ??_R0?AVMazeDemoObject@@@8 00454af8     MazeDemoObject.obj
 0003:00000b1c       ??_R0?AVtype_info@@@8      00454b1c     MSVCRTD:std_type_info_static.obj
 0003:00000c68       ?_OptionsStorage@?1??__local_stdio_printf_options@@9@4_KA 00454c68     Rock.obj
 0003:00000c74       ?firstLine@@3PADA          00454c74     Psyew3Engine.obj
 0003:00000c84       ?secondLine@@3PADA         00454c84     Psyew3Engine.obj
 0003:00000c94       ?thirdLine@@3PADA          00454c94     Psyew3Engine.obj
 0003:00000ca4       ?fourthLine@@3PADA         00454ca4     Psyew3Engine.obj
 0003:00000cb4       ?fifthLine@@3PADA          00454cb4     Psyew3Engine.obj
 0003:00000cc4       ?in@@3HA                   00454cc4     Psyew3Engine.obj
 0003:00000cc8       ?out@@3HA                  00454cc8     Psyew3Engine.obj
 0003:00000ccc       ?startUpState@@3PAVMenu@@A 00454ccc     Psyew3Engine.obj
 0003:00000cd0       ?gameState@@3PAVPlay@@A    00454cd0     Psyew3Engine.obj
 0003:00000cd4       ?leaderboardState@@3PAVLeaderboard@@A 00454cd4     Psyew3Engine.obj
 0003:00000cd8       ?pauseState@@3PAVPause@@A  00454cd8     Psyew3Engine.obj
 0003:00000cdc       ?endState@@3PAVEnd@@A      00454cdc     Psyew3Engine.obj
 0003:00000cf8       ?_Stinit@?1??_Init@?$basic_filebuf@DU?$char_traits@D@std@@@std@@IAEXPAU_iobuf@@W4_Initfl@23@@Z@4U_Mbstatet@@A 00454cf8     Psyew3Engine.obj
 0003:00000d04       ?_Psave@?$_Facetptr@V?$codecvt@DDU_Mbstatet@@@std@@@std@@2PBVfacet@locale@2@B 00454d04     Psyew3Engine.obj
 0003:00000d08       ?g_pManager@ImageManager@@0PAV1@A 00454d08     SimpleImage.obj
 0003:00000d14       ___scrt_current_native_startup_state 00454d14     MSVCRTD:utility.obj
 0003:00000d18       ___scrt_native_startup_lock 00454d18     MSVCRTD:utility.obj
 0003:00000d40       ___isa_available           00454d40     MSVCRTD:cpu_disp.obj
 0003:00000d44       ___favor                   00454d44     MSVCRTD:cpu_disp.obj
 0003:00000d50       ?__type_info_root_node@@3U__type_info_node@@A 00454d50     MSVCRTD:tncleanup.obj
 0003:00000d60       ?_OptionsStorage@?1??__local_stdio_scanf_options@@9@4_KA 00454d60     MSVCRTD:default_local_stdio_options.obj
 0003:00000d6c       ___scrt_debugger_hook_flag 00454d6c     MSVCRTD:utility_desktop.obj
 0003:0000112c       ___dyn_tls_dtor_callback   0045512c     <common>
 0003:00001138       ___dyn_tls_init_callback   00455138     <common>
 0004:00000000       __imp__IsProcessorFeaturePresent@4 00456000     kernel32:KERNEL32.dll
 0004:00000004       __imp__QueryPerformanceCounter@4 00456004     kernel32:KERNEL32.dll
 0004:00000008       __imp__GetCurrentProcessId@0 00456008     kernel32:KERNEL32.dll
 0004:0000000c       __imp__GetCurrentThreadId@0 0045600c     kernel32:KERNEL32.dll
 0004:00000010       __imp__GetSystemTimeAsFileTime@4 00456010     kernel32:KERNEL32.dll
 0004:00000014       __imp__InitializeSListHead@4 00456014     kernel32:KERNEL32.dll
 0004:00000018       __imp__IsDebuggerPresent@0 00456018     kernel32:KERNEL32.dll
 0004:0000001c       __imp__UnhandledExceptionFilter@4 0045601c     kernel32:KERNEL32.dll
 0004:00000020       __imp__SetUnhandledExceptionFilter@4 00456020     kernel32:KERNEL32.dll
 0004:00000024       __imp__GetStartupInfoW@4   00456024     kernel32:KERNEL32.dll
 0004:00000028       __imp__GetCurrentProcess@0 00456028     kernel32:KERNEL32.dll
 0004:0000002c       __imp__TerminateProcess@8  0045602c     kernel32:KERNEL32.dll
 0004:00000030       __imp__GetCommandLineW@0   00456030     kernel32:KERNEL32.dll
 0004:00000034       __imp__VirtualAlloc@16     00456034     kernel32:KERNEL32.dll
 0004:00000038       __imp__GetModuleHandleW@4  00456038     kernel32:KERNEL32.dll
 0004:0000003c       __imp__VirtualFree@12      0045603c     kernel32:KERNEL32.dll
 0004:00000040       __imp__WideCharToMultiByte@32 00456040     kernel32:KERNEL32.dll
 0004:00000044       \177KERNEL32_NULL_THUNK_DATA 00456044     kernel32:KERNEL32.dll
 0004:0000007c       __imp_??0?$basic_ostream@DU?$char_traits@D@std@@@std@@QAE@PAV?$basic_streambuf@DU?$char_traits@D@std@@@1@_N@Z 0045607c     msvcprtd:MSVCP140D.dll
 0004:00000080       __imp_??0?$basic_ios@DU?$char_traits@D@std@@@std@@IAE@XZ 00456080     msvcprtd:MSVCP140D.dll
 0004:00000084       __imp_??1?$basic_ostream@DU?$char_traits@D@std@@@std@@UAE@XZ 00456084     msvcprtd:MSVCP140D.dll
 0004:00000088       __imp_??6?$basic_ostream@DU?$char_traits@D@std@@@std@@QAEAAV01@H@Z 00456088     msvcprtd:MSVCP140D.dll
 0004:0000008c       __imp_?_Ipfx@?$basic_istream@DU?$char_traits@D@std@@@std@@QAE_N_N@Z 0045608c     msvcprtd:MSVCP140D.dll
 0004:00000090       __imp_??0?$basic_iostream@DU?$char_traits@D@std@@@std@@QAE@PAV?$basic_streambuf@DU?$char_traits@D@std@@@1@@Z 00456090     msvcprtd:MSVCP140D.dll
 0004:00000094       __imp_?_Fiopen@std@@YAPAU_iobuf@@PBDHH@Z 00456094     msvcprtd:MSVCP140D.dll
 0004:00000098       __imp_?showmanyc@?$basic_streambuf@DU?$char_traits@D@std@@@std@@MAE_JXZ 00456098     msvcprtd:MSVCP140D.dll
 0004:0000009c       __imp_?id@?$codecvt@DDU_Mbstatet@@@std@@2V0locale@2@A 0045609c     msvcprtd:MSVCP140D.dll
 0004:000000a0       __imp_?_Xbad_alloc@std@@YAXXZ 004560a0     msvcprtd:MSVCP140D.dll
 0004:000000a4       __imp_??1?$basic_iostream@DU?$char_traits@D@std@@@std@@UAE@XZ 004560a4     msvcprtd:MSVCP140D.dll
 0004:000000a8       __imp_??0_Lockit@std@@QAE@H@Z 004560a8     msvcprtd:MSVCP140D.dll
 0004:000000ac       __imp_??1_Lockit@std@@QAE@XZ 004560ac     msvcprtd:MSVCP140D.dll
 0004:000000b0       __imp_?_Xlength_error@std@@YAXPBD@Z 004560b0     msvcprtd:MSVCP140D.dll
 0004:000000b4       __imp_?uncaught_exception@std@@YA_NXZ 004560b4     msvcprtd:MSVCP140D.dll
 0004:000000b8       __imp_?good@ios_base@std@@QBE_NXZ 004560b8     msvcprtd:MSVCP140D.dll
 0004:000000bc       __imp_?flags@ios_base@std@@QBEHXZ 004560bc     msvcprtd:MSVCP140D.dll
 0004:000000c0       __imp_?width@ios_base@std@@QBE_JXZ 004560c0     msvcprtd:MSVCP140D.dll
 0004:000000c4       __imp_?width@ios_base@std@@QAE_J_J@Z 004560c4     msvcprtd:MSVCP140D.dll
 0004:000000c8       __imp_?sputc@?$basic_streambuf@DU?$char_traits@D@std@@@std@@QAEHD@Z 004560c8     msvcprtd:MSVCP140D.dll
 0004:000000cc       __imp_?sputn@?$basic_streambuf@DU?$char_traits@D@std@@@std@@QAE_JPBD_J@Z 004560cc     msvcprtd:MSVCP140D.dll
 0004:000000d0       __imp_?setstate@?$basic_ios@DU?$char_traits@D@std@@@std@@QAEXH_N@Z 004560d0     msvcprtd:MSVCP140D.dll
 0004:000000d4       __imp_?tie@?$basic_ios@DU?$char_traits@D@std@@@std@@QBEPAV?$basic_ostream@DU?$char_traits@D@std@@@2@XZ 004560d4     msvcprtd:MSVCP140D.dll
 0004:000000d8       __imp_?rdbuf@?$basic_ios@DU?$char_traits@D@std@@@std@@QBEPAV?$basic_streambuf@DU?$char_traits@D@std@@@2@XZ 004560d8     msvcprtd:MSVCP140D.dll
 0004:000000dc       __imp_?fill@?$basic_ios@DU?$char_traits@D@std@@@std@@QBEDXZ 004560dc     msvcprtd:MSVCP140D.dll
 0004:000000e0       __imp_?widen@?$basic_ios@DU?$char_traits@D@std@@@std@@QBEDD@Z 004560e0     msvcprtd:MSVCP140D.dll
 0004:000000e4       __imp_?_Osfx@?$basic_ostream@DU?$char_traits@D@std@@@std@@QAEXXZ 004560e4     msvcprtd:MSVCP140D.dll
 0004:000000e8       __imp_??6?$basic_ostream@DU?$char_traits@D@std@@@std@@QAEAAV01@P6AAAV01@AAV01@@Z@Z 004560e8     msvcprtd:MSVCP140D.dll
 0004:000000ec       __imp_?put@?$basic_ostream@DU?$char_traits@D@std@@@std@@QAEAAV12@D@Z 004560ec     msvcprtd:MSVCP140D.dll
 0004:000000f0       __imp_?flush@?$basic_ostream@DU?$char_traits@D@std@@@std@@QAEAAV12@XZ 004560f0     msvcprtd:MSVCP140D.dll
 0004:000000f4       __imp_?cout@std@@3V?$basic_ostream@DU?$char_traits@D@std@@@1@A 004560f4     msvcprtd:MSVCP140D.dll
 0004:000000f8       __imp_?_Xout_of_range@std@@YAXPBD@Z 004560f8     msvcprtd:MSVCP140D.dll
 0004:000000fc       __imp_??Bid@locale@std@@QAEIXZ 004560fc     msvcprtd:MSVCP140D.dll
 0004:00000100       __imp_?_Getgloballocale@locale@std@@CAPAV_Locimp@12@XZ 00456100     msvcprtd:MSVCP140D.dll
 0004:00000104       __imp_?always_noconv@codecvt_base@std@@QBE_NXZ 00456104     msvcprtd:MSVCP140D.dll
 0004:00000108       __imp_?in@?$codecvt@DDU_Mbstatet@@@std@@QBEHAAU_Mbstatet@@PBD1AAPBDPAD3AAPAD@Z 00456108     msvcprtd:MSVCP140D.dll
 0004:0000010c       __imp_?out@?$codecvt@DDU_Mbstatet@@@std@@QBEHAAU_Mbstatet@@PBD1AAPBDPAD3AAPAD@Z 0045610c     msvcprtd:MSVCP140D.dll
 0004:00000110       __imp_?unshift@?$codecvt@DDU_Mbstatet@@@std@@QBEHAAU_Mbstatet@@PAD1AAPAD@Z 00456110     msvcprtd:MSVCP140D.dll
 0004:00000114       __imp_?_Getcat@?$codecvt@DDU_Mbstatet@@@std@@SAIPAPBVfacet@locale@2@PBV42@@Z 00456114     msvcprtd:MSVCP140D.dll
 0004:00000118       __imp_??Bios_base@std@@QBE_NXZ 00456118     msvcprtd:MSVCP140D.dll
 0004:0000011c       __imp_??0?$basic_streambuf@DU?$char_traits@D@std@@@std@@IAE@XZ 0045611c     msvcprtd:MSVCP140D.dll
 0004:00000120       __imp_??1?$basic_streambuf@DU?$char_traits@D@std@@@std@@UAE@XZ 00456120     msvcprtd:MSVCP140D.dll
 0004:00000124       __imp_?getloc@?$basic_streambuf@DU?$char_traits@D@std@@@std@@QBE?AVlocale@2@XZ 00456124     msvcprtd:MSVCP140D.dll
 0004:00000128       __imp_?sbumpc@?$basic_streambuf@DU?$char_traits@D@std@@@std@@QAEHXZ 00456128     msvcprtd:MSVCP140D.dll
 0004:0000012c       __imp_?sgetc@?$basic_streambuf@DU?$char_traits@D@std@@@std@@QAEHXZ 0045612c     msvcprtd:MSVCP140D.dll
 0004:00000130       __imp_?snextc@?$basic_streambuf@DU?$char_traits@D@std@@@std@@QAEHXZ 00456130     msvcprtd:MSVCP140D.dll
 0004:00000134       __imp_?eback@?$basic_streambuf@DU?$char_traits@D@std@@@std@@IBEPADXZ 00456134     msvcprtd:MSVCP140D.dll
 0004:00000138       __imp_?gptr@?$basic_streambuf@DU?$char_traits@D@std@@@std@@IBEPADXZ 00456138     msvcprtd:MSVCP140D.dll
 0004:0000013c       __imp_?pptr@?$basic_streambuf@DU?$char_traits@D@std@@@std@@IBEPADXZ 0045613c     msvcprtd:MSVCP140D.dll
 0004:00000140       __imp_?egptr@?$basic_streambuf@DU?$char_traits@D@std@@@std@@IBEPADXZ 00456140     msvcprtd:MSVCP140D.dll
 0004:00000144       __imp_?gbump@?$basic_streambuf@DU?$char_traits@D@std@@@std@@IAEXH@Z 00456144     msvcprtd:MSVCP140D.dll
 0004:00000148       __imp_?setg@?$basic_streambuf@DU?$char_traits@D@std@@@std@@IAEXPAD00@Z 00456148     msvcprtd:MSVCP140D.dll
 0004:0000014c       __imp_?epptr@?$basic_streambuf@DU?$char_traits@D@std@@@std@@IBEPADXZ 0045614c     msvcprtd:MSVCP140D.dll
 0004:00000150       __imp_?_Gndec@?$basic_streambuf@DU?$char_traits@D@std@@@std@@IAEPADXZ 00456150     msvcprtd:MSVCP140D.dll
 0004:00000154       __imp_?_Gninc@?$basic_streambuf@DU?$char_traits@D@std@@@std@@IAEPADXZ 00456154     msvcprtd:MSVCP140D.dll
 0004:00000158       __imp_?_Gnavail@?$basic_streambuf@DU?$char_traits@D@std@@@std@@IBE_JXZ 00456158     msvcprtd:MSVCP140D.dll
 0004:0000015c       __imp_?pbump@?$basic_streambuf@DU?$char_traits@D@std@@@std@@IAEXH@Z 0045615c     msvcprtd:MSVCP140D.dll
 0004:00000160       __imp_?_Pninc@?$basic_streambuf@DU?$char_traits@D@std@@@std@@IAEPADXZ 00456160     msvcprtd:MSVCP140D.dll
 0004:00000164       __imp_?_Pnavail@?$basic_streambuf@DU?$char_traits@D@std@@@std@@IBE_JXZ 00456164     msvcprtd:MSVCP140D.dll
 0004:00000168       __imp_?_Init@?$basic_streambuf@DU?$char_traits@D@std@@@std@@IAEXXZ 00456168     msvcprtd:MSVCP140D.dll
 0004:0000016c       __imp_?_Init@?$basic_streambuf@DU?$char_traits@D@std@@@std@@IAEXPAPAD0PAH001@Z 0045616c     msvcprtd:MSVCP140D.dll
 0004:00000170       __imp_?xsgetn@?$basic_streambuf@DU?$char_traits@D@std@@@std@@MAE_JPAD_J@Z 00456170     msvcprtd:MSVCP140D.dll
 0004:00000174       __imp_?xsputn@?$basic_streambuf@DU?$char_traits@D@std@@@std@@MAE_JPBD_J@Z 00456174     msvcprtd:MSVCP140D.dll
 0004:00000178       __imp_??1?$basic_ios@DU?$char_traits@D@std@@@std@@UAE@XZ 00456178     msvcprtd:MSVCP140D.dll
 0004:0000017c       __imp_?clear@?$basic_ios@DU?$char_traits@D@std@@@std@@QAEXH_N@Z 0045617c     msvcprtd:MSVCP140D.dll
 0004:00000180       \177MSVCP140D_NULL_THUNK_DATA 00456180     msvcprtd:MSVCP140D.dll
 0004:000001e0       __imp__SDL_UpperBlitScaled 004561e0     SDL2:SDL2.dll
 0004:000001e4       __imp__SDL_SetClipRect     004561e4     SDL2:SDL2.dll
 0004:000001e8       __imp__SDL_Quit            004561e8     SDL2:SDL2.dll
 0004:000001ec       __imp__SDL_Init            004561ec     SDL2:SDL2.dll
 0004:000001f0       __imp__SDL_GetTicks        004561f0     SDL2:SDL2.dll
 0004:000001f4       __imp__SDL_RenderPresent   004561f4     SDL2:SDL2.dll
 0004:000001f8       __imp__SDL_RenderCopy      004561f8     SDL2:SDL2.dll
 0004:000001fc       __imp__SDL_UpdateTexture   004561fc     SDL2:SDL2.dll
 0004:00000200       __imp__SDL_CreateTexture   00456200     SDL2:SDL2.dll
 0004:00000204       __imp__SDL_CreateRenderer  00456204     SDL2:SDL2.dll
 0004:00000208       __imp__SDL_SetMainReady    00456208     SDL2:SDL2.dll
 0004:0000020c       __imp__SDL_WaitEvent       0045620c     SDL2:SDL2.dll
 0004:00000210       __imp__SDL_ShowSimpleMessageBox 00456210     SDL2:SDL2.dll
 0004:00000214       __imp__SDL_PollEvent       00456214     SDL2:SDL2.dll
 0004:00000218       __imp__SDL_CreateWindow    00456218     SDL2:SDL2.dll
 0004:0000021c       __imp__SDL_GetError        0045621c     SDL2:SDL2.dll
 0004:00000220       __imp__SDL_FillRect        00456220     SDL2:SDL2.dll
 0004:00000224       __imp__SDL_UpperBlit       00456224     SDL2:SDL2.dll
 0004:00000228       __imp__SDL_CreateRGBSurface 00456228     SDL2:SDL2.dll
 0004:0000022c       __imp__SDL_UnlockSurface   0045622c     SDL2:SDL2.dll
 0004:00000230       __imp__SDL_LockSurface     00456230     SDL2:SDL2.dll
 0004:00000234       __imp__SDL_FreeSurface     00456234     SDL2:SDL2.dll
 0004:00000238       \177SDL2_NULL_THUNK_DATA   00456238     SDL2:SDL2.dll
 0004:00000274       __imp__IMG_Load            00456274     SDL2_image:SDL2_image.dll
 0004:00000278       \177SDL2_image_NULL_THUNK_DATA 00456278     SDL2_image:SDL2_image.dll
 0004:000002a4       __imp__TTF_CloseFont       004562a4     SDL2_ttf:SDL2_ttf.dll
 0004:000002a8       __imp__TTF_RenderText_Solid 004562a8     SDL2_ttf:SDL2_ttf.dll
 0004:000002ac       __imp__TTF_Quit            004562ac     SDL2_ttf:SDL2_ttf.dll
 0004:000002b0       __imp__TTF_Init            004562b0     SDL2_ttf:SDL2_ttf.dll
 0004:000002b4       __imp__TTF_OpenFont        004562b4     SDL2_ttf:SDL2_ttf.dll
 0004:000002b8       \177SDL2_ttf_NULL_THUNK_DATA 004562b8     SDL2_ttf:SDL2_ttf.dll
 0004:000002e8       __imp____current_exception_context 004562e8     vcruntimed:VCRUNTIME140D.dll
 0004:000002ec       __imp___except_handler4_common 004562ec     vcruntimed:VCRUNTIME140D.dll
 0004:000002f0       __imp___purecall           004562f0     vcruntimed:VCRUNTIME140D.dll
 0004:000002f4       __imp__memcpy              004562f4     vcruntimed:VCRUNTIME140D.dll
 0004:000002f8       __imp__memmove             004562f8     vcruntimed:VCRUNTIME140D.dll
 0004:000002fc       __imp____std_exception_copy 004562fc     vcruntimed:VCRUNTIME140D.dll
 0004:00000300       __imp____std_exception_destroy 00456300     vcruntimed:VCRUNTIME140D.dll
 0004:00000304       __imp___CxxThrowException@8 00456304     vcruntimed:VCRUNTIME140D.dll
 0004:00000308       __imp____CxxFrameHandler3  00456308     vcruntimed:VCRUNTIME140D.dll
 0004:0000030c       __imp__memset              0045630c     vcruntimed:VCRUNTIME140D.dll
 0004:00000310       __imp____std_type_info_destroy_list 00456310     vcruntimed:VCRUNTIME140D.dll
 0004:00000314       __imp____current_exception 00456314     vcruntimed:VCRUNTIME140D.dll
 0004:00000318       __imp__memcmp              00456318     vcruntimed:VCRUNTIME140D.dll
 0004:0000031c       \177VCRUNTIME140D_NULL_THUNK_DATA 0045631c     vcruntimed:VCRUNTIME140D.dll
 0004:00000350       __imp__fgetc               00456350     ucrtd:ucrtbased.dll
 0004:00000354       __imp__fgetpos             00456354     ucrtd:ucrtbased.dll
 0004:00000358       __imp__fputc               00456358     ucrtd:ucrtbased.dll
 0004:0000035c       __imp__fread               0045635c     ucrtd:ucrtbased.dll
 0004:00000360       __imp__fsetpos             00456360     ucrtd:ucrtbased.dll
 0004:00000364       __imp___fseeki64           00456364     ucrtd:ucrtbased.dll
 0004:00000368       __imp__fwrite              00456368     ucrtd:ucrtbased.dll
 0004:0000036c       __imp__setvbuf             0045636c     ucrtd:ucrtbased.dll
 0004:00000370       __imp__ungetc              00456370     ucrtd:ucrtbased.dll
 0004:00000374       __imp___lock_file          00456374     ucrtd:ucrtbased.dll
 0004:00000378       __imp___unlock_file        00456378     ucrtd:ucrtbased.dll
 0004:0000037c       __imp___free_dbg           0045637c     ucrtd:ucrtbased.dll
 0004:00000380       __imp___malloc_dbg         00456380     ucrtd:ucrtbased.dll
 0004:00000384       __imp___seh_filter_exe     00456384     ucrtd:ucrtbased.dll
 0004:00000388       __imp___set_app_type       00456388     ucrtd:ucrtbased.dll
 0004:0000038c       __imp____setusermatherr    0045638c     ucrtd:ucrtbased.dll
 0004:00000390       __imp___configure_narrow_argv 00456390     ucrtd:ucrtbased.dll
 0004:00000394       __imp___initialize_narrow_environment 00456394     ucrtd:ucrtbased.dll
 0004:00000398       __imp___get_initial_narrow_environment 00456398     ucrtd:ucrtbased.dll
 0004:0000039c       __imp___initterm           0045639c     ucrtd:ucrtbased.dll
 0004:000003a0       __imp__fclose              004563a0     ucrtd:ucrtbased.dll
 0004:000003a4       __imp__exit                004563a4     ucrtd:ucrtbased.dll
 0004:000003a8       __imp___exit               004563a8     ucrtd:ucrtbased.dll
 0004:000003ac       __imp___set_fmode          004563ac     ucrtd:ucrtbased.dll
 0004:000003b0       __imp____p___argc          004563b0     ucrtd:ucrtbased.dll
 0004:000003b4       __imp____p___argv          004563b4     ucrtd:ucrtbased.dll
 0004:000003b8       __imp___cexit              004563b8     ucrtd:ucrtbased.dll
 0004:000003bc       __imp___c_exit             004563bc     ucrtd:ucrtbased.dll
 0004:000003c0       __imp___register_thread_local_exe_atexit_callback 004563c0     ucrtd:ucrtbased.dll
 0004:000003c4       __imp___configthreadlocale 004563c4     ucrtd:ucrtbased.dll
 0004:000003c8       __imp___set_new_mode       004563c8     ucrtd:ucrtbased.dll
 0004:000003cc       __imp____p__commode        004563cc     ucrtd:ucrtbased.dll
 0004:000003d0       __imp___callnewh           004563d0     ucrtd:ucrtbased.dll
 0004:000003d4       __imp__malloc              004563d4     ucrtd:ucrtbased.dll
 0004:000003d8       __imp___seh_filter_dll     004563d8     ucrtd:ucrtbased.dll
 0004:000003dc       __imp___initialize_onexit_table 004563dc     ucrtd:ucrtbased.dll
 0004:000003e0       __imp___register_onexit_function 004563e0     ucrtd:ucrtbased.dll
 0004:000003e4       __imp___execute_onexit_table 004563e4     ucrtd:ucrtbased.dll
 0004:000003e8       __imp___crt_atexit         004563e8     ucrtd:ucrtbased.dll
 0004:000003ec       __imp___crt_at_quick_exit  004563ec     ucrtd:ucrtbased.dll
 0004:000003f0       __imp___controlfp_s        004563f0     ucrtd:ucrtbased.dll
 0004:000003f4       __imp__terminate           004563f4     ucrtd:ucrtbased.dll
 0004:000003f8       __imp__fflush              004563f8     ucrtd:ucrtbased.dll
 0004:000003fc       __imp___get_stream_buffer_pointers 004563fc     ucrtd:ucrtbased.dll
 0004:00000400       __imp__strcpy              00456400     ucrtd:ucrtbased.dll
 0004:00000404       __imp__strcmp              00456404     ucrtd:ucrtbased.dll
 0004:00000408       __imp__puts                00456408     ucrtd:ucrtbased.dll
 0004:0000040c       __imp___time64             0045640c     ucrtd:ucrtbased.dll
 0004:00000410       __imp__srand               00456410     ucrtd:ucrtbased.dll
 0004:00000414       __imp___CrtDumpMemoryLeaks 00456414     ucrtd:ucrtbased.dll
 0004:00000418       __imp____stdio_common_vsprintf 00456418     ucrtd:ucrtbased.dll
 0004:0000041c       __imp__rand                0045641c     ucrtd:ucrtbased.dll
 0004:00000420       __imp__strlen              00456420     ucrtd:ucrtbased.dll
 0004:00000424       __imp____stdio_common_vfprintf 00456424     ucrtd:ucrtbased.dll
 0004:00000428       __imp____acrt_iob_func     00456428     ucrtd:ucrtbased.dll
 0004:0000042c       __imp__sqrt                0045642c     ucrtd:ucrtbased.dll
 0004:00000430       __imp__sin                 00456430     ucrtd:ucrtbased.dll
 0004:00000434       __imp__cos                 00456434     ucrtd:ucrtbased.dll
 0004:00000438       __imp__atan                00456438     ucrtd:ucrtbased.dll
 0004:0000043c       __imp___CrtDbgReport       0045643c     ucrtd:ucrtbased.dll
 0004:00000440       __imp___invalid_parameter  00456440     ucrtd:ucrtbased.dll
 0004:00000444       __imp___initterm_e         00456444     ucrtd:ucrtbased.dll
 0004:00000448       \177ucrtbased_NULL_THUNK_DATA 00456448     ucrtd:ucrtbased.dll
 0004:000004a4       __IMPORT_DESCRIPTOR_SDL2   004564a4     SDL2:SDL2.dll
 0004:000004b8       __IMPORT_DESCRIPTOR_SDL2_image 004564b8     SDL2_image:SDL2_image.dll
 0004:000004cc       __IMPORT_DESCRIPTOR_SDL2_ttf 004564cc     SDL2_ttf:SDL2_ttf.dll
 0004:000004e0       __IMPORT_DESCRIPTOR_MSVCP140D 004564e0     msvcprtd:MSVCP140D.dll
 0004:000004f4       __IMPORT_DESCRIPTOR_VCRUNTIME140D 004564f4     vcruntimed:VCRUNTIME140D.dll
 0004:00000508       __IMPORT_DESCRIPTOR_ucrtbased 00456508     ucrtd:ucrtbased.dll
 0004:0000051c       __IMPORT_DESCRIPTOR_KERNEL32 0045651c     kernel32:KERNEL32.dll
 0004:00000530       __NULL_IMPORT_DESCRIPTOR   00456530     SDL2:SDL2.dll
 0005:00000000       ___guard_check_icall_fptr  00459000     MSVCRTD:guard_support.obj
 0005:00000004       ___guard_xfg_check_icall_fptr 00459004     MSVCRTD:guard_support.obj
 0005:00000008       ___castguard_check_failure_os_handled_fptr 00459008     MSVCRTD:guard_support.obj

 entry point at        0001:00000087

 Static symbols

 0002:fffbd000       __ehfuncinfo$??$_Deallocate@$07$0A@@std@@YAXPAXI@Z 00400000     BaseEngine.obj
 0002:fffbd000       __ehfuncinfo$??$_Deallocate_plain@V?$allocator@U_Container_proxy@std@@@std@@@std@@YAXAAV?$allocator@U_Container_proxy@std@@@0@QAU_Container_proxy@0@@Z 00400000     BaseEngine.obj
 0001:fffff000       __ehhandler$??$_Deallocate@$07$0A@@std@@YAXPAXI@Z 00400000 f   BaseEngine.obj
 0001:fffff000       __ehhandler$??$_Deallocate_plain@V?$allocator@U_Container_proxy@std@@@std@@@std@@YAXAAV?$allocator@U_Container_proxy@std@@@0@QAU_Container_proxy@0@@Z 00400000 f   BaseEngine.obj
 0001:fffff000       __unwindfunclet$??$_Uninitialized_value_construct_n@V?$allocator@PAVDisplayableObject@@@std@@@std@@YAPAPAVDisplayableObject@@PAPAV1@IAAV?$allocator@PAVDisplayableObject@@@0@@Z$0 00400000 f   BaseEngine.obj
 0002:fffbd000       __unwindtable$??$_Uninitialized_value_construct_n@V?$allocator@PAVDisplayableObject@@@std@@@std@@YAPAPAVDisplayableObject@@PAPAV1@IAAV?$allocator@PAVDisplayableObject@@@0@@Z 00400000     BaseEngine.obj
 0000:00000000       _volmd                     00400000     BaseEngine.obj
 0000:00000000       _volmd                     00400000     BaseEngine.obj
 0000:00000000       _volmd                     00400000     BaseEngine.obj
 0000:00000000       _volmd                     00400000     BaseEngine.obj
 0000:00000000       _volmd                     00400000     BaseEngine.obj
 0000:00000000       _volmd                     00400000     BaseEngine.obj
 0000:00000000       _volmd                     00400000     BaseEngine.obj
 0000:00000000       _volmd                     00400000     BaseEngine.obj
 0000:00000000       _volmd                     00400000     BaseEngine.obj
 0000:00000000       _volmd                     00400000     BaseEngine.obj
 0000:00000000       _volmd                     00400000     BaseEngine.obj
 0000:00000000       _volmd                     00400000     BaseEngine.obj
 0000:00000000       _volmd                     00400000     BaseEngine.obj
 0002:fffbd000       __catchsym$??$?6U?$char_traits@D@std@@@std@@YAAAV?$basic_ostream@DU?$char_traits@D@std@@@0@AAV10@PBD@Z$3 00400000     BouncingBall.obj
 0002:fffbd000       __ehfuncinfo$??1_Sentry_base@?$basic_ostream@DU?$char_traits@D@std@@@std@@QAE@XZ 00400000     BouncingBall.obj
 0002:fffbd000       __ehfuncinfo$??1sentry@?$basic_ostream@DU?$char_traits@D@std@@@std@@QAE@XZ 00400000     BouncingBall.obj
 0001:fffff000       __ehhandler$??1_Sentry_base@?$basic_ostream@DU?$char_traits@D@std@@@std@@QAE@XZ 00400000 f   BouncingBall.obj
 0001:fffff000       __ehhandler$??1sentry@?$basic_ostream@DU?$char_traits@D@std@@@std@@QAE@XZ 00400000 f   BouncingBall.obj
 0001:fffff000       __unwindfunclet$??$?6U?$char_traits@D@std@@@std@@YAAAV?$basic_ostream@DU?$char_traits@D@std@@@0@AAV10@PBD@Z$2 00400000 f   BouncingBall.obj
 0001:fffff000       __unwindfunclet$??0sentry@?$basic_ostream@DU?$char_traits@D@std@@@std@@QAE@AAV12@@Z$0 00400000 f   BouncingBall.obj
 0002:fffbd000       __unwindtable$??0sentry@?$basic_ostream@DU?$char_traits@D@std@@@std@@QAE@AAV12@@Z 00400000     BouncingBall.obj
 0000:00000000       _volmd                     00400000     BouncingBall.obj
 0000:00000000       _volmd                     00400000     BouncingBall.obj
 0000:00000000       _volmd                     00400000     BouncingBall.obj
 0000:00000000       _volmd                     00400000     BouncingBall.obj
 0000:00000000       _volmd                     00400000     BouncingBall.obj
 0002:fffbd000       __catchsym$??$?6U?$char_traits@D@std@@@std@@YAAAV?$basic_ostream@DU?$char_traits@D@std@@@0@AAV10@PBD@Z$3 00400000     BouncingBallMain.obj
 0002:fffbd000       __catchsym$??$_Resize_reallocate@U_Value_init_tag@std@@@?$vector@PAVDisplayableObject@@V?$allocator@PAVDisplayableObject@@@std@@@std@@AAEXIABU_Value_init_tag@1@@Z$2 00400000     BouncingBallMain.obj
 0002:fffbd000       __ehfuncinfo$??$_Deallocate@$07$0A@@std@@YAXPAXI@Z 00400000     BouncingBallMain.obj
 0002:fffbd000       __ehfuncinfo$??1_Sentry_base@?$basic_ostream@DU?$char_traits@D@std@@@std@@QAE@XZ 00400000     BouncingBallMain.obj
 0002:fffbd000       __ehfuncinfo$??1sentry@?$basic_ostream@DU?$char_traits@D@std@@@std@@QAE@XZ 00400000     BouncingBallMain.obj
 0001:fffff000       __ehhandler$??$_Deallocate@$07$0A@@std@@YAXPAXI@Z 00400000 f   BouncingBallMain.obj
 0001:fffff000       __ehhandler$??$_Resize_reallocate@U_Value_init_tag@std@@@?$vector@PAVDisplayableObject@@V?$allocator@PAVDisplayableObject@@@std@@@std@@AAEXIABU_Value_init_tag@1@@Z 00400000 f   BouncingBallMain.obj
 0001:fffff000       __ehhandler$??1_Sentry_base@?$basic_ostream@DU?$char_traits@D@std@@@std@@QAE@XZ 00400000 f   BouncingBallMain.obj
 0001:fffff000       __ehhandler$??1sentry@?$basic_ostream@DU?$char_traits@D@std@@@std@@QAE@XZ 00400000 f   BouncingBallMain.obj
 0001:fffff000       __unwindfunclet$??$?6U?$char_traits@D@std@@@std@@YAAAV?$basic_ostream@DU?$char_traits@D@std@@@0@AAV10@PBD@Z$2 00400000 f   BouncingBallMain.obj
 0001:fffff000       __unwindfunclet$??$_Uninitialized_move@PAPAVDisplayableObject@@V?$allocator@PAVDisplayableObject@@@std@@@std@@YAPAPAVDisplayableObject@@QAPAV1@0PAPAV1@AAV?$allocator@PAVDisplayableObject@@@0@@Z$0 00400000 f   BouncingBallMain.obj
 0001:fffff000       __unwindfunclet$??$_Uninitialized_value_construct_n@V?$allocator@PAVDisplayableObject@@@std@@@std@@YAPAPAVDisplayableObject@@PAPAV1@IAAV?$allocator@PAVDisplayableObject@@@0@@Z$0 00400000 f   BouncingBallMain.obj
 0001:fffff000       __unwindfunclet$??0sentry@?$basic_ostream@DU?$char_traits@D@std@@@std@@QAE@AAV12@@Z$0 00400000 f   BouncingBallMain.obj
 0001:fffff000       __unwindfunclet$?_Orphan_range_locked@?$vector@PAVDisplayableObject@@V?$allocator@PAVDisplayableObject@@@std@@@std@@ABEXPAPAVDisplayableObject@@0@Z$0 00400000 f   BouncingBallMain.obj
 0002:fffbd000       __unwindtable$??$_Uninitialized_move@PAPAVDisplayableObject@@V?$allocator@PAVDisplayableObject@@@std@@@std@@YAPAPAVDisplayableObject@@QAPAV1@0PAPAV1@AAV?$allocator@PAVDisplayableObject@@@0@@Z 00400000     BouncingBallMain.obj
 0002:fffbd000       __unwindtable$??$_Uninitialized_value_construct_n@V?$allocator@PAVDisplayableObject@@@std@@@std@@YAPAPAVDisplayableObject@@PAPAV1@IAAV?$allocator@PAVDisplayableObject@@@0@@Z 00400000     BouncingBallMain.obj
 0002:fffbd000       __unwindtable$??0sentry@?$basic_ostream@DU?$char_traits@D@std@@@std@@QAE@AAV12@@Z 00400000     BouncingBallMain.obj
 0002:fffbd000       __unwindtable$?_Orphan_range_locked@?$vector@PAVDisplayableObject@@V?$allocator@PAVDisplayableObject@@@std@@@std@@ABEXPAPAVDisplayableObject@@0@Z 00400000     BouncingBallMain.obj
 0000:00000000       _volmd                     00400000     BouncingBallMain.obj
 0000:00000000       _volmd                     00400000     BouncingBallMain.obj
 0000:00000000       _volmd                     00400000     BouncingBallMain.obj
 0000:00000000       _volmd                     00400000     BouncingBallMain.obj
 0000:00000000       _volmd                     00400000     BouncingBallMain.obj
 0000:00000000       _volmd                     00400000     BouncingBallMain.obj
 0000:00000000       _volmd                     00400000     BouncingBallMain.obj
 0000:00000000       _volmd                     00400000     BouncingBallMain.obj
 0000:00000000       _volmd                     00400000     BouncingBallMain.obj
 0000:00000000       _volmd                     00400000     BouncingBallMain.obj
 0000:00000000       _volmd                     00400000     BouncingBallMain.obj
 0000:00000000       _volmd                     00400000     BouncingBallMain.obj
 0000:00000000       _volmd                     00400000     BouncingBallMain.obj
 0000:00000000       _volmd                     00400000     BouncingBallMain.obj
 0000:00000000       _volmd                     00400000     BouncingBallMain.obj
 0002:fffbd000       __catchsym$??$?6U?$char_traits@D@std@@@std@@YAAAV?$basic_ostream@DU?$char_traits@D@std@@@0@AAV10@PBD@Z$3 00400000     DisplayableObject.obj
 0002:fffbd000       __ehfuncinfo$??1_Sentry_base@?$basic_ostream@DU?$char_traits@D@std@@@std@@QAE@XZ 00400000     DisplayableObject.obj
 0002:fffbd000       __ehfuncinfo$??1sentry@?$basic_ostream@DU?$char_traits@D@std@@@std@@QAE@XZ 00400000     DisplayableObject.obj
 0001:fffff000       __ehhandler$??1_Sentry_base@?$basic_ostream@DU?$char_traits@D@std@@@std@@QAE@XZ 00400000 f   DisplayableObject.obj
 0001:fffff000       __ehhandler$??1sentry@?$basic_ostream@DU?$char_traits@D@std@@@std@@QAE@XZ 00400000 f   DisplayableObject.obj
 0001:fffff000       __unwindfunclet$??$?6U?$char_traits@D@std@@@std@@YAAAV?$basic_ostream@DU?$char_traits@D@std@@@0@AAV10@PBD@Z$2 00400000 f   DisplayableObject.obj
 0001:fffff000       __unwindfunclet$??0sentry@?$basic_ostream@DU?$char_traits@D@std@@@std@@QAE@AAV12@@Z$0 00400000 f   DisplayableObject.obj
 0002:fffbd000       __unwindtable$??0sentry@?$basic_ostream@DU?$char_traits@D@std@@@std@@QAE@AAV12@@Z 00400000     DisplayableObject.obj
 0000:00000000       _volmd                     00400000     DisplayableObject.obj
 0000:00000000       _volmd                     00400000     DisplayableObject.obj
 0000:00000000       _volmd                     00400000     DisplayableObject.obj
 0000:00000000       _volmd                     00400000     DisplayableObject.obj
 0002:fffbd000       __catchsym$??$?6U?$char_traits@D@std@@@std@@YAAAV?$basic_ostream@DU?$char_traits@D@std@@@0@AAV10@PBD@Z$3 00400000     DraggingDemo.obj
 0002:fffbd000       __catchsym$??$_Insert_string@DU?$char_traits@D@std@@I@std@@YAAAV?$basic_ostream@DU?$char_traits@D@std@@@0@AAV10@QBDI@Z$3 00400000     DraggingDemo.obj
 0002:fffbd000       __ehfuncinfo$??$_Deallocate@$07$0A@@std@@YAXPAXI@Z 00400000     DraggingDemo.obj
 0002:fffbd000       __ehfuncinfo$??$_Deallocate_plain@V?$allocator@U_Container_proxy@std@@@std@@@std@@YAXAAV?$allocator@U_Container_proxy@std@@@0@QAU_Container_proxy@0@@Z 00400000     DraggingDemo.obj
 0002:fffbd000       __ehfuncinfo$??$_Freenode0@V?$allocator@U?$_Tree_node@U?$pair@$$CBV?$basic_string@DU?$char_traits@D@std@@V?$allocator@D@2@@std@@V?$weak_ptr@VRawImageData@@@2@@std@@PAX@std@@@std@@@?$_Tree_node@U?$pair@$$CBV?$basic_string@DU?$char_traits@D@std@@V?$allocator@D@2@@std@@V?$weak_ptr@VRawImageData@@@2@@std@@PAX@std@@SAXAAV?$allocator@U?$_Tree_node@U?$pair@$$CBV?$basic_string@DU?$char_traits@D@std@@V?$allocator@D@2@@std@@V?$weak_ptr@VRawImageData@@@2@@std@@PAX@std@@@1@PAU01@@Z 00400000     DraggingDemo.obj
 0002:fffbd000       __ehfuncinfo$??$_Freenode@V?$allocator@U?$_Tree_node@U?$pair@$$CBV?$basic_string@DU?$char_traits@D@std@@V?$allocator@D@2@@std@@V?$weak_ptr@VRawImageData@@@2@@std@@PAX@std@@@std@@@?$_Tree_node@U?$pair@$$CBV?$basic_string@DU?$char_traits@D@std@@V?$allocator@D@2@@std@@V?$weak_ptr@VRawImageData@@@2@@std@@PAX@std@@SAXAAV?$allocator@U?$_Tree_node@U?$pair@$$CBV?$basic_string@DU?$char_traits@D@std@@V?$allocator@D@2@@std@@V?$weak_ptr@VRawImageData@@@2@@std@@PAX@std@@@1@PAU01@@Z 00400000     DraggingDemo.obj
 0002:fffbd000       __ehfuncinfo$??0?$basic_string@DU?$char_traits@D@std@@V?$allocator@D@2@@std@@QAE@$$QAV01@@Z 00400000     DraggingDemo.obj
 0002:fffbd000       __ehfuncinfo$??1?$_Alloc_construct_ptr@V?$allocator@U?$_Tree_node@U?$pair@$$CBV?$basic_string@DU?$char_traits@D@std@@V?$allocator@D@2@@std@@V?$shared_ptr@VRawImageData@@@2@@std@@PAX@std@@@std@@@std@@QAE@XZ 00400000     DraggingDemo.obj
 0002:fffbd000       __ehfuncinfo$??1?$_Alloc_construct_ptr@V?$allocator@U?$_Tree_node@U?$pair@$$CBV?$basic_string@DU?$char_traits@D@std@@V?$allocator@D@2@@std@@V?$weak_ptr@VRawImageData@@@2@@std@@PAX@std@@@std@@@std@@QAE@XZ 00400000     DraggingDemo.obj
 0002:fffbd000       __ehfuncinfo$??1?$_Tree_temp_node@V?$allocator@U?$_Tree_node@U?$pair@$$CBV?$basic_string@DU?$char_traits@D@std@@V?$allocator@D@2@@std@@V?$shared_ptr@VRawImageData@@@2@@std@@PAX@std@@@std@@@std@@QAE@XZ 00400000     DraggingDemo.obj
 0002:fffbd000       __ehfuncinfo$??1?$_Tree_temp_node@V?$allocator@U?$_Tree_node@U?$pair@$$CBV?$basic_string@DU?$char_traits@D@std@@V?$allocator@D@2@@std@@V?$weak_ptr@VRawImageData@@@2@@std@@PAX@std@@@std@@@std@@QAE@XZ 00400000     DraggingDemo.obj
 0002:fffbd000       __ehfuncinfo$??1RawImageData@@QAE@XZ 00400000     DraggingDemo.obj
 0002:fffbd000       __ehfuncinfo$??1_Sentry_base@?$basic_ostream@DU?$char_traits@D@std@@@std@@QAE@XZ 00400000     DraggingDemo.obj
 0002:fffbd000       __ehfuncinfo$??1sentry@?$basic_ostream@DU?$char_traits@D@std@@@std@@QAE@XZ 00400000     DraggingDemo.obj
 0002:fffbd000       __ehfuncinfo$?_Take_contents@?$basic_string@DU?$char_traits@D@std@@V?$allocator@D@2@@std@@AAEXAAV12@@Z 00400000     DraggingDemo.obj
 0002:fffbd000       __ehfuncinfo$?_Tidy_deallocate@?$basic_string@DU?$char_traits@D@std@@V?$allocator@D@2@@std@@AAEXXZ 00400000     DraggingDemo.obj
 0002:fffbd000       __ehfuncinfo$?getImagePtrbyURL@ImageManager@@QAE?AV?$shared_ptr@VRawImageData@@@std@@V?$basic_string@DU?$char_traits@D@std@@V?$allocator@D@2@@3@_N1@Z 00400000     DraggingDemo.obj
 0001:fffff000       __ehhandler$??$_Deallocate@$07$0A@@std@@YAXPAXI@Z 00400000 f   DraggingDemo.obj
 0001:fffff000       __ehhandler$??$_Deallocate_plain@V?$allocator@U_Container_proxy@std@@@std@@@std@@YAXAAV?$allocator@U_Container_proxy@std@@@0@QAU_Container_proxy@0@@Z 00400000 f   DraggingDemo.obj
 0001:fffff000       __ehhandler$??$_Freenode0@V?$allocator@U?$_Tree_node@U?$pair@$$CBV?$basic_string@DU?$char_traits@D@std@@V?$allocator@D@2@@std@@V?$weak_ptr@VRawImageData@@@2@@std@@PAX@std@@@std@@@?$_Tree_node@U?$pair@$$CBV?$basic_string@DU?$char_traits@D@std@@V?$allocator@D@2@@std@@V?$weak_ptr@VRawImageData@@@2@@std@@PAX@std@@SAXAAV?$allocator@U?$_Tree_node@U?$pair@$$CBV?$basic_string@DU?$char_traits@D@std@@V?$allocator@D@2@@std@@V?$weak_ptr@VRawImageData@@@2@@std@@PAX@std@@@1@PAU01@@Z 00400000 f   DraggingDemo.obj
 0001:fffff000       __ehhandler$??$_Freenode@V?$allocator@U?$_Tree_node@U?$pair@$$CBV?$basic_string@DU?$char_traits@D@std@@V?$allocator@D@2@@std@@V?$weak_ptr@VRawImageData@@@2@@std@@PAX@std@@@std@@@?$_Tree_node@U?$pair@$$CBV?$basic_string@DU?$char_traits@D@std@@V?$allocator@D@2@@std@@V?$weak_ptr@VRawImageData@@@2@@std@@PAX@std@@SAXAAV?$allocator@U?$_Tree_node@U?$pair@$$CBV?$basic_string@DU?$char_traits@D@std@@V?$allocator@D@2@@std@@V?$weak_ptr@VRawImageData@@@2@@std@@PAX@std@@@1@PAU01@@Z 00400000 f   DraggingDemo.obj
 0001:fffff000       __ehhandler$??0?$basic_string@DU?$char_traits@D@std@@V?$allocator@D@2@@std@@QAE@$$QAV01@@Z 00400000 f   DraggingDemo.obj
 0001:fffff000       __ehhandler$??1?$_Alloc_construct_ptr@V?$allocator@U?$_Tree_node@U?$pair@$$CBV?$basic_string@DU?$char_traits@D@std@@V?$allocator@D@2@@std@@V?$shared_ptr@VRawImageData@@@2@@std@@PAX@std@@@std@@@std@@QAE@XZ 00400000 f   DraggingDemo.obj
 0001:fffff000       __ehhandler$??1?$_Alloc_construct_ptr@V?$allocator@U?$_Tree_node@U?$pair@$$CBV?$basic_string@DU?$char_traits@D@std@@V?$allocator@D@2@@std@@V?$weak_ptr@VRawImageData@@@2@@std@@PAX@std@@@std@@@std@@QAE@XZ 00400000 f   DraggingDemo.obj
 0001:fffff000       __ehhandler$??1?$_Tree_temp_node@V?$allocator@U?$_Tree_node@U?$pair@$$CBV?$basic_string@DU?$char_traits@D@std@@V?$allocator@D@2@@std@@V?$shared_ptr@VRawImageData@@@2@@std@@PAX@std@@@std@@@std@@QAE@XZ 00400000 f   DraggingDemo.obj
 0001:fffff000       __ehhandler$??1?$_Tree_temp_node@V?$allocator@U?$_Tree_node@U?$pair@$$CBV?$basic_string@DU?$char_traits@D@std@@V?$allocator@D@2@@std@@V?$weak_ptr@VRawImageData@@@2@@std@@PAX@std@@@std@@@std@@QAE@XZ 00400000 f   DraggingDemo.obj
 0001:fffff000       __ehhandler$??1RawImageData@@QAE@XZ 00400000 f   DraggingDemo.obj
 0001:fffff000       __ehhandler$??1_Sentry_base@?$basic_ostream@DU?$char_traits@D@std@@@std@@QAE@XZ 00400000 f   DraggingDemo.obj
 0001:fffff000       __ehhandler$??1sentry@?$basic_ostream@DU?$char_traits@D@std@@@std@@QAE@XZ 00400000 f   DraggingDemo.obj
 0001:fffff000       __ehhandler$?_Take_contents@?$basic_string@DU?$char_traits@D@std@@V?$allocator@D@2@@std@@AAEXAAV12@@Z 00400000 f   DraggingDemo.obj
 0001:fffff000       __ehhandler$?_Tidy_deallocate@?$basic_string@DU?$char_traits@D@std@@V?$allocator@D@2@@std@@AAEXXZ 00400000 f   DraggingDemo.obj
 0001:fffff000       __unwindfunclet$??$?0U?$pair@V?$basic_string@DU?$char_traits@D@std@@V?$allocator@D@2@@std@@V?$shared_ptr@VRawImageData@@@2@@std@@@?$_Tree_temp_node@V?$allocator@U?$_Tree_node@U?$pair@$$CBV?$basic_string@DU?$char_traits@D@std@@V?$allocator@D@2@@std@@V?$shared_ptr@VRawImageData@@@2@@std@@PAX@std@@@std@@@std@@QAE@AAV?$allocator@U?$_Tree_node@U?$pair@$$CBV?$basic_string@DU?$char_traits@D@std@@V?$allocator@D@2@@std@@V?$shared_ptr@VRawImageData@@@2@@std@@PAX@std@@@1@PAU?$_Tree_node@U?$pair@$$CBV?$basic_string@DU?$char_traits@D@std@@V?$allocator@D@2@@std@@V?$shared_ptr@VRawImageData@@@2@@std@@PAX@1@$$QAU?$pair@V?$basic_string@DU?$char_traits@D@std@@V?$allocator@D@2@@std@@V?$shared_ptr@VRawImageData@@@2@@1@@Z$0 00400000 f   DraggingDemo.obj
 0001:fffff000       __unwindfunclet$??$?0U?$pair@V?$basic_string@DU?$char_traits@D@std@@V?$allocator@D@2@@std@@V?$weak_ptr@VRawImageData@@@2@@std@@@?$_Tree_temp_node@V?$allocator@U?$_Tree_node@U?$pair@$$CBV?$basic_string@DU?$char_traits@D@std@@V?$allocator@D@2@@std@@V?$weak_ptr@VRawImageData@@@2@@std@@PAX@std@@@std@@@std@@QAE@AAV?$allocator@U?$_Tree_node@U?$pair@$$CBV?$basic_string@DU?$char_traits@D@std@@V?$allocator@D@2@@std@@V?$weak_ptr@VRawImageData@@@2@@std@@PAX@std@@@1@PAU?$_Tree_node@U?$pair@$$CBV?$basic_string@DU?$char_traits@D@std@@V?$allocator@D@2@@std@@V?$weak_ptr@VRawImageData@@@2@@std@@PAX@1@$$QAU?$pair@V?$basic_string@DU?$char_traits@D@std@@V?$allocator@D@2@@std@@V?$weak_ptr@VRawImageData@@@2@@1@@Z$0 00400000 f   DraggingDemo.obj
 0001:fffff000       __unwindfunclet$??$?0VRawImageData@@$0A@@?$shared_ptr@VRawImageData@@@std@@QAE@PAVRawImageData@@@Z$0 00400000 f   DraggingDemo.obj
 0001:fffff000       __unwindfunclet$??$?6U?$char_traits@D@std@@@std@@YAAAV?$basic_ostream@DU?$char_traits@D@std@@@0@AAV10@PBD@Z$2 00400000 f   DraggingDemo.obj
 0001:fffff000       __unwindfunclet$??$_Construct@$00PBD@?$basic_string@DU?$char_traits@D@std@@V?$allocator@D@2@@std@@AAEXQBDI@Z$0 00400000 f   DraggingDemo.obj
 0001:fffff000       __unwindfunclet$??$_Construct@$01PBD@?$basic_string@DU?$char_traits@D@std@@V?$allocator@D@2@@std@@AAEXQBDI@Z$0 00400000 f   DraggingDemo.obj
 0001:fffff000       __unwindfunclet$??$_Insert_string@DU?$char_traits@D@std@@I@std@@YAAAV?$basic_ostream@DU?$char_traits@D@std@@@0@AAV10@QBDI@Z$2 00400000 f   DraggingDemo.obj
 0001:fffff000       __unwindfunclet$??0?$_Tree_temp_node_alloc@V?$allocator@U?$_Tree_node@U?$pair@$$CBV?$basic_string@DU?$char_traits@D@std@@V?$allocator@D@2@@std@@V?$shared_ptr@VRawImageData@@@2@@std@@PAX@std@@@std@@@std@@QAE@AAV?$allocator@U?$_Tree_node@U?$pair@$$CBV?$basic_string@DU?$char_traits@D@std@@V?$allocator@D@2@@std@@V?$shared_ptr@VRawImageData@@@2@@std@@PAX@std@@@1@@Z$0 00400000 f   DraggingDemo.obj
 0001:fffff000       __unwindfunclet$??0?$_Tree_temp_node_alloc@V?$allocator@U?$_Tree_node@U?$pair@$$CBV?$basic_string@DU?$char_traits@D@std@@V?$allocator@D@2@@std@@V?$weak_ptr@VRawImageData@@@2@@std@@PAX@std@@@std@@@std@@QAE@AAV?$allocator@U?$_Tree_node@U?$pair@$$CBV?$basic_string@DU?$char_traits@D@std@@V?$allocator@D@2@@std@@V?$weak_ptr@VRawImageData@@@2@@std@@PAX@std@@@1@@Z$0 00400000 f   DraggingDemo.obj
 0001:fffff000       __unwindfunclet$??0?$basic_string@DU?$char_traits@D@std@@V?$allocator@D@2@@std@@QAE@ABV01@@Z$0 00400000 f   DraggingDemo.obj
 0001:fffff000       __unwindfunclet$??0?$basic_string@DU?$char_traits@D@std@@V?$allocator@D@2@@std@@QAE@QBD@Z$0 00400000 f   DraggingDemo.obj
 0001:fffff000       __unwindfunclet$??0ImageManager@@QAE@XZ$0 00400000 f   DraggingDemo.obj
 0001:fffff000       __unwindfunclet$??0RawImageData@@QAE@V?$basic_string@DU?$char_traits@D@std@@V?$allocator@D@2@@std@@@Z$0 00400000 f   DraggingDemo.obj
 0001:fffff000       __unwindfunclet$??0sentry@?$basic_ostream@DU?$char_traits@D@std@@@std@@QAE@AAV12@@Z$0 00400000 f   DraggingDemo.obj
 0001:fffff000       __unwindfunclet$?_Alloc_sentinel_and_proxy@?$_Tree@V?$_Tmap_traits@V?$basic_string@DU?$char_traits@D@std@@V?$allocator@D@2@@std@@V?$shared_ptr@VRawImageData@@@2@U?$less@V?$basic_string@DU?$char_traits@D@std@@V?$allocator@D@2@@std@@@2@V?$allocator@U?$pair@$$CBV?$basic_string@DU?$char_traits@D@std@@V?$allocator@D@2@@std@@V?$shared_ptr@VRawImageData@@@2@@std@@@2@$0A@@std@@@std@@IAEXXZ$0 00400000 f   DraggingDemo.obj
 0001:fffff000       __unwindfunclet$?_Alloc_sentinel_and_proxy@?$_Tree@V?$_Tmap_traits@V?$basic_string@DU?$char_traits@D@std@@V?$allocator@D@2@@std@@V?$weak_ptr@VRawImageData@@@2@U?$less@V?$basic_string@DU?$char_traits@D@std@@V?$allocator@D@2@@std@@@2@V?$allocator@U?$pair@$$CBV?$basic_string@DU?$char_traits@D@std@@V?$allocator@D@2@@std@@V?$weak_ptr@VRawImageData@@@2@@std@@@2@$0A@@std@@@std@@IAEXXZ$0 00400000 f   DraggingDemo.obj
 0001:fffff000       __unwindfunclet$?_Orphan_range_locked@?$vector@PAVDisplayableObject@@V?$allocator@PAVDisplayableObject@@@std@@@std@@ABEXPAPAVDisplayableObject@@0@Z$0 00400000 f   DraggingDemo.obj
 0001:fffff000       __unwindfunclet$?get@ImageManager@@SAPAV1@XZ$0 00400000 f   DraggingDemo.obj
 0001:fffff000       __unwindfunclet$?getImagePtrbyURL@ImageManager@@QAE?AV?$shared_ptr@VRawImageData@@@std@@V?$basic_string@DU?$char_traits@D@std@@V?$allocator@D@2@@3@_N1@Z$0 00400000 f   DraggingDemo.obj
 0001:fffff000       __unwindfunclet$?getImagebyURL@ImageManager@@QAE?AVSimpleImage@@V?$basic_string@DU?$char_traits@D@std@@V?$allocator@D@2@@std@@_N1@Z$0 00400000 f   DraggingDemo.obj
 0001:fffff000       __unwindfunclet$?loadAsNew@ImageManager@@QAE?AV?$shared_ptr@VRawImageData@@@std@@V?$basic_string@DU?$char_traits@D@std@@V?$allocator@D@2@@3@@Z$0 00400000 f   DraggingDemo.obj
 0001:fffff000       __unwindfunclet$?loadImage@RawImageData@@QAE_NV?$basic_string@DU?$char_traits@D@std@@V?$allocator@D@2@@std@@HHHHH_N@Z$0 00400000 f   DraggingDemo.obj
 0002:fffbd000       __unwindtable$??$?0U?$pair@V?$basic_string@DU?$char_traits@D@std@@V?$allocator@D@2@@std@@V?$shared_ptr@VRawImageData@@@2@@std@@@?$_Tree_temp_node@V?$allocator@U?$_Tree_node@U?$pair@$$CBV?$basic_string@DU?$char_traits@D@std@@V?$allocator@D@2@@std@@V?$shared_ptr@VRawImageData@@@2@@std@@PAX@std@@@std@@@std@@QAE@AAV?$allocator@U?$_Tree_node@U?$pair@$$CBV?$basic_string@DU?$char_traits@D@std@@V?$allocator@D@2@@std@@V?$shared_ptr@VRawImageData@@@2@@std@@PAX@std@@@1@PAU?$_Tree_node@U?$pair@$$CBV?$basic_string@DU?$char_traits@D@std@@V?$allocator@D@2@@std@@V?$shared_ptr@VRawImageData@@@2@@std@@PAX@1@$$QAU?$pair@V?$basic_string@DU?$char_traits@D@std@@V?$allocator@D@2@@std@@V?$shared_ptr@VRawImageData@@@2@@1@@Z 00400000     DraggingDemo.obj
 0002:fffbd000       __unwindtable$??$?0U?$pair@V?$basic_string@DU?$char_traits@D@std@@V?$allocator@D@2@@std@@V?$weak_ptr@VRawImageData@@@2@@std@@@?$_Tree_temp_node@V?$allocator@U?$_Tree_node@U?$pair@$$CBV?$basic_string@DU?$char_traits@D@std@@V?$allocator@D@2@@std@@V?$weak_ptr@VRawImageData@@@2@@std@@PAX@std@@@std@@@std@@QAE@AAV?$allocator@U?$_Tree_node@U?$pair@$$CBV?$basic_string@DU?$char_traits@D@std@@V?$allocator@D@2@@std@@V?$weak_ptr@VRawImageData@@@2@@std@@PAX@std@@@1@PAU?$_Tree_node@U?$pair@$$CBV?$basic_string@DU?$char_traits@D@std@@V?$allocator@D@2@@std@@V?$weak_ptr@VRawImageData@@@2@@std@@PAX@1@$$QAU?$pair@V?$basic_string@DU?$char_traits@D@std@@V?$allocator@D@2@@std@@V?$weak_ptr@VRawImageData@@@2@@1@@Z 00400000     DraggingDemo.obj
 0002:fffbd000       __unwindtable$??$?0VRawImageData@@$0A@@?$shared_ptr@VRawImageData@@@std@@QAE@PAVRawImageData@@@Z 00400000     DraggingDemo.obj
 0002:fffbd000       __unwindtable$??$_Construct@$00PBD@?$basic_string@DU?$char_traits@D@std@@V?$allocator@D@2@@std@@AAEXQBDI@Z 00400000     DraggingDemo.obj
 0002:fffbd000       __unwindtable$??$_Construct@$01PBD@?$basic_string@DU?$char_traits@D@std@@V?$allocator@D@2@@std@@AAEXQBDI@Z 00400000     DraggingDemo.obj
 0002:fffbd000       __unwindtable$??0?$_Tree_temp_node_alloc@V?$allocator@U?$_Tree_node@U?$pair@$$CBV?$basic_string@DU?$char_traits@D@std@@V?$allocator@D@2@@std@@V?$shared_ptr@VRawImageData@@@2@@std@@PAX@std@@@std@@@std@@QAE@AAV?$allocator@U?$_Tree_node@U?$pair@$$CBV?$basic_string@DU?$char_traits@D@std@@V?$allocator@D@2@@std@@V?$shared_ptr@VRawImageData@@@2@@std@@PAX@std@@@1@@Z 00400000     DraggingDemo.obj
 0002:fffbd000       __unwindtable$??0?$_Tree_temp_node_alloc@V?$allocator@U?$_Tree_node@U?$pair@$$CBV?$basic_string@DU?$char_traits@D@std@@V?$allocator@D@2@@std@@V?$weak_ptr@VRawImageData@@@2@@std@@PAX@std@@@std@@@std@@QAE@AAV?$allocator@U?$_Tree_node@U?$pair@$$CBV?$basic_string@DU?$char_traits@D@std@@V?$allocator@D@2@@std@@V?$weak_ptr@VRawImageData@@@2@@std@@PAX@std@@@1@@Z 00400000     DraggingDemo.obj
 0002:fffbd000       __unwindtable$??0?$basic_string@DU?$char_traits@D@std@@V?$allocator@D@2@@std@@QAE@ABV01@@Z 00400000     DraggingDemo.obj
 0002:fffbd000       __unwindtable$??0?$basic_string@DU?$char_traits@D@std@@V?$allocator@D@2@@std@@QAE@QBD@Z 00400000     DraggingDemo.obj
 0002:fffbd000       __unwindtable$??0ImageManager@@QAE@XZ 00400000     DraggingDemo.obj
 0002:fffbd000       __unwindtable$??0RawImageData@@QAE@V?$basic_string@DU?$char_traits@D@std@@V?$allocator@D@2@@std@@@Z 00400000     DraggingDemo.obj
 0002:fffbd000       __unwindtable$??0sentry@?$basic_ostream@DU?$char_traits@D@std@@@std@@QAE@AAV12@@Z 00400000     DraggingDemo.obj
 0002:fffbd000       __unwindtable$?_Alloc_sentinel_and_proxy@?$_Tree@V?$_Tmap_traits@V?$basic_string@DU?$char_traits@D@std@@V?$allocator@D@2@@std@@V?$shared_ptr@VRawImageData@@@2@U?$less@V?$basic_string@DU?$char_traits@D@std@@V?$allocator@D@2@@std@@@2@V?$allocator@U?$pair@$$CBV?$basic_string@DU?$char_traits@D@std@@V?$allocator@D@2@@std@@V?$shared_ptr@VRawImageData@@@2@@std@@@2@$0A@@std@@@std@@IAEXXZ 00400000     DraggingDemo.obj
 0002:fffbd000       __unwindtable$?_Alloc_sentinel_and_proxy@?$_Tree@V?$_Tmap_traits@V?$basic_string@DU?$char_traits@D@std@@V?$allocator@D@2@@std@@V?$weak_ptr@VRawImageData@@@2@U?$less@V?$basic_string@DU?$char_traits@D@std@@V?$allocator@D@2@@std@@@2@V?$allocator@U?$pair@$$CBV?$basic_string@DU?$char_traits@D@std@@V?$allocator@D@2@@std@@V?$weak_ptr@VRawImageData@@@2@@std@@@2@$0A@@std@@@std@@IAEXXZ 00400000     DraggingDemo.obj
 0002:fffbd000       __unwindtable$?_Orphan_range_locked@?$vector@PAVDisplayableObject@@V?$allocator@PAVDisplayableObject@@@std@@@std@@ABEXPAPAVDisplayableObject@@0@Z 00400000     DraggingDemo.obj
 0002:fffbd000       __unwindtable$?get@ImageManager@@SAPAV1@XZ 00400000     DraggingDemo.obj
 0002:fffbd000       __unwindtable$?getImagebyURL@ImageManager@@QAE?AVSimpleImage@@V?$basic_string@DU?$char_traits@D@std@@V?$allocator@D@2@@std@@_N1@Z 00400000     DraggingDemo.obj
 0002:fffbd000       __unwindtable$?loadAsNew@ImageManager@@QAE?AV?$shared_ptr@VRawImageData@@@std@@V?$basic_string@DU?$char_traits@D@std@@V?$allocator@D@2@@3@@Z 00400000     DraggingDemo.obj
 0002:fffbd000       __unwindtable$?loadImage@RawImageData@@QAE_NV?$basic_string@DU?$char_traits@D@std@@V?$allocator@D@2@@std@@HHHHH_N@Z 00400000     DraggingDemo.obj
 0000:00000000       _volmd                     00400000     DraggingDemo.obj
 0000:00000000       _volmd                     00400000     DraggingDemo.obj
 0000:00000000       _volmd                     00400000     DraggingDemo.obj
 0000:00000000       _volmd                     00400000     DraggingDemo.obj
 0000:00000000       _volmd                     00400000     DraggingDemo.obj
 0000:00000000       _volmd                     00400000     DraggingDemo.obj
 0000:00000000       _volmd                     00400000     DraggingDemo.obj
 0000:00000000       _volmd                     00400000     DraggingDemo.obj
 0000:00000000       _volmd                     00400000     DraggingDemo.obj
 0000:00000000       _volmd                     00400000     DraggingDemo.obj
 0000:00000000       _volmd                     00400000     DraggingDemo.obj
 0000:00000000       _volmd                     00400000     DraggingDemo.obj
 0000:00000000       _volmd                     00400000     DraggingDemo.obj
 0000:00000000       _volmd                     00400000     DraggingDemo.obj
 0000:00000000       _volmd                     00400000     DraggingDemo.obj
 0000:00000000       _volmd                     00400000     DraggingDemo.obj
 0000:00000000       _volmd                     00400000     DraggingDemo.obj
 0000:00000000       _volmd                     00400000     DraggingDemo.obj
 0000:00000000       _volmd                     00400000     DraggingDemo.obj
 0000:00000000       _volmd                     00400000     DraggingDemo.obj
 0000:00000000       _volmd                     00400000     DraggingDemo.obj
 0000:00000000       _volmd                     00400000     DraggingDemo.obj
 0000:00000000       _volmd                     00400000     DraggingDemo.obj
 0000:00000000       _volmd                     00400000     DraggingDemo.obj
 0000:00000000       _volmd                     00400000     DraggingDemo.obj
 0000:00000000       _volmd                     00400000     DraggingDemo.obj
 0000:00000000       _volmd                     00400000     DraggingDemo.obj
 0000:00000000       _volmd                     00400000     DraggingDemo.obj
 0000:00000000       _volmd                     00400000     DraggingDemo.obj
 0000:00000000       _volmd                     00400000     DraggingDemo.obj
 0000:00000000       _volmd                     00400000     DraggingDemo.obj
 0000:00000000       _volmd                     00400000     DraggingDemo.obj
 0000:00000000       _volmd                     00400000     DraggingDemo.obj
 0000:00000000       _volmd                     00400000     DraggingDemo.obj
 0000:00000000       _volmd                     00400000     DraggingDemo.obj
 0000:00000000       _volmd                     00400000     DraggingDemo.obj
 0000:00000000       _volmd                     00400000     DraggingDemo.obj
 0000:00000000       _volmd                     00400000     DraggingDemo.obj
 0000:00000000       _volmd                     00400000     DraggingDemo.obj
 0000:00000000       _volmd                     00400000     DraggingDemo.obj
 0000:00000000       _volmd                     00400000     DraggingDemo.obj
 0000:00000000       _volmd                     00400000     DraggingDemo.obj
 0000:00000000       _volmd                     00400000     DraggingDemo.obj
 0000:00000000       _volmd                     00400000     DraggingDemo.obj
 0000:00000000       _volmd                     00400000     DraggingDemo.obj
 0000:00000000       _volmd                     00400000     DraggingDemo.obj
 0002:fffbd000       __catchsym$??$?6U?$char_traits@D@std@@@std@@YAAAV?$basic_ostream@DU?$char_traits@D@std@@@0@AAV10@PBD@Z$3 00400000     DrawingSurface.obj
 0002:fffbd000       __ehfuncinfo$??1_Sentry_base@?$basic_ostream@DU?$char_traits@D@std@@@std@@QAE@XZ 00400000     DrawingSurface.obj
 0002:fffbd000       __ehfuncinfo$??1sentry@?$basic_ostream@DU?$char_traits@D@std@@@std@@QAE@XZ 00400000     DrawingSurface.obj
 0001:fffff000       __ehhandler$??1_Sentry_base@?$basic_ostream@DU?$char_traits@D@std@@@std@@QAE@XZ 00400000 f   DrawingSurface.obj
 0001:fffff000       __ehhandler$??1sentry@?$basic_ostream@DU?$char_traits@D@std@@@std@@QAE@XZ 00400000 f   DrawingSurface.obj
 0001:fffff000       __unwindfunclet$??$?6U?$char_traits@D@std@@@std@@YAAAV?$basic_ostream@DU?$char_traits@D@std@@@0@AAV10@PBD@Z$2 00400000 f   DrawingSurface.obj
 0001:fffff000       __unwindfunclet$??0sentry@?$basic_ostream@DU?$char_traits@D@std@@@std@@QAE@AAV12@@Z$0 00400000 f   DrawingSurface.obj
 0002:fffbd000       __unwindtable$??0sentry@?$basic_ostream@DU?$char_traits@D@std@@@std@@QAE@AAV12@@Z 00400000     DrawingSurface.obj
 0000:00000000       _volmd                     00400000     DrawingSurface.obj
 0000:00000000       _volmd                     00400000     DrawingSurface.obj
 0000:00000000       _volmd                     00400000     DrawingSurface.obj
 0000:00000000       _volmd                     00400000     DrawingSurface.obj
 0000:00000000       _volmd                     00400000     DrawingSurface.obj
 0002:fffbd000       __ehfuncinfo$??$_Deallocate@$07$0A@@std@@YAXPAXI@Z 00400000     End.obj
 0001:fffff000       __ehhandler$??$_Deallocate@$07$0A@@std@@YAXPAXI@Z 00400000 f   End.obj
 0000:00000000       _volmd                     00400000     End.obj
 0000:00000000       _volmd                     00400000     End.obj
 0000:00000000       _volmd                     00400000     End.obj
 0000:00000000       _volmd                     00400000     End.obj
 0000:00000000       _volmd                     00400000     End.obj
 0000:00000000       _volmd                     00400000     End.obj
 0002:fffbd000       __catchsym$??$?6U?$char_traits@D@std@@@std@@YAAAV?$basic_ostream@DU?$char_traits@D@std@@@0@AAV10@PBD@Z$3 00400000     FlashingDemo.obj
 0002:fffbd000       __ehfuncinfo$??1_Sentry_base@?$basic_ostream@DU?$char_traits@D@std@@@std@@QAE@XZ 00400000     FlashingDemo.obj
 0002:fffbd000       __ehfuncinfo$??1sentry@?$basic_ostream@DU?$char_traits@D@std@@@std@@QAE@XZ 00400000     FlashingDemo.obj
 0001:fffff000       __ehhandler$??1_Sentry_base@?$basic_ostream@DU?$char_traits@D@std@@@std@@QAE@XZ 00400000 f   FlashingDemo.obj
 0001:fffff000       __ehhandler$??1sentry@?$basic_ostream@DU?$char_traits@D@std@@@std@@QAE@XZ 00400000 f   FlashingDemo.obj
 0001:fffff000       __unwindfunclet$??$?6U?$char_traits@D@std@@@std@@YAAAV?$basic_ostream@DU?$char_traits@D@std@@@0@AAV10@PBD@Z$2 00400000 f   FlashingDemo.obj
 0001:fffff000       __unwindfunclet$??0sentry@?$basic_ostream@DU?$char_traits@D@std@@@std@@QAE@AAV12@@Z$0 00400000 f   FlashingDemo.obj
 0002:fffbd000       __unwindtable$??0sentry@?$basic_ostream@DU?$char_traits@D@std@@@std@@QAE@AAV12@@Z 00400000     FlashingDemo.obj
 0000:00000000       _volmd                     00400000     FlashingDemo.obj
 0000:00000000       _volmd                     00400000     FlashingDemo.obj
 0000:00000000       _volmd                     00400000     FlashingDemo.obj
 0000:00000000       _volmd                     00400000     FlashingDemo.obj
 0000:00000000       _volmd                     00400000     FlashingDemo.obj
 0000:00000000       _volmd                     00400000     FlashingDemo.obj
 0000:00000000       _volmd                     00400000     FontManager.obj
 0000:00000000       _volmd                     00400000     GameObject.obj
 0002:fffbd000       __catchsym$??$?6U?$char_traits@D@std@@@std@@YAAAV?$basic_ostream@DU?$char_traits@D@std@@@0@AAV10@PBD@Z$3 00400000     ImageMappingDemo.obj
 0002:fffbd000       __catchsym$??$_Insert_string@DU?$char_traits@D@std@@I@std@@YAAAV?$basic_ostream@DU?$char_traits@D@std@@@0@AAV10@QBDI@Z$3 00400000     ImageMappingDemo.obj
 0002:fffbd000       __catchsym$??$_Resize_reallocate@U_Value_init_tag@std@@@?$vector@PAVDisplayableObject@@V?$allocator@PAVDisplayableObject@@@std@@@std@@AAEXIABU_Value_init_tag@1@@Z$2 00400000     ImageMappingDemo.obj
 0002:fffbd000       __ehfuncinfo$??$_Deallocate@$07$0A@@std@@YAXPAXI@Z 00400000     ImageMappingDemo.obj
 0002:fffbd000       __ehfuncinfo$??$_Deallocate_plain@V?$allocator@U_Container_proxy@std@@@std@@@std@@YAXAAV?$allocator@U_Container_proxy@std@@@0@QAU_Container_proxy@0@@Z 00400000     ImageMappingDemo.obj
 0002:fffbd000       __ehfuncinfo$??$_Freenode0@V?$allocator@U?$_Tree_node@U?$pair@$$CBV?$basic_string@DU?$char_traits@D@std@@V?$allocator@D@2@@std@@V?$weak_ptr@VRawImageData@@@2@@std@@PAX@std@@@std@@@?$_Tree_node@U?$pair@$$CBV?$basic_string@DU?$char_traits@D@std@@V?$allocator@D@2@@std@@V?$weak_ptr@VRawImageData@@@2@@std@@PAX@std@@SAXAAV?$allocator@U?$_Tree_node@U?$pair@$$CBV?$basic_string@DU?$char_traits@D@std@@V?$allocator@D@2@@std@@V?$weak_ptr@VRawImageData@@@2@@std@@PAX@std@@@1@PAU01@@Z 00400000     ImageMappingDemo.obj
 0002:fffbd000       __ehfuncinfo$??$_Freenode@V?$allocator@U?$_Tree_node@U?$pair@$$CBV?$basic_string@DU?$char_traits@D@std@@V?$allocator@D@2@@std@@V?$weak_ptr@VRawImageData@@@2@@std@@PAX@std@@@std@@@?$_Tree_node@U?$pair@$$CBV?$basic_string@DU?$char_traits@D@std@@V?$allocator@D@2@@std@@V?$weak_ptr@VRawImageData@@@2@@std@@PAX@std@@SAXAAV?$allocator@U?$_Tree_node@U?$pair@$$CBV?$basic_string@DU?$char_traits@D@std@@V?$allocator@D@2@@std@@V?$weak_ptr@VRawImageData@@@2@@std@@PAX@std@@@1@PAU01@@Z 00400000     ImageMappingDemo.obj
 0002:fffbd000       __ehfuncinfo$??0?$basic_string@DU?$char_traits@D@std@@V?$allocator@D@2@@std@@QAE@$$QAV01@@Z 00400000     ImageMappingDemo.obj
 0002:fffbd000       __ehfuncinfo$??1?$_Alloc_construct_ptr@V?$allocator@U?$_Tree_node@U?$pair@$$CBV?$basic_string@DU?$char_traits@D@std@@V?$allocator@D@2@@std@@V?$shared_ptr@VRawImageData@@@2@@std@@PAX@std@@@std@@@std@@QAE@XZ 00400000     ImageMappingDemo.obj
 0002:fffbd000       __ehfuncinfo$??1?$_Alloc_construct_ptr@V?$allocator@U?$_Tree_node@U?$pair@$$CBV?$basic_string@DU?$char_traits@D@std@@V?$allocator@D@2@@std@@V?$weak_ptr@VRawImageData@@@2@@std@@PAX@std@@@std@@@std@@QAE@XZ 00400000     ImageMappingDemo.obj
 0002:fffbd000       __ehfuncinfo$??1?$_Tree_temp_node@V?$allocator@U?$_Tree_node@U?$pair@$$CBV?$basic_string@DU?$char_traits@D@std@@V?$allocator@D@2@@std@@V?$shared_ptr@VRawImageData@@@2@@std@@PAX@std@@@std@@@std@@QAE@XZ 00400000     ImageMappingDemo.obj
 0002:fffbd000       __ehfuncinfo$??1?$_Tree_temp_node@V?$allocator@U?$_Tree_node@U?$pair@$$CBV?$basic_string@DU?$char_traits@D@std@@V?$allocator@D@2@@std@@V?$weak_ptr@VRawImageData@@@2@@std@@PAX@std@@@std@@@std@@QAE@XZ 00400000     ImageMappingDemo.obj
 0002:fffbd000       __ehfuncinfo$??1RawImageData@@QAE@XZ 00400000     ImageMappingDemo.obj
 0002:fffbd000       __ehfuncinfo$??1_Sentry_base@?$basic_ostream@DU?$char_traits@D@std@@@std@@QAE@XZ 00400000     ImageMappingDemo.obj
 0002:fffbd000       __ehfuncinfo$??1sentry@?$basic_ostream@DU?$char_traits@D@std@@@std@@QAE@XZ 00400000     ImageMappingDemo.obj
 0002:fffbd000       __ehfuncinfo$?_Take_contents@?$basic_string@DU?$char_traits@D@std@@V?$allocator@D@2@@std@@AAEXAAV12@@Z 00400000     ImageMappingDemo.obj
 0002:fffbd000       __ehfuncinfo$?_Tidy_deallocate@?$basic_string@DU?$char_traits@D@std@@V?$allocator@D@2@@std@@AAEXXZ 00400000     ImageMappingDemo.obj
 0002:fffbd000       __ehfuncinfo$?getImagePtrbyURL@ImageManager@@QAE?AV?$shared_ptr@VRawImageData@@@std@@V?$basic_string@DU?$char_traits@D@std@@V?$allocator@D@2@@3@_N1@Z 00400000     ImageMappingDemo.obj
 0001:fffff000       __ehhandler$??$_Deallocate@$07$0A@@std@@YAXPAXI@Z 00400000 f   ImageMappingDemo.obj
 0001:fffff000       __ehhandler$??$_Deallocate_plain@V?$allocator@U_Container_proxy@std@@@std@@@std@@YAXAAV?$allocator@U_Container_proxy@std@@@0@QAU_Container_proxy@0@@Z 00400000 f   ImageMappingDemo.obj
 0001:fffff000       __ehhandler$??$_Freenode0@V?$allocator@U?$_Tree_node@U?$pair@$$CBV?$basic_string@DU?$char_traits@D@std@@V?$allocator@D@2@@std@@V?$weak_ptr@VRawImageData@@@2@@std@@PAX@std@@@std@@@?$_Tree_node@U?$pair@$$CBV?$basic_string@DU?$char_traits@D@std@@V?$allocator@D@2@@std@@V?$weak_ptr@VRawImageData@@@2@@std@@PAX@std@@SAXAAV?$allocator@U?$_Tree_node@U?$pair@$$CBV?$basic_string@DU?$char_traits@D@std@@V?$allocator@D@2@@std@@V?$weak_ptr@VRawImageData@@@2@@std@@PAX@std@@@1@PAU01@@Z 00400000 f   ImageMappingDemo.obj
 0001:fffff000       __ehhandler$??$_Freenode@V?$allocator@U?$_Tree_node@U?$pair@$$CBV?$basic_string@DU?$char_traits@D@std@@V?$allocator@D@2@@std@@V?$weak_ptr@VRawImageData@@@2@@std@@PAX@std@@@std@@@?$_Tree_node@U?$pair@$$CBV?$basic_string@DU?$char_traits@D@std@@V?$allocator@D@2@@std@@V?$weak_ptr@VRawImageData@@@2@@std@@PAX@std@@SAXAAV?$allocator@U?$_Tree_node@U?$pair@$$CBV?$basic_string@DU?$char_traits@D@std@@V?$allocator@D@2@@std@@V?$weak_ptr@VRawImageData@@@2@@std@@PAX@std@@@1@PAU01@@Z 00400000 f   ImageMappingDemo.obj
 0001:fffff000       __ehhandler$??$_Resize_reallocate@U_Value_init_tag@std@@@?$vector@PAVDisplayableObject@@V?$allocator@PAVDisplayableObject@@@std@@@std@@AAEXIABU_Value_init_tag@1@@Z 00400000 f   ImageMappingDemo.obj
 0001:fffff000       __ehhandler$??0?$basic_string@DU?$char_traits@D@std@@V?$allocator@D@2@@std@@QAE@$$QAV01@@Z 00400000 f   ImageMappingDemo.obj
 0001:fffff000       __ehhandler$??1?$_Alloc_construct_ptr@V?$allocator@U?$_Tree_node@U?$pair@$$CBV?$basic_string@DU?$char_traits@D@std@@V?$allocator@D@2@@std@@V?$shared_ptr@VRawImageData@@@2@@std@@PAX@std@@@std@@@std@@QAE@XZ 00400000 f   ImageMappingDemo.obj
 0001:fffff000       __ehhandler$??1?$_Alloc_construct_ptr@V?$allocator@U?$_Tree_node@U?$pair@$$CBV?$basic_string@DU?$char_traits@D@std@@V?$allocator@D@2@@std@@V?$weak_ptr@VRawImageData@@@2@@std@@PAX@std@@@std@@@std@@QAE@XZ 00400000 f   ImageMappingDemo.obj
 0001:fffff000       __ehhandler$??1?$_Tree_temp_node@V?$allocator@U?$_Tree_node@U?$pair@$$CBV?$basic_string@DU?$char_traits@D@std@@V?$allocator@D@2@@std@@V?$shared_ptr@VRawImageData@@@2@@std@@PAX@std@@@std@@@std@@QAE@XZ 00400000 f   ImageMappingDemo.obj
 0001:fffff000       __ehhandler$??1?$_Tree_temp_node@V?$allocator@U?$_Tree_node@U?$pair@$$CBV?$basic_string@DU?$char_traits@D@std@@V?$allocator@D@2@@std@@V?$weak_ptr@VRawImageData@@@2@@std@@PAX@std@@@std@@@std@@QAE@XZ 00400000 f   ImageMappingDemo.obj
 0001:fffff000       __ehhandler$??1RawImageData@@QAE@XZ 00400000 f   ImageMappingDemo.obj
 0001:fffff000       __ehhandler$??1_Sentry_base@?$basic_ostream@DU?$char_traits@D@std@@@std@@QAE@XZ 00400000 f   ImageMappingDemo.obj
 0001:fffff000       __ehhandler$??1sentry@?$basic_ostream@DU?$char_traits@D@std@@@std@@QAE@XZ 00400000 f   ImageMappingDemo.obj
 0001:fffff000       __ehhandler$?_Take_contents@?$basic_string@DU?$char_traits@D@std@@V?$allocator@D@2@@std@@AAEXAAV12@@Z 00400000 f   ImageMappingDemo.obj
 0001:fffff000       __ehhandler$?_Tidy_deallocate@?$basic_string@DU?$char_traits@D@std@@V?$allocator@D@2@@std@@AAEXXZ 00400000 f   ImageMappingDemo.obj
 0001:fffff000       __unwindfunclet$??$?0U?$pair@V?$basic_string@DU?$char_traits@D@std@@V?$allocator@D@2@@std@@V?$shared_ptr@VRawImageData@@@2@@std@@@?$_Tree_temp_node@V?$allocator@U?$_Tree_node@U?$pair@$$CBV?$basic_string@DU?$char_traits@D@std@@V?$allocator@D@2@@std@@V?$shared_ptr@VRawImageData@@@2@@std@@PAX@std@@@std@@@std@@QAE@AAV?$allocator@U?$_Tree_node@U?$pair@$$CBV?$basic_string@DU?$char_traits@D@std@@V?$allocator@D@2@@std@@V?$shared_ptr@VRawImageData@@@2@@std@@PAX@std@@@1@PAU?$_Tree_node@U?$pair@$$CBV?$basic_string@DU?$char_traits@D@std@@V?$allocator@D@2@@std@@V?$shared_ptr@VRawImageData@@@2@@std@@PAX@1@$$QAU?$pair@V?$basic_string@DU?$char_traits@D@std@@V?$allocator@D@2@@std@@V?$shared_ptr@VRawImageData@@@2@@1@@Z$0 00400000 f   ImageMappingDemo.obj
 0001:fffff000       __unwindfunclet$??$?0U?$pair@V?$basic_string@DU?$char_traits@D@std@@V?$allocator@D@2@@std@@V?$weak_ptr@VRawImageData@@@2@@std@@@?$_Tree_temp_node@V?$allocator@U?$_Tree_node@U?$pair@$$CBV?$basic_string@DU?$char_traits@D@std@@V?$allocator@D@2@@std@@V?$weak_ptr@VRawImageData@@@2@@std@@PAX@std@@@std@@@std@@QAE@AAV?$allocator@U?$_Tree_node@U?$pair@$$CBV?$basic_string@DU?$char_traits@D@std@@V?$allocator@D@2@@std@@V?$weak_ptr@VRawImageData@@@2@@std@@PAX@std@@@1@PAU?$_Tree_node@U?$pair@$$CBV?$basic_string@DU?$char_traits@D@std@@V?$allocator@D@2@@std@@V?$weak_ptr@VRawImageData@@@2@@std@@PAX@1@$$QAU?$pair@V?$basic_string@DU?$char_traits@D@std@@V?$allocator@D@2@@std@@V?$weak_ptr@VRawImageData@@@2@@1@@Z$0 00400000 f   ImageMappingDemo.obj
 0001:fffff000       __unwindfunclet$??$?0VRawImageData@@$0A@@?$shared_ptr@VRawImageData@@@std@@QAE@PAVRawImageData@@@Z$0 00400000 f   ImageMappingDemo.obj
 0001:fffff000       __unwindfunclet$??$?6U?$char_traits@D@std@@@std@@YAAAV?$basic_ostream@DU?$char_traits@D@std@@@0@AAV10@PBD@Z$2 00400000 f   ImageMappingDemo.obj
 0001:fffff000       __unwindfunclet$??$_Construct@$00PBD@?$basic_string@DU?$char_traits@D@std@@V?$allocator@D@2@@std@@AAEXQBDI@Z$0 00400000 f   ImageMappingDemo.obj
 0001:fffff000       __unwindfunclet$??$_Construct@$01PBD@?$basic_string@DU?$char_traits@D@std@@V?$allocator@D@2@@std@@AAEXQBDI@Z$0 00400000 f   ImageMappingDemo.obj
 0001:fffff000       __unwindfunclet$??$_Insert_string@DU?$char_traits@D@std@@I@std@@YAAAV?$basic_ostream@DU?$char_traits@D@std@@@0@AAV10@QBDI@Z$2 00400000 f   ImageMappingDemo.obj
 0001:fffff000       __unwindfunclet$??$_Uninitialized_move@PAPAVDisplayableObject@@V?$allocator@PAVDisplayableObject@@@std@@@std@@YAPAPAVDisplayableObject@@QAPAV1@0PAPAV1@AAV?$allocator@PAVDisplayableObject@@@0@@Z$0 00400000 f   ImageMappingDemo.obj
 0001:fffff000       __unwindfunclet$??$_Uninitialized_value_construct_n@V?$allocator@PAVDisplayableObject@@@std@@@std@@YAPAPAVDisplayableObject@@PAPAV1@IAAV?$allocator@PAVDisplayableObject@@@0@@Z$0 00400000 f   ImageMappingDemo.obj
 0001:fffff000       __unwindfunclet$??0?$_Tree_temp_node_alloc@V?$allocator@U?$_Tree_node@U?$pair@$$CBV?$basic_string@DU?$char_traits@D@std@@V?$allocator@D@2@@std@@V?$shared_ptr@VRawImageData@@@2@@std@@PAX@std@@@std@@@std@@QAE@AAV?$allocator@U?$_Tree_node@U?$pair@$$CBV?$basic_string@DU?$char_traits@D@std@@V?$allocator@D@2@@std@@V?$shared_ptr@VRawImageData@@@2@@std@@PAX@std@@@1@@Z$0 00400000 f   ImageMappingDemo.obj
 0001:fffff000       __unwindfunclet$??0?$_Tree_temp_node_alloc@V?$allocator@U?$_Tree_node@U?$pair@$$CBV?$basic_string@DU?$char_traits@D@std@@V?$allocator@D@2@@std@@V?$weak_ptr@VRawImageData@@@2@@std@@PAX@std@@@std@@@std@@QAE@AAV?$allocator@U?$_Tree_node@U?$pair@$$CBV?$basic_string@DU?$char_traits@D@std@@V?$allocator@D@2@@std@@V?$weak_ptr@VRawImageData@@@2@@std@@PAX@std@@@1@@Z$0 00400000 f   ImageMappingDemo.obj
 0001:fffff000       __unwindfunclet$??0?$basic_string@DU?$char_traits@D@std@@V?$allocator@D@2@@std@@QAE@ABV01@@Z$0 00400000 f   ImageMappingDemo.obj
 0001:fffff000       __unwindfunclet$??0?$basic_string@DU?$char_traits@D@std@@V?$allocator@D@2@@std@@QAE@QBD@Z$0 00400000 f   ImageMappingDemo.obj
 0001:fffff000       __unwindfunclet$??0DragableImageObject@@QAE@HHPAVBaseEngine@@V?$basic_string@DU?$char_traits@D@std@@V?$allocator@D@2@@std@@_N2@Z$0 00400000 f   ImageMappingDemo.obj
 0001:fffff000       __unwindfunclet$??0ImageManager@@QAE@XZ$0 00400000 f   ImageMappingDemo.obj
 0001:fffff000       __unwindfunclet$??0RawImageData@@QAE@V?$basic_string@DU?$char_traits@D@std@@V?$allocator@D@2@@std@@@Z$0 00400000 f   ImageMappingDemo.obj
 0001:fffff000       __unwindfunclet$??0sentry@?$basic_ostream@DU?$char_traits@D@std@@@std@@QAE@AAV12@@Z$0 00400000 f   ImageMappingDemo.obj
 0001:fffff000       __unwindfunclet$?_Alloc_sentinel_and_proxy@?$_Tree@V?$_Tmap_traits@V?$basic_string@DU?$char_traits@D@std@@V?$allocator@D@2@@std@@V?$shared_ptr@VRawImageData@@@2@U?$less@V?$basic_string@DU?$char_traits@D@std@@V?$allocator@D@2@@std@@@2@V?$allocator@U?$pair@$$CBV?$basic_string@DU?$char_traits@D@std@@V?$allocator@D@2@@std@@V?$shared_ptr@VRawImageData@@@2@@std@@@2@$0A@@std@@@std@@IAEXXZ$0 00400000 f   ImageMappingDemo.obj
 0001:fffff000       __unwindfunclet$?_Alloc_sentinel_and_proxy@?$_Tree@V?$_Tmap_traits@V?$basic_string@DU?$char_traits@D@std@@V?$allocator@D@2@@std@@V?$weak_ptr@VRawImageData@@@2@U?$less@V?$basic_string@DU?$char_traits@D@std@@V?$allocator@D@2@@std@@@2@V?$allocator@U?$pair@$$CBV?$basic_string@DU?$char_traits@D@std@@V?$allocator@D@2@@std@@V?$weak_ptr@VRawImageData@@@2@@std@@@2@$0A@@std@@@std@@IAEXXZ$0 00400000 f   ImageMappingDemo.obj
 0001:fffff000       __unwindfunclet$?_Orphan_range_locked@?$vector@PAVDisplayableObject@@V?$allocator@PAVDisplayableObject@@@std@@@std@@ABEXPAPAVDisplayableObject@@0@Z$0 00400000 f   ImageMappingDemo.obj
 0001:fffff000       __unwindfunclet$?get@ImageManager@@SAPAV1@XZ$0 00400000 f   ImageMappingDemo.obj
 0001:fffff000       __unwindfunclet$?getImagePtrbyURL@ImageManager@@QAE?AV?$shared_ptr@VRawImageData@@@std@@V?$basic_string@DU?$char_traits@D@std@@V?$allocator@D@2@@3@_N1@Z$0 00400000 f   ImageMappingDemo.obj
 0001:fffff000       __unwindfunclet$?getImagebyURL@ImageManager@@QAE?AVSimpleImage@@V?$basic_string@DU?$char_traits@D@std@@V?$allocator@D@2@@std@@_N1@Z$0 00400000 f   ImageMappingDemo.obj
 0001:fffff000       __unwindfunclet$?loadAsNew@ImageManager@@QAE?AV?$shared_ptr@VRawImageData@@@std@@V?$basic_string@DU?$char_traits@D@std@@V?$allocator@D@2@@3@@Z$0 00400000 f   ImageMappingDemo.obj
 0001:fffff000       __unwindfunclet$?loadImage@RawImageData@@QAE_NV?$basic_string@DU?$char_traits@D@std@@V?$allocator@D@2@@std@@HHHHH_N@Z$0 00400000 f   ImageMappingDemo.obj
 0002:fffbd000       __unwindtable$??$?0U?$pair@V?$basic_string@DU?$char_traits@D@std@@V?$allocator@D@2@@std@@V?$shared_ptr@VRawImageData@@@2@@std@@@?$_Tree_temp_node@V?$allocator@U?$_Tree_node@U?$pair@$$CBV?$basic_string@DU?$char_traits@D@std@@V?$allocator@D@2@@std@@V?$shared_ptr@VRawImageData@@@2@@std@@PAX@std@@@std@@@std@@QAE@AAV?$allocator@U?$_Tree_node@U?$pair@$$CBV?$basic_string@DU?$char_traits@D@std@@V?$allocator@D@2@@std@@V?$shared_ptr@VRawImageData@@@2@@std@@PAX@std@@@1@PAU?$_Tree_node@U?$pair@$$CBV?$basic_string@DU?$char_traits@D@std@@V?$allocator@D@2@@std@@V?$shared_ptr@VRawImageData@@@2@@std@@PAX@1@$$QAU?$pair@V?$basic_string@DU?$char_traits@D@std@@V?$allocator@D@2@@std@@V?$shared_ptr@VRawImageData@@@2@@1@@Z 00400000     ImageMappingDemo.obj
 0002:fffbd000       __unwindtable$??$?0U?$pair@V?$basic_string@DU?$char_traits@D@std@@V?$allocator@D@2@@std@@V?$weak_ptr@VRawImageData@@@2@@std@@@?$_Tree_temp_node@V?$allocator@U?$_Tree_node@U?$pair@$$CBV?$basic_string@DU?$char_traits@D@std@@V?$allocator@D@2@@std@@V?$weak_ptr@VRawImageData@@@2@@std@@PAX@std@@@std@@@std@@QAE@AAV?$allocator@U?$_Tree_node@U?$pair@$$CBV?$basic_string@DU?$char_traits@D@std@@V?$allocator@D@2@@std@@V?$weak_ptr@VRawImageData@@@2@@std@@PAX@std@@@1@PAU?$_Tree_node@U?$pair@$$CBV?$basic_string@DU?$char_traits@D@std@@V?$allocator@D@2@@std@@V?$weak_ptr@VRawImageData@@@2@@std@@PAX@1@$$QAU?$pair@V?$basic_string@DU?$char_traits@D@std@@V?$allocator@D@2@@std@@V?$weak_ptr@VRawImageData@@@2@@1@@Z 00400000     ImageMappingDemo.obj
 0002:fffbd000       __unwindtable$??$?0VRawImageData@@$0A@@?$shared_ptr@VRawImageData@@@std@@QAE@PAVRawImageData@@@Z 00400000     ImageMappingDemo.obj
 0002:fffbd000       __unwindtable$??$_Construct@$00PBD@?$basic_string@DU?$char_traits@D@std@@V?$allocator@D@2@@std@@AAEXQBDI@Z 00400000     ImageMappingDemo.obj
 0002:fffbd000       __unwindtable$??$_Construct@$01PBD@?$basic_string@DU?$char_traits@D@std@@V?$allocator@D@2@@std@@AAEXQBDI@Z 00400000     ImageMappingDemo.obj
 0002:fffbd000       __unwindtable$??$_Uninitialized_move@PAPAVDisplayableObject@@V?$allocator@PAVDisplayableObject@@@std@@@std@@YAPAPAVDisplayableObject@@QAPAV1@0PAPAV1@AAV?$allocator@PAVDisplayableObject@@@0@@Z 00400000     ImageMappingDemo.obj
 0002:fffbd000       __unwindtable$??$_Uninitialized_value_construct_n@V?$allocator@PAVDisplayableObject@@@std@@@std@@YAPAPAVDisplayableObject@@PAPAV1@IAAV?$allocator@PAVDisplayableObject@@@0@@Z 00400000     ImageMappingDemo.obj
 0002:fffbd000       __unwindtable$??0?$_Tree_temp_node_alloc@V?$allocator@U?$_Tree_node@U?$pair@$$CBV?$basic_string@DU?$char_traits@D@std@@V?$allocator@D@2@@std@@V?$shared_ptr@VRawImageData@@@2@@std@@PAX@std@@@std@@@std@@QAE@AAV?$allocator@U?$_Tree_node@U?$pair@$$CBV?$basic_string@DU?$char_traits@D@std@@V?$allocator@D@2@@std@@V?$shared_ptr@VRawImageData@@@2@@std@@PAX@std@@@1@@Z 00400000     ImageMappingDemo.obj
 0002:fffbd000       __unwindtable$??0?$_Tree_temp_node_alloc@V?$allocator@U?$_Tree_node@U?$pair@$$CBV?$basic_string@DU?$char_traits@D@std@@V?$allocator@D@2@@std@@V?$weak_ptr@VRawImageData@@@2@@std@@PAX@std@@@std@@@std@@QAE@AAV?$allocator@U?$_Tree_node@U?$pair@$$CBV?$basic_string@DU?$char_traits@D@std@@V?$allocator@D@2@@std@@V?$weak_ptr@VRawImageData@@@2@@std@@PAX@std@@@1@@Z 00400000     ImageMappingDemo.obj
 0002:fffbd000       __unwindtable$??0?$basic_string@DU?$char_traits@D@std@@V?$allocator@D@2@@std@@QAE@ABV01@@Z 00400000     ImageMappingDemo.obj
 0002:fffbd000       __unwindtable$??0?$basic_string@DU?$char_traits@D@std@@V?$allocator@D@2@@std@@QAE@QBD@Z 00400000     ImageMappingDemo.obj
 0002:fffbd000       __unwindtable$??0DragableImageObject@@QAE@HHPAVBaseEngine@@V?$basic_string@DU?$char_traits@D@std@@V?$allocator@D@2@@std@@_N2@Z 00400000     ImageMappingDemo.obj
 0002:fffbd000       __unwindtable$??0ImageManager@@QAE@XZ 00400000     ImageMappingDemo.obj
 0002:fffbd000       __unwindtable$??0RawImageData@@QAE@V?$basic_string@DU?$char_traits@D@std@@V?$allocator@D@2@@std@@@Z 00400000     ImageMappingDemo.obj
 0002:fffbd000       __unwindtable$??0sentry@?$basic_ostream@DU?$char_traits@D@std@@@std@@QAE@AAV12@@Z 00400000     ImageMappingDemo.obj
 0002:fffbd000       __unwindtable$?_Alloc_sentinel_and_proxy@?$_Tree@V?$_Tmap_traits@V?$basic_string@DU?$char_traits@D@std@@V?$allocator@D@2@@std@@V?$shared_ptr@VRawImageData@@@2@U?$less@V?$basic_string@DU?$char_traits@D@std@@V?$allocator@D@2@@std@@@2@V?$allocator@U?$pair@$$CBV?$basic_string@DU?$char_traits@D@std@@V?$allocator@D@2@@std@@V?$shared_ptr@VRawImageData@@@2@@std@@@2@$0A@@std@@@std@@IAEXXZ 00400000     ImageMappingDemo.obj
 0002:fffbd000       __unwindtable$?_Alloc_sentinel_and_proxy@?$_Tree@V?$_Tmap_traits@V?$basic_string@DU?$char_traits@D@std@@V?$allocator@D@2@@std@@V?$weak_ptr@VRawImageData@@@2@U?$less@V?$basic_string@DU?$char_traits@D@std@@V?$allocator@D@2@@std@@@2@V?$allocator@U?$pair@$$CBV?$basic_string@DU?$char_traits@D@std@@V?$allocator@D@2@@std@@V?$weak_ptr@VRawImageData@@@2@@std@@@2@$0A@@std@@@std@@IAEXXZ 00400000     ImageMappingDemo.obj
 0002:fffbd000       __unwindtable$?_Orphan_range_locked@?$vector@PAVDisplayableObject@@V?$allocator@PAVDisplayableObject@@@std@@@std@@ABEXPAPAVDisplayableObject@@0@Z 00400000     ImageMappingDemo.obj
 0002:fffbd000       __unwindtable$?get@ImageManager@@SAPAV1@XZ 00400000     ImageMappingDemo.obj
 0002:fffbd000       __unwindtable$?getImagebyURL@ImageManager@@QAE?AVSimpleImage@@V?$basic_string@DU?$char_traits@D@std@@V?$allocator@D@2@@std@@_N1@Z 00400000     ImageMappingDemo.obj
 0002:fffbd000       __unwindtable$?loadAsNew@ImageManager@@QAE?AV?$shared_ptr@VRawImageData@@@std@@V?$basic_string@DU?$char_traits@D@std@@V?$allocator@D@2@@3@@Z 00400000     ImageMappingDemo.obj
 0002:fffbd000       __unwindtable$?loadImage@RawImageData@@QAE_NV?$basic_string@DU?$char_traits@D@std@@V?$allocator@D@2@@std@@HHHHH_N@Z 00400000     ImageMappingDemo.obj
 0000:00000000       _volmd                     00400000     ImageMappingDemo.obj
 0000:00000000       _volmd                     00400000     ImageMappingDemo.obj
 0000:00000000       _volmd                     00400000     ImageMappingDemo.obj
 0000:00000000       _volmd                     00400000     ImageMappingDemo.obj
 0000:00000000       _volmd                     00400000     ImageMappingDemo.obj
 0000:00000000       _volmd                     00400000     ImageMappingDemo.obj
 0000:00000000       _volmd                     00400000     ImageMappingDemo.obj
 0000:00000000       _volmd                     00400000     ImageMappingDemo.obj
 0000:00000000       _volmd                     00400000     ImageMappingDemo.obj
 0000:00000000       _volmd                     00400000     ImageMappingDemo.obj
 0000:00000000       _volmd                     00400000     ImageMappingDemo.obj
 0000:00000000       _volmd                     00400000     ImageMappingDemo.obj
 0000:00000000       _volmd                     00400000     ImageMappingDemo.obj
 0000:00000000       _volmd                     00400000     ImageMappingDemo.obj
 0000:00000000       _volmd                     00400000     ImageMappingDemo.obj
 0000:00000000       _volmd                     00400000     ImageMappingDemo.obj
 0000:00000000       _volmd                     00400000     ImageMappingDemo.obj
 0000:00000000       _volmd                     00400000     ImageMappingDemo.obj
 0000:00000000       _volmd                     00400000     ImageMappingDemo.obj
 0000:00000000       _volmd                     00400000     ImageMappingDemo.obj
 0000:00000000       _volmd                     00400000     ImageMappingDemo.obj
 0000:00000000       _volmd                     00400000     ImageMappingDemo.obj
 0000:00000000       _volmd                     00400000     ImageMappingDemo.obj
 0000:00000000       _volmd                     00400000     ImageMappingDemo.obj
 0000:00000000       _volmd                     00400000     ImageMappingDemo.obj
 0000:00000000       _volmd                     00400000     ImageMappingDemo.obj
 0000:00000000       _volmd                     00400000     ImageMappingDemo.obj
 0000:00000000       _volmd                     00400000     ImageMappingDemo.obj
 0000:00000000       _volmd                     00400000     ImageMappingDemo.obj
 0000:00000000       _volmd                     00400000     ImageMappingDemo.obj
 0000:00000000       _volmd                     00400000     ImageMappingDemo.obj
 0000:00000000       _volmd                     00400000     ImageMappingDemo.obj
 0000:00000000       _volmd                     00400000     ImageMappingDemo.obj
 0000:00000000       _volmd                     00400000     ImageMappingDemo.obj
 0000:00000000       _volmd                     00400000     ImageMappingDemo.obj
 0000:00000000       _volmd                     00400000     ImageMappingDemo.obj
 0000:00000000       _volmd                     00400000     ImageMappingDemo.obj
 0000:00000000       _volmd                     00400000     ImageMappingDemo.obj
 0000:00000000       _volmd                     00400000     ImageMappingDemo.obj
 0000:00000000       _volmd                     00400000     ImageMappingDemo.obj
 0000:00000000       _volmd                     00400000     ImageMappingDemo.obj
 0000:00000000       _volmd                     00400000     ImageMappingDemo.obj
 0000:00000000       _volmd                     00400000     ImageMappingDemo.obj
 0000:00000000       _volmd                     00400000     ImageMappingDemo.obj
 0002:fffbd000       __catchsym$??$_Resize_reallocate@U_Value_init_tag@std@@@?$vector@PAVDisplayableObject@@V?$allocator@PAVDisplayableObject@@@std@@@std@@AAEXIABU_Value_init_tag@1@@Z$2 00400000     MazeDemoMain.obj
 0002:fffbd000       __ehfuncinfo$??$_Deallocate@$07$0A@@std@@YAXPAXI@Z 00400000     MazeDemoMain.obj
 0001:fffff000       __ehhandler$??$_Deallocate@$07$0A@@std@@YAXPAXI@Z 00400000 f   MazeDemoMain.obj
 0001:fffff000       __ehhandler$??$_Resize_reallocate@U_Value_init_tag@std@@@?$vector@PAVDisplayableObject@@V?$allocator@PAVDisplayableObject@@@std@@@std@@AAEXIABU_Value_init_tag@1@@Z 00400000 f   MazeDemoMain.obj
 0001:fffff000       __unwindfunclet$??$_Uninitialized_move@PAPAVDisplayableObject@@V?$allocator@PAVDisplayableObject@@@std@@@std@@YAPAPAVDisplayableObject@@QAPAV1@0PAPAV1@AAV?$allocator@PAVDisplayableObject@@@0@@Z$0 00400000 f   MazeDemoMain.obj
 0001:fffff000       __unwindfunclet$??$_Uninitialized_value_construct_n@V?$allocator@PAVDisplayableObject@@@std@@@std@@YAPAPAVDisplayableObject@@PAPAV1@IAAV?$allocator@PAVDisplayableObject@@@0@@Z$0 00400000 f   MazeDemoMain.obj
 0001:fffff000       __unwindfunclet$?_Orphan_range_locked@?$vector@PAVDisplayableObject@@V?$allocator@PAVDisplayableObject@@@std@@@std@@ABEXPAPAVDisplayableObject@@0@Z$0 00400000 f   MazeDemoMain.obj
 0001:fffff000       __unwindfunclet$?setAllObjectsVisible@DisplayableObjectContainer@@QBEX_N@Z$0 00400000 f   MazeDemoMain.obj
 0002:fffbd000       __unwindtable$??$_Uninitialized_move@PAPAVDisplayableObject@@V?$allocator@PAVDisplayableObject@@@std@@@std@@YAPAPAVDisplayableObject@@QAPAV1@0PAPAV1@AAV?$allocator@PAVDisplayableObject@@@0@@Z 00400000     MazeDemoMain.obj
 0002:fffbd000       __unwindtable$??$_Uninitialized_value_construct_n@V?$allocator@PAVDisplayableObject@@@std@@@std@@YAPAPAVDisplayableObject@@PAPAV1@IAAV?$allocator@PAVDisplayableObject@@@0@@Z 00400000     MazeDemoMain.obj
 0002:fffbd000       __unwindtable$?_Orphan_range_locked@?$vector@PAVDisplayableObject@@V?$allocator@PAVDisplayableObject@@@std@@@std@@ABEXPAPAVDisplayableObject@@0@Z 00400000     MazeDemoMain.obj
 0002:fffbd000       __unwindtable$?setAllObjectsVisible@DisplayableObjectContainer@@QBEX_N@Z 00400000     MazeDemoMain.obj
 0000:00000000       _volmd                     00400000     MazeDemoMain.obj
 0000:00000000       _volmd                     00400000     MazeDemoMain.obj
 0000:00000000       _volmd                     00400000     MazeDemoMain.obj
 0000:00000000       _volmd                     00400000     MazeDemoMain.obj
 0000:00000000       _volmd                     00400000     MazeDemoMain.obj
 0000:00000000       _volmd                     00400000     MazeDemoMain.obj
 0000:00000000       _volmd                     00400000     MazeDemoMain.obj
 0000:00000000       _volmd                     00400000     MazeDemoMain.obj
 0000:00000000       _volmd                     00400000     MazeDemoObject.obj
 0000:00000000       _volmd                     00400000     Play.obj
 0000:00000000       _volmd                     00400000     Play.obj
 0002:fffbd000       __catchsym$??$?6U?$char_traits@D@std@@@std@@YAAAV?$basic_ostream@DU?$char_traits@D@std@@@0@AAV10@PBD@Z$3 00400000     Psyew3Engine.obj
 0002:fffbd000       __catchsym$??$_Insert_string@DU?$char_traits@D@std@@I@std@@YAAAV?$basic_ostream@DU?$char_traits@D@std@@@0@AAV10@QBDI@Z$3 00400000     Psyew3Engine.obj
 0002:fffbd000       __catchsym$??$_Resize_reallocate@U_Value_init_tag@std@@@?$vector@PAVDisplayableObject@@V?$allocator@PAVDisplayableObject@@@std@@@std@@AAEXIABU_Value_init_tag@1@@Z$2 00400000     Psyew3Engine.obj
 0002:fffbd000       __ehfuncinfo$??$_Deallocate@$07$0A@@std@@YAXPAXI@Z 00400000     Psyew3Engine.obj
 0002:fffbd000       __ehfuncinfo$??$_Deallocate_plain@V?$allocator@U_Container_proxy@std@@@std@@@std@@YAXAAV?$allocator@U_Container_proxy@std@@@0@QAU_Container_proxy@0@@Z 00400000     Psyew3Engine.obj
 0002:fffbd000       __ehfuncinfo$??$_Freenode0@V?$allocator@U?$_Tree_node@U?$pair@$$CBV?$basic_string@DU?$char_traits@D@std@@V?$allocator@D@2@@std@@V?$weak_ptr@VRawImageData@@@2@@std@@PAX@std@@@std@@@?$_Tree_node@U?$pair@$$CBV?$basic_string@DU?$char_traits@D@std@@V?$allocator@D@2@@std@@V?$weak_ptr@VRawImageData@@@2@@std@@PAX@std@@SAXAAV?$allocator@U?$_Tree_node@U?$pair@$$CBV?$basic_string@DU?$char_traits@D@std@@V?$allocator@D@2@@std@@V?$weak_ptr@VRawImageData@@@2@@std@@PAX@std@@@1@PAU01@@Z 00400000     Psyew3Engine.obj
 0002:fffbd000       __ehfuncinfo$??$_Freenode@V?$allocator@U?$_Tree_node@U?$pair@$$CBV?$basic_string@DU?$char_traits@D@std@@V?$allocator@D@2@@std@@V?$weak_ptr@VRawImageData@@@2@@std@@PAX@std@@@std@@@?$_Tree_node@U?$pair@$$CBV?$basic_string@DU?$char_traits@D@std@@V?$allocator@D@2@@std@@V?$weak_ptr@VRawImageData@@@2@@std@@PAX@std@@SAXAAV?$allocator@U?$_Tree_node@U?$pair@$$CBV?$basic_string@DU?$char_traits@D@std@@V?$allocator@D@2@@std@@V?$weak_ptr@VRawImageData@@@2@@std@@PAX@std@@@1@PAU01@@Z 00400000     Psyew3Engine.obj
 0002:fffbd000       __ehfuncinfo$??0?$basic_string@DU?$char_traits@D@std@@V?$allocator@D@2@@std@@QAE@$$QAV01@@Z 00400000     Psyew3Engine.obj
 0002:fffbd000       __ehfuncinfo$??1?$_Alloc_construct_ptr@V?$allocator@U?$_Tree_node@U?$pair@$$CBV?$basic_string@DU?$char_traits@D@std@@V?$allocator@D@2@@std@@V?$shared_ptr@VRawImageData@@@2@@std@@PAX@std@@@std@@@std@@QAE@XZ 00400000     Psyew3Engine.obj
 0002:fffbd000       __ehfuncinfo$??1?$_Alloc_construct_ptr@V?$allocator@U?$_Tree_node@U?$pair@$$CBV?$basic_string@DU?$char_traits@D@std@@V?$allocator@D@2@@std@@V?$weak_ptr@VRawImageData@@@2@@std@@PAX@std@@@std@@@std@@QAE@XZ 00400000     Psyew3Engine.obj
 0002:fffbd000       __ehfuncinfo$??1?$_Tree_temp_node@V?$allocator@U?$_Tree_node@U?$pair@$$CBV?$basic_string@DU?$char_traits@D@std@@V?$allocator@D@2@@std@@V?$shared_ptr@VRawImageData@@@2@@std@@PAX@std@@@std@@@std@@QAE@XZ 00400000     Psyew3Engine.obj
 0002:fffbd000       __ehfuncinfo$??1?$_Tree_temp_node@V?$allocator@U?$_Tree_node@U?$pair@$$CBV?$basic_string@DU?$char_traits@D@std@@V?$allocator@D@2@@std@@V?$weak_ptr@VRawImageData@@@2@@std@@PAX@std@@@std@@@std@@QAE@XZ 00400000     Psyew3Engine.obj
 0002:fffbd000       __ehfuncinfo$??1RawImageData@@QAE@XZ 00400000     Psyew3Engine.obj
 0002:fffbd000       __ehfuncinfo$??1_Sentry_base@?$basic_ostream@DU?$char_traits@D@std@@@std@@QAE@XZ 00400000     Psyew3Engine.obj
 0002:fffbd000       __ehfuncinfo$??1sentry@?$basic_ostream@DU?$char_traits@D@std@@@std@@QAE@XZ 00400000     Psyew3Engine.obj
 0002:fffbd000       __ehfuncinfo$?_Take_contents@?$basic_string@DU?$char_traits@D@std@@V?$allocator@D@2@@std@@AAEXAAV12@@Z 00400000     Psyew3Engine.obj
 0002:fffbd000       __ehfuncinfo$?_Tidy_deallocate@?$basic_string@DU?$char_traits@D@std@@V?$allocator@D@2@@std@@AAEXXZ 00400000     Psyew3Engine.obj
 0002:fffbd000       __ehfuncinfo$?getImagePtrbyURL@ImageManager@@QAE?AV?$shared_ptr@VRawImageData@@@std@@V?$basic_string@DU?$char_traits@D@std@@V?$allocator@D@2@@3@_N1@Z 00400000     Psyew3Engine.obj
 0001:fffff000       __ehhandler$??$_Deallocate@$07$0A@@std@@YAXPAXI@Z 00400000 f   Psyew3Engine.obj
 0001:fffff000       __ehhandler$??$_Deallocate_plain@V?$allocator@U_Container_proxy@std@@@std@@@std@@YAXAAV?$allocator@U_Container_proxy@std@@@0@QAU_Container_proxy@0@@Z 00400000 f   Psyew3Engine.obj
 0001:fffff000       __ehhandler$??$_Freenode0@V?$allocator@U?$_Tree_node@U?$pair@$$CBV?$basic_string@DU?$char_traits@D@std@@V?$allocator@D@2@@std@@V?$weak_ptr@VRawImageData@@@2@@std@@PAX@std@@@std@@@?$_Tree_node@U?$pair@$$CBV?$basic_string@DU?$char_traits@D@std@@V?$allocator@D@2@@std@@V?$weak_ptr@VRawImageData@@@2@@std@@PAX@std@@SAXAAV?$allocator@U?$_Tree_node@U?$pair@$$CBV?$basic_string@DU?$char_traits@D@std@@V?$allocator@D@2@@std@@V?$weak_ptr@VRawImageData@@@2@@std@@PAX@std@@@1@PAU01@@Z 00400000 f   Psyew3Engine.obj
 0001:fffff000       __ehhandler$??$_Freenode@V?$allocator@U?$_Tree_node@U?$pair@$$CBV?$basic_string@DU?$char_traits@D@std@@V?$allocator@D@2@@std@@V?$weak_ptr@VRawImageData@@@2@@std@@PAX@std@@@std@@@?$_Tree_node@U?$pair@$$CBV?$basic_string@DU?$char_traits@D@std@@V?$allocator@D@2@@std@@V?$weak_ptr@VRawImageData@@@2@@std@@PAX@std@@SAXAAV?$allocator@U?$_Tree_node@U?$pair@$$CBV?$basic_string@DU?$char_traits@D@std@@V?$allocator@D@2@@std@@V?$weak_ptr@VRawImageData@@@2@@std@@PAX@std@@@1@PAU01@@Z 00400000 f   Psyew3Engine.obj
 0001:fffff000       __ehhandler$??$_Resize_reallocate@U_Value_init_tag@std@@@?$vector@PAVDisplayableObject@@V?$allocator@PAVDisplayableObject@@@std@@@std@@AAEXIABU_Value_init_tag@1@@Z 00400000 f   Psyew3Engine.obj
 0001:fffff000       __ehhandler$??0?$basic_string@DU?$char_traits@D@std@@V?$allocator@D@2@@std@@QAE@$$QAV01@@Z 00400000 f   Psyew3Engine.obj
 0001:fffff000       __ehhandler$??1?$_Alloc_construct_ptr@V?$allocator@U?$_Tree_node@U?$pair@$$CBV?$basic_string@DU?$char_traits@D@std@@V?$allocator@D@2@@std@@V?$shared_ptr@VRawImageData@@@2@@std@@PAX@std@@@std@@@std@@QAE@XZ 00400000 f   Psyew3Engine.obj
 0001:fffff000       __ehhandler$??1?$_Alloc_construct_ptr@V?$allocator@U?$_Tree_node@U?$pair@$$CBV?$basic_string@DU?$char_traits@D@std@@V?$allocator@D@2@@std@@V?$weak_ptr@VRawImageData@@@2@@std@@PAX@std@@@std@@@std@@QAE@XZ 00400000 f   Psyew3Engine.obj
 0001:fffff000       __ehhandler$??1?$_Tree_temp_node@V?$allocator@U?$_Tree_node@U?$pair@$$CBV?$basic_string@DU?$char_traits@D@std@@V?$allocator@D@2@@std@@V?$shared_ptr@VRawImageData@@@2@@std@@PAX@std@@@std@@@std@@QAE@XZ 00400000 f   Psyew3Engine.obj
 0001:fffff000       __ehhandler$??1?$_Tree_temp_node@V?$allocator@U?$_Tree_node@U?$pair@$$CBV?$basic_string@DU?$char_traits@D@std@@V?$allocator@D@2@@std@@V?$weak_ptr@VRawImageData@@@2@@std@@PAX@std@@@std@@@std@@QAE@XZ 00400000 f   Psyew3Engine.obj
 0001:fffff000       __ehhandler$??1RawImageData@@QAE@XZ 00400000 f   Psyew3Engine.obj
 0001:fffff000       __ehhandler$??1_Sentry_base@?$basic_ostream@DU?$char_traits@D@std@@@std@@QAE@XZ 00400000 f   Psyew3Engine.obj
 0001:fffff000       __ehhandler$??1sentry@?$basic_ostream@DU?$char_traits@D@std@@@std@@QAE@XZ 00400000 f   Psyew3Engine.obj
 0001:fffff000       __ehhandler$?_Take_contents@?$basic_string@DU?$char_traits@D@std@@V?$allocator@D@2@@std@@AAEXAAV12@@Z 00400000 f   Psyew3Engine.obj
 0001:fffff000       __ehhandler$?_Tidy_deallocate@?$basic_string@DU?$char_traits@D@std@@V?$allocator@D@2@@std@@AAEXXZ 00400000 f   Psyew3Engine.obj
 0001:fffff000       __unwindfunclet$??$?0U?$pair@V?$basic_string@DU?$char_traits@D@std@@V?$allocator@D@2@@std@@V?$shared_ptr@VRawImageData@@@2@@std@@@?$_Tree_temp_node@V?$allocator@U?$_Tree_node@U?$pair@$$CBV?$basic_string@DU?$char_traits@D@std@@V?$allocator@D@2@@std@@V?$shared_ptr@VRawImageData@@@2@@std@@PAX@std@@@std@@@std@@QAE@AAV?$allocator@U?$_Tree_node@U?$pair@$$CBV?$basic_string@DU?$char_traits@D@std@@V?$allocator@D@2@@std@@V?$shared_ptr@VRawImageData@@@2@@std@@PAX@std@@@1@PAU?$_Tree_node@U?$pair@$$CBV?$basic_string@DU?$char_traits@D@std@@V?$allocator@D@2@@std@@V?$shared_ptr@VRawImageData@@@2@@std@@PAX@1@$$QAU?$pair@V?$basic_string@DU?$char_traits@D@std@@V?$allocator@D@2@@std@@V?$shared_ptr@VRawImageData@@@2@@1@@Z$0 00400000 f   Psyew3Engine.obj
 0001:fffff000       __unwindfunclet$??$?0U?$pair@V?$basic_string@DU?$char_traits@D@std@@V?$allocator@D@2@@std@@V?$weak_ptr@VRawImageData@@@2@@std@@@?$_Tree_temp_node@V?$allocator@U?$_Tree_node@U?$pair@$$CBV?$basic_string@DU?$char_traits@D@std@@V?$allocator@D@2@@std@@V?$weak_ptr@VRawImageData@@@2@@std@@PAX@std@@@std@@@std@@QAE@AAV?$allocator@U?$_Tree_node@U?$pair@$$CBV?$basic_string@DU?$char_traits@D@std@@V?$allocator@D@2@@std@@V?$weak_ptr@VRawImageData@@@2@@std@@PAX@std@@@1@PAU?$_Tree_node@U?$pair@$$CBV?$basic_string@DU?$char_traits@D@std@@V?$allocator@D@2@@std@@V?$weak_ptr@VRawImageData@@@2@@std@@PAX@1@$$QAU?$pair@V?$basic_string@DU?$char_traits@D@std@@V?$allocator@D@2@@std@@V?$weak_ptr@VRawImageData@@@2@@1@@Z$0 00400000 f   Psyew3Engine.obj
 0001:fffff000       __unwindfunclet$??$?0VRawImageData@@$0A@@?$shared_ptr@VRawImageData@@@std@@QAE@PAVRawImageData@@@Z$0 00400000 f   Psyew3Engine.obj
 0001:fffff000       __unwindfunclet$??$?6U?$char_traits@D@std@@@std@@YAAAV?$basic_ostream@DU?$char_traits@D@std@@@0@AAV10@PBD@Z$2 00400000 f   Psyew3Engine.obj
 0001:fffff000       __unwindfunclet$??$_Construct@$00PBD@?$basic_string@DU?$char_traits@D@std@@V?$allocator@D@2@@std@@AAEXQBDI@Z$0 00400000 f   Psyew3Engine.obj
 0001:fffff000       __unwindfunclet$??$_Construct@$01PBD@?$basic_string@DU?$char_traits@D@std@@V?$allocator@D@2@@std@@AAEXQBDI@Z$0 00400000 f   Psyew3Engine.obj
 0001:fffff000       __unwindfunclet$??$_Insert_string@DU?$char_traits@D@std@@I@std@@YAAAV?$basic_ostream@DU?$char_traits@D@std@@@0@AAV10@QBDI@Z$2 00400000 f   Psyew3Engine.obj
 0001:fffff000       __unwindfunclet$??$_Uninitialized_move@PAPAVDisplayableObject@@V?$allocator@PAVDisplayableObject@@@std@@@std@@YAPAPAVDisplayableObject@@QAPAV1@0PAPAV1@AAV?$allocator@PAVDisplayableObject@@@0@@Z$0 00400000 f   Psyew3Engine.obj
 0001:fffff000       __unwindfunclet$??$_Uninitialized_value_construct_n@V?$allocator@PAVDisplayableObject@@@std@@@std@@YAPAPAVDisplayableObject@@PAPAV1@IAAV?$allocator@PAVDisplayableObject@@@0@@Z$0 00400000 f   Psyew3Engine.obj
 0001:fffff000       __unwindfunclet$??0?$_Tree_temp_node_alloc@V?$allocator@U?$_Tree_node@U?$pair@$$CBV?$basic_string@DU?$char_traits@D@std@@V?$allocator@D@2@@std@@V?$shared_ptr@VRawImageData@@@2@@std@@PAX@std@@@std@@@std@@QAE@AAV?$allocator@U?$_Tree_node@U?$pair@$$CBV?$basic_string@DU?$char_traits@D@std@@V?$allocator@D@2@@std@@V?$shared_ptr@VRawImageData@@@2@@std@@PAX@std@@@1@@Z$0 00400000 f   Psyew3Engine.obj
 0001:fffff000       __unwindfunclet$??0?$_Tree_temp_node_alloc@V?$allocator@U?$_Tree_node@U?$pair@$$CBV?$basic_string@DU?$char_traits@D@std@@V?$allocator@D@2@@std@@V?$weak_ptr@VRawImageData@@@2@@std@@PAX@std@@@std@@@std@@QAE@AAV?$allocator@U?$_Tree_node@U?$pair@$$CBV?$basic_string@DU?$char_traits@D@std@@V?$allocator@D@2@@std@@V?$weak_ptr@VRawImageData@@@2@@std@@PAX@std@@@1@@Z$0 00400000 f   Psyew3Engine.obj
 0001:fffff000       __unwindfunclet$??0?$basic_string@DU?$char_traits@D@std@@V?$allocator@D@2@@std@@QAE@ABV01@@Z$0 00400000 f   Psyew3Engine.obj
 0001:fffff000       __unwindfunclet$??0?$basic_string@DU?$char_traits@D@std@@V?$allocator@D@2@@std@@QAE@QBD@Z$0 00400000 f   Psyew3Engine.obj
 0001:fffff000       __unwindfunclet$??0ImageManager@@QAE@XZ$0 00400000 f   Psyew3Engine.obj
 0001:fffff000       __unwindfunclet$??0RawImageData@@QAE@V?$basic_string@DU?$char_traits@D@std@@V?$allocator@D@2@@std@@@Z$0 00400000 f   Psyew3Engine.obj
 0001:fffff000       __unwindfunclet$??0sentry@?$basic_ostream@DU?$char_traits@D@std@@@std@@QAE@AAV12@@Z$0 00400000 f   Psyew3Engine.obj
 0001:fffff000       __unwindfunclet$?_Alloc_sentinel_and_proxy@?$_Tree@V?$_Tmap_traits@V?$basic_string@DU?$char_traits@D@std@@V?$allocator@D@2@@std@@V?$shared_ptr@VRawImageData@@@2@U?$less@V?$basic_string@DU?$char_traits@D@std@@V?$allocator@D@2@@std@@@2@V?$allocator@U?$pair@$$CBV?$basic_string@DU?$char_traits@D@std@@V?$allocator@D@2@@std@@V?$shared_ptr@VRawImageData@@@2@@std@@@2@$0A@@std@@@std@@IAEXXZ$0 00400000 f   Psyew3Engine.obj
 0001:fffff000       __unwindfunclet$?_Alloc_sentinel_and_proxy@?$_Tree@V?$_Tmap_traits@V?$basic_string@DU?$char_traits@D@std@@V?$allocator@D@2@@std@@V?$weak_ptr@VRawImageData@@@2@U?$less@V?$basic_string@DU?$char_traits@D@std@@V?$allocator@D@2@@std@@@2@V?$allocator@U?$pair@$$CBV?$basic_string@DU?$char_traits@D@std@@V?$allocator@D@2@@std@@V?$weak_ptr@VRawImageData@@@2@@std@@@2@$0A@@std@@@std@@IAEXXZ$0 00400000 f   Psyew3Engine.obj
 0001:fffff000       __unwindfunclet$?_Orphan_range_locked@?$vector@PAVDisplayableObject@@V?$allocator@PAVDisplayableObject@@@std@@@std@@ABEXPAPAVDisplayableObject@@0@Z$0 00400000 f   Psyew3Engine.obj
 0001:fffff000       __unwindfunclet$?get@ImageManager@@SAPAV1@XZ$0 00400000 f   Psyew3Engine.obj
 0001:fffff000       __unwindfunclet$?getImagePtrbyURL@ImageManager@@QAE?AV?$shared_ptr@VRawImageData@@@std@@V?$basic_string@DU?$char_traits@D@std@@V?$allocator@D@2@@3@_N1@Z$0 00400000 f   Psyew3Engine.obj
 0001:fffff000       __unwindfunclet$?getImagebyURL@ImageManager@@QAE?AVSimpleImage@@V?$basic_string@DU?$char_traits@D@std@@V?$allocator@D@2@@std@@_N1@Z$0 00400000 f   Psyew3Engine.obj
 0001:fffff000       __unwindfunclet$?loadAsNew@ImageManager@@QAE?AV?$shared_ptr@VRawImageData@@@std@@V?$basic_string@DU?$char_traits@D@std@@V?$allocator@D@2@@3@@Z$0 00400000 f   Psyew3Engine.obj
 0001:fffff000       __unwindfunclet$?loadImage@RawImageData@@QAE_NV?$basic_string@DU?$char_traits@D@std@@V?$allocator@D@2@@std@@HHHHH_N@Z$0 00400000 f   Psyew3Engine.obj
 0001:fffff000       __unwindfunclet$?setAllObjectsVisible@DisplayableObjectContainer@@QBEX_N@Z$0 00400000 f   Psyew3Engine.obj
 0002:fffbd000       __unwindtable$??$?0U?$pair@V?$basic_string@DU?$char_traits@D@std@@V?$allocator@D@2@@std@@V?$shared_ptr@VRawImageData@@@2@@std@@@?$_Tree_temp_node@V?$allocator@U?$_Tree_node@U?$pair@$$CBV?$basic_string@DU?$char_traits@D@std@@V?$allocator@D@2@@std@@V?$shared_ptr@VRawImageData@@@2@@std@@PAX@std@@@std@@@std@@QAE@AAV?$allocator@U?$_Tree_node@U?$pair@$$CBV?$basic_string@DU?$char_traits@D@std@@V?$allocator@D@2@@std@@V?$shared_ptr@VRawImageData@@@2@@std@@PAX@std@@@1@PAU?$_Tree_node@U?$pair@$$CBV?$basic_string@DU?$char_traits@D@std@@V?$allocator@D@2@@std@@V?$shared_ptr@VRawImageData@@@2@@std@@PAX@1@$$QAU?$pair@V?$basic_string@DU?$char_traits@D@std@@V?$allocator@D@2@@std@@V?$shared_ptr@VRawImageData@@@2@@1@@Z 00400000     Psyew3Engine.obj
 0002:fffbd000       __unwindtable$??$?0U?$pair@V?$basic_string@DU?$char_traits@D@std@@V?$allocator@D@2@@std@@V?$weak_ptr@VRawImageData@@@2@@std@@@?$_Tree_temp_node@V?$allocator@U?$_Tree_node@U?$pair@$$CBV?$basic_string@DU?$char_traits@D@std@@V?$allocator@D@2@@std@@V?$weak_ptr@VRawImageData@@@2@@std@@PAX@std@@@std@@@std@@QAE@AAV?$allocator@U?$_Tree_node@U?$pair@$$CBV?$basic_string@DU?$char_traits@D@std@@V?$allocator@D@2@@std@@V?$weak_ptr@VRawImageData@@@2@@std@@PAX@std@@@1@PAU?$_Tree_node@U?$pair@$$CBV?$basic_string@DU?$char_traits@D@std@@V?$allocator@D@2@@std@@V?$weak_ptr@VRawImageData@@@2@@std@@PAX@1@$$QAU?$pair@V?$basic_string@DU?$char_traits@D@std@@V?$allocator@D@2@@std@@V?$weak_ptr@VRawImageData@@@2@@1@@Z 00400000     Psyew3Engine.obj
 0002:fffbd000       __unwindtable$??$?0VRawImageData@@$0A@@?$shared_ptr@VRawImageData@@@std@@QAE@PAVRawImageData@@@Z 00400000     Psyew3Engine.obj
 0002:fffbd000       __unwindtable$??$_Construct@$00PBD@?$basic_string@DU?$char_traits@D@std@@V?$allocator@D@2@@std@@AAEXQBDI@Z 00400000     Psyew3Engine.obj
 0002:fffbd000       __unwindtable$??$_Construct@$01PBD@?$basic_string@DU?$char_traits@D@std@@V?$allocator@D@2@@std@@AAEXQBDI@Z 00400000     Psyew3Engine.obj
 0002:fffbd000       __unwindtable$??$_Uninitialized_move@PAPAVDisplayableObject@@V?$allocator@PAVDisplayableObject@@@std@@@std@@YAPAPAVDisplayableObject@@QAPAV1@0PAPAV1@AAV?$allocator@PAVDisplayableObject@@@0@@Z 00400000     Psyew3Engine.obj
 0002:fffbd000       __unwindtable$??$_Uninitialized_value_construct_n@V?$allocator@PAVDisplayableObject@@@std@@@std@@YAPAPAVDisplayableObject@@PAPAV1@IAAV?$allocator@PAVDisplayableObject@@@0@@Z 00400000     Psyew3Engine.obj
 0002:fffbd000       __unwindtable$??0?$_Tree_temp_node_alloc@V?$allocator@U?$_Tree_node@U?$pair@$$CBV?$basic_string@DU?$char_traits@D@std@@V?$allocator@D@2@@std@@V?$shared_ptr@VRawImageData@@@2@@std@@PAX@std@@@std@@@std@@QAE@AAV?$allocator@U?$_Tree_node@U?$pair@$$CBV?$basic_string@DU?$char_traits@D@std@@V?$allocator@D@2@@std@@V?$shared_ptr@VRawImageData@@@2@@std@@PAX@std@@@1@@Z 00400000     Psyew3Engine.obj
 0002:fffbd000       __unwindtable$??0?$_Tree_temp_node_alloc@V?$allocator@U?$_Tree_node@U?$pair@$$CBV?$basic_string@DU?$char_traits@D@std@@V?$allocator@D@2@@std@@V?$weak_ptr@VRawImageData@@@2@@std@@PAX@std@@@std@@@std@@QAE@AAV?$allocator@U?$_Tree_node@U?$pair@$$CBV?$basic_string@DU?$char_traits@D@std@@V?$allocator@D@2@@std@@V?$weak_ptr@VRawImageData@@@2@@std@@PAX@std@@@1@@Z 00400000     Psyew3Engine.obj
 0002:fffbd000       __unwindtable$??0?$basic_string@DU?$char_traits@D@std@@V?$allocator@D@2@@std@@QAE@ABV01@@Z 00400000     Psyew3Engine.obj
 0002:fffbd000       __unwindtable$??0?$basic_string@DU?$char_traits@D@std@@V?$allocator@D@2@@std@@QAE@QBD@Z 00400000     Psyew3Engine.obj
 0002:fffbd000       __unwindtable$??0ImageManager@@QAE@XZ 00400000     Psyew3Engine.obj
 0002:fffbd000       __unwindtable$??0RawImageData@@QAE@V?$basic_string@DU?$char_traits@D@std@@V?$allocator@D@2@@std@@@Z 00400000     Psyew3Engine.obj
 0002:fffbd000       __unwindtable$??0sentry@?$basic_ostream@DU?$char_traits@D@std@@@std@@QAE@AAV12@@Z 00400000     Psyew3Engine.obj
 0002:fffbd000       __unwindtable$?_Alloc_sentinel_and_proxy@?$_Tree@V?$_Tmap_traits@V?$basic_string@DU?$char_traits@D@std@@V?$allocator@D@2@@std@@V?$shared_ptr@VRawImageData@@@2@U?$less@V?$basic_string@DU?$char_traits@D@std@@V?$allocator@D@2@@std@@@2@V?$allocator@U?$pair@$$CBV?$basic_string@DU?$char_traits@D@std@@V?$allocator@D@2@@std@@V?$shared_ptr@VRawImageData@@@2@@std@@@2@$0A@@std@@@std@@IAEXXZ 00400000     Psyew3Engine.obj
 0002:fffbd000       __unwindtable$?_Alloc_sentinel_and_proxy@?$_Tree@V?$_Tmap_traits@V?$basic_string@DU?$char_traits@D@std@@V?$allocator@D@2@@std@@V?$weak_ptr@VRawImageData@@@2@U?$less@V?$basic_string@DU?$char_traits@D@std@@V?$allocator@D@2@@std@@@2@V?$allocator@U?$pair@$$CBV?$basic_string@DU?$char_traits@D@std@@V?$allocator@D@2@@std@@V?$weak_ptr@VRawImageData@@@2@@std@@@2@$0A@@std@@@std@@IAEXXZ 00400000     Psyew3Engine.obj
 0002:fffbd000       __unwindtable$?_Orphan_range_locked@?$vector@PAVDisplayableObject@@V?$allocator@PAVDisplayableObject@@@std@@@std@@ABEXPAPAVDisplayableObject@@0@Z 00400000     Psyew3Engine.obj
 0002:fffbd000       __unwindtable$?get@ImageManager@@SAPAV1@XZ 00400000     Psyew3Engine.obj
 0002:fffbd000       __unwindtable$?getImagebyURL@ImageManager@@QAE?AVSimpleImage@@V?$basic_string@DU?$char_traits@D@std@@V?$allocator@D@2@@std@@_N1@Z 00400000     Psyew3Engine.obj
 0002:fffbd000       __unwindtable$?loadAsNew@ImageManager@@QAE?AV?$shared_ptr@VRawImageData@@@std@@V?$basic_string@DU?$char_traits@D@std@@V?$allocator@D@2@@3@@Z 00400000     Psyew3Engine.obj
 0002:fffbd000       __unwindtable$?loadImage@RawImageData@@QAE_NV?$basic_string@DU?$char_traits@D@std@@V?$allocator@D@2@@std@@HHHHH_N@Z 00400000     Psyew3Engine.obj
 0002:fffbd000       __unwindtable$?setAllObjectsVisible@DisplayableObjectContainer@@QBEX_N@Z 00400000     Psyew3Engine.obj
 0000:00000000       _volmd                     00400000     Psyew3Engine.obj
 0000:00000000       _volmd                     00400000     Psyew3Engine.obj
 0000:00000000       _volmd                     00400000     Psyew3Engine.obj
 0000:00000000       _volmd                     00400000     Psyew3Engine.obj
 0000:00000000       _volmd                     00400000     Psyew3Engine.obj
 0000:00000000       _volmd                     00400000     Psyew3Engine.obj
 0000:00000000       _volmd                     00400000     Psyew3Engine.obj
 0000:00000000       _volmd                     00400000     Psyew3Engine.obj
 0000:00000000       _volmd                     00400000     Psyew3Engine.obj
 0000:00000000       _volmd                     00400000     Psyew3Engine.obj
 0000:00000000       _volmd                     00400000     Psyew3Engine.obj
 0000:00000000       _volmd                     00400000     Psyew3Engine.obj
 0000:00000000       _volmd                     00400000     Psyew3Engine.obj
 0000:00000000       _volmd                     00400000     Psyew3Engine.obj
 0000:00000000       _volmd                     00400000     Psyew3Engine.obj
 0000:00000000       _volmd                     00400000     Psyew3Engine.obj
 0000:00000000       _volmd                     00400000     Psyew3Engine.obj
 0000:00000000       _volmd                     00400000     Psyew3Engine.obj
 0000:00000000       _volmd                     00400000     Psyew3Engine.obj
 0000:00000000       _volmd                     00400000     Psyew3Engine.obj
 0000:00000000       _volmd                     00400000     Psyew3Engine.obj
 0000:00000000       _volmd                     00400000     Psyew3Engine.obj
 0000:00000000       _volmd                     00400000     Psyew3Engine.obj
 0000:00000000       _volmd                     00400000     Psyew3Engine.obj
 0000:00000000       _volmd                     00400000     Psyew3Engine.obj
 0000:00000000       _volmd                     00400000     Psyew3Engine.obj
 0000:00000000       _volmd                     00400000     Psyew3Engine.obj
 0000:00000000       _volmd                     00400000     Psyew3Engine.obj
 0000:00000000       _volmd                     00400000     Psyew3Engine.obj
 0000:00000000       _volmd                     00400000     Psyew3Engine.obj
 0000:00000000       _volmd                     00400000     Psyew3Engine.obj
 0000:00000000       _volmd                     00400000     Psyew3Engine.obj
 0000:00000000       _volmd                     00400000     Psyew3Engine.obj
 0000:00000000       _volmd                     00400000     Psyew3Engine.obj
 0000:00000000       _volmd                     00400000     Psyew3Engine.obj
 0000:00000000       _volmd                     00400000     Psyew3Engine.obj
 0000:00000000       _volmd                     00400000     Psyew3Engine.obj
 0000:00000000       _volmd                     00400000     Psyew3Engine.obj
 0000:00000000       _volmd                     00400000     Psyew3Engine.obj
 0000:00000000       _volmd                     00400000     Psyew3Engine.obj
 0000:00000000       _volmd                     00400000     Psyew3Engine.obj
 0000:00000000       _volmd                     00400000     Psyew3Engine.obj
 0000:00000000       _volmd                     00400000     Psyew3Engine.obj
 0000:00000000       _volmd                     00400000     Psyew3Engine.obj
 0000:00000000       _volmd                     00400000     Psyew3Engine.obj
 0000:00000000       _volmd                     00400000     Psyew3Engine.obj
 0000:00000000       _volmd                     00400000     Psyew3Engine.obj
 0000:00000000       _volmd                     00400000     Psyew3Engine.obj
 0000:00000000       _volmd                     00400000     Psyew3Engine.obj
 0000:00000000       _volmd                     00400000     Psyew3Engine.obj
 0000:00000000       _volmd                     00400000     Psyew3Engine.obj
 0000:00000000       _volmd                     00400000     Psyew3Engine.obj
 0000:00000000       _volmd                     00400000     Psyew3Engine.obj
 0000:00000000       _volmd                     00400000     Psyew3Engine.obj
 0000:00000000       _volmd                     00400000     Psyew3Engine.obj
 0000:00000000       _volmd                     00400000     Psyew3Engine.obj
 0000:00000000       _volmd                     00400000     Psyew3Engine.obj
 0000:00000000       _volmd                     00400000     Psyew3Engine.obj
 0000:00000000       _volmd                     00400000     Psyew3Engine.obj
 0000:00000000       _volmd                     00400000     Psyew3Engine.obj
 0000:00000000       _volmd                     00400000     Psyew3Engine.obj
 0000:00000000       _volmd                     00400000     Psyew3Engine.obj
 0000:00000000       _volmd                     00400000     Psyew3Engine.obj
 0000:00000000       _volmd                     00400000     Psyew3Engine.obj
 0000:00000000       _volmd                     00400000     Psyew3Engine.obj
 0000:00000000       _volmd                     00400000     Psyew3Engine.obj
 0000:00000000       _volmd                     00400000     Psyew3Engine.obj
 0000:00000000       _volmd                     00400000     Psyew3Engine.obj
 0000:00000000       _volmd                     00400000     Psyew3Engine.obj
 0000:00000000       _volmd                     00400000     Psyew3Engine.obj
 0000:00000000       _volmd                     00400000     Psyew3Engine.obj
 0000:00000000       _volmd                     00400000     Rock.obj
 0000:00000000       _volmd                     00400000     Rock.obj
 0000:00000000       _volmd                     00400000     Rock.obj
 0000:00000000       _volmd                     00400000     Rock.obj
 0000:00000000       _volmd                     00400000     Rock.obj
 0000:00000000       _volmd                     00400000     Rock.obj
 0000:00000000       _volmd                     00400000     Rock.obj
 0000:00000000       _volmd                     00400000     Rock.obj
 0000:00000000       _volmd                     00400000     Rock.obj
 0000:00000000       _volmd                     00400000     Rock.obj
 0000:00000000       _volmd                     00400000     Rock.obj
 0000:00000000       _volmd                     00400000     Rock.obj
 0000:00000000       _volmd                     00400000     Rock.obj
 0000:00000000       _volmd                     00400000     Rock.obj
 0000:00000000       _volmd                     00400000     Rock.obj
 0000:00000000       _volmd                     00400000     Rock.obj
 0000:00000000       _volmd                     00400000     Rock.obj
 0000:00000000       _volmd                     00400000     Rock.obj
 0000:00000000       _volmd                     00400000     Rock.obj
 0000:00000000       _volmd                     00400000     Rock.obj
 0000:00000000       _volmd                     00400000     Rock.obj
 0000:00000000       _volmd                     00400000     Rock.obj
 0000:00000000       _volmd                     00400000     Rock.obj
 0000:00000000       _volmd                     00400000     Rock.obj
 0000:00000000       _volmd                     00400000     Rock.obj
 0000:00000000       _volmd                     00400000     Rock.obj
 0000:00000000       _volmd                     00400000     Rock.obj
 0000:00000000       _volmd                     00400000     Rock.obj
 0000:00000000       _volmd                     00400000     Rock.obj
 0000:00000000       _volmd                     00400000     Rock.obj
 0000:00000000       _volmd                     00400000     Rock.obj
 0000:00000000       _volmd                     00400000     Rock.obj
 0000:00000000       _volmd                     00400000     Rock.obj
 0000:00000000       _volmd                     00400000     Rock.obj
 0000:00000000       _volmd                     00400000     Rock.obj
 0000:00000000       _volmd                     00400000     Rock.obj
 0000:00000000       _volmd                     00400000     Rock.obj
 0000:00000000       _volmd                     00400000     Rock.obj
 0000:00000000       _volmd                     00400000     Rock.obj
 0000:00000000       _volmd                     00400000     Rock.obj
 0000:00000000       _volmd                     00400000     Rock.obj
 0002:fffbd000       __catchsym$??$?6U?$char_traits@D@std@@@std@@YAAAV?$basic_ostream@DU?$char_traits@D@std@@@0@AAV10@PBD@Z$3 00400000     SimpleDemo.obj
 0002:fffbd000       __catchsym$??$_Emplace_reallocate@ABQAVDisplayableObject@@@?$vector@PAVDisplayableObject@@V?$allocator@PAVDisplayableObject@@@std@@@std@@AAEPAPAVDisplayableObject@@QAPAV2@ABQAV2@@Z$2 00400000     SimpleDemo.obj
 0002:fffbd000       __catchsym$??$_Resize_reallocate@U_Value_init_tag@std@@@?$vector@PAVDisplayableObject@@V?$allocator@PAVDisplayableObject@@@std@@@std@@AAEXIABU_Value_init_tag@1@@Z$2 00400000     SimpleDemo.obj
 0002:fffbd000       __ehfuncinfo$??$_Deallocate@$07$0A@@std@@YAXPAXI@Z 00400000     SimpleDemo.obj
 0002:fffbd000       __ehfuncinfo$??1_Sentry_base@?$basic_ostream@DU?$char_traits@D@std@@@std@@QAE@XZ 00400000     SimpleDemo.obj
 0002:fffbd000       __ehfuncinfo$??1sentry@?$basic_ostream@DU?$char_traits@D@std@@@std@@QAE@XZ 00400000     SimpleDemo.obj
 0001:fffff000       __ehhandler$??$_Deallocate@$07$0A@@std@@YAXPAXI@Z 00400000 f   SimpleDemo.obj
 0001:fffff000       __ehhandler$??$_Emplace_reallocate@ABQAVDisplayableObject@@@?$vector@PAVDisplayableObject@@V?$allocator@PAVDisplayableObject@@@std@@@std@@AAEPAPAVDisplayableObject@@QAPAV2@ABQAV2@@Z 00400000 f   SimpleDemo.obj
 0001:fffff000       __ehhandler$??$_Resize_reallocate@U_Value_init_tag@std@@@?$vector@PAVDisplayableObject@@V?$allocator@PAVDisplayableObject@@@std@@@std@@AAEXIABU_Value_init_tag@1@@Z 00400000 f   SimpleDemo.obj
 0001:fffff000       __ehhandler$??1_Sentry_base@?$basic_ostream@DU?$char_traits@D@std@@@std@@QAE@XZ 00400000 f   SimpleDemo.obj
 0001:fffff000       __ehhandler$??1sentry@?$basic_ostream@DU?$char_traits@D@std@@@std@@QAE@XZ 00400000 f   SimpleDemo.obj
 0001:fffff000       __unwindfunclet$??$?6U?$char_traits@D@std@@@std@@YAAAV?$basic_ostream@DU?$char_traits@D@std@@@0@AAV10@PBD@Z$2 00400000 f   SimpleDemo.obj
 0001:fffff000       __unwindfunclet$??$_Uninitialized_move@PAPAVDisplayableObject@@V?$allocator@PAVDisplayableObject@@@std@@@std@@YAPAPAVDisplayableObject@@QAPAV1@0PAPAV1@AAV?$allocator@PAVDisplayableObject@@@0@@Z$0 00400000 f   SimpleDemo.obj
 0001:fffff000       __unwindfunclet$??$_Uninitialized_value_construct_n@V?$allocator@PAVDisplayableObject@@@std@@@std@@YAPAPAVDisplayableObject@@PAPAV1@IAAV?$allocator@PAVDisplayableObject@@@0@@Z$0 00400000 f   SimpleDemo.obj
 0001:fffff000       __unwindfunclet$??0sentry@?$basic_ostream@DU?$char_traits@D@std@@@std@@QAE@AAV12@@Z$0 00400000 f   SimpleDemo.obj
 0001:fffff000       __unwindfunclet$?_Orphan_range_locked@?$vector@PAVDisplayableObject@@V?$allocator@PAVDisplayableObject@@@std@@@std@@ABEXPAPAVDisplayableObject@@0@Z$0 00400000 f   SimpleDemo.obj
 0002:fffbd000       __unwindtable$??$_Uninitialized_move@PAPAVDisplayableObject@@V?$allocator@PAVDisplayableObject@@@std@@@std@@YAPAPAVDisplayableObject@@QAPAV1@0PAPAV1@AAV?$allocator@PAVDisplayableObject@@@0@@Z 00400000     SimpleDemo.obj
 0002:fffbd000       __unwindtable$??$_Uninitialized_value_construct_n@V?$allocator@PAVDisplayableObject@@@std@@@std@@YAPAPAVDisplayableObject@@PAPAV1@IAAV?$allocator@PAVDisplayableObject@@@0@@Z 00400000     SimpleDemo.obj
 0002:fffbd000       __unwindtable$??0sentry@?$basic_ostream@DU?$char_traits@D@std@@@std@@QAE@AAV12@@Z 00400000     SimpleDemo.obj
 0002:fffbd000       __unwindtable$?_Orphan_range_locked@?$vector@PAVDisplayableObject@@V?$allocator@PAVDisplayableObject@@@std@@@std@@ABEXPAPAVDisplayableObject@@0@Z 00400000     SimpleDemo.obj
 0000:00000000       _volmd                     00400000     SimpleDemo.obj
 0000:00000000       _volmd                     00400000     SimpleDemo.obj
 0000:00000000       _volmd                     00400000     SimpleDemo.obj
 0000:00000000       _volmd                     00400000     SimpleDemo.obj
 0000:00000000       _volmd                     00400000     SimpleDemo.obj
 0000:00000000       _volmd                     00400000     SimpleDemo.obj
 0000:00000000       _volmd                     00400000     SimpleDemo.obj
 0000:00000000       _volmd                     00400000     SimpleDemo.obj
 0000:00000000       _volmd                     00400000     SimpleDemo.obj
 0000:00000000       _volmd                     00400000     SimpleDemo.obj
 0000:00000000       _volmd                     00400000     SimpleDemo.obj
 0000:00000000       _volmd                     00400000     SimpleDemo.obj
 0002:fffbd000       __catchsym$??$?6U?$char_traits@D@std@@@std@@YAAAV?$basic_ostream@DU?$char_traits@D@std@@@0@AAV10@PBD@Z$3 00400000     SimpleImage.obj
 0002:fffbd000       __ehfuncinfo$??1_Sentry_base@?$basic_ostream@DU?$char_traits@D@std@@@std@@QAE@XZ 00400000     SimpleImage.obj
 0002:fffbd000       __ehfuncinfo$??1sentry@?$basic_ostream@DU?$char_traits@D@std@@@std@@QAE@XZ 00400000     SimpleImage.obj
 0001:fffff000       __ehhandler$??1_Sentry_base@?$basic_ostream@DU?$char_traits@D@std@@@std@@QAE@XZ 00400000 f   SimpleImage.obj
 0001:fffff000       __ehhandler$??1sentry@?$basic_ostream@DU?$char_traits@D@std@@@std@@QAE@XZ 00400000 f   SimpleImage.obj
 0001:fffff000       __unwindfunclet$??$?6U?$char_traits@D@std@@@std@@YAAAV?$basic_ostream@DU?$char_traits@D@std@@@0@AAV10@PBD@Z$2 00400000 f   SimpleImage.obj
 0001:fffff000       __unwindfunclet$??0sentry@?$basic_ostream@DU?$char_traits@D@std@@@std@@QAE@AAV12@@Z$0 00400000 f   SimpleImage.obj
 0002:fffbd000       __unwindtable$??0sentry@?$basic_ostream@DU?$char_traits@D@std@@@std@@QAE@AAV12@@Z 00400000     SimpleImage.obj
 0000:00000000       _volmd                     00400000     SimpleImage.obj
 0000:00000000       _volmd                     00400000     SimpleImage.obj
 0000:00000000       _volmd                     00400000     SimpleImage.obj
 0000:00000000       _volmd                     00400000     SimpleImage.obj
 0000:00000000       _volmd                     00400000     SimpleImage.obj
 0002:fffbd000       __catchsym$??$?6U?$char_traits@D@std@@@std@@YAAAV?$basic_ostream@DU?$char_traits@D@std@@@0@AAV10@PBD@Z$3 00400000     StarfieldDemo.obj
 0002:fffbd000       __ehfuncinfo$??1_Sentry_base@?$basic_ostream@DU?$char_traits@D@std@@@std@@QAE@XZ 00400000     StarfieldDemo.obj
 0002:fffbd000       __ehfuncinfo$??1sentry@?$basic_ostream@DU?$char_traits@D@std@@@std@@QAE@XZ 00400000     StarfieldDemo.obj
 0001:fffff000       __ehhandler$??1_Sentry_base@?$basic_ostream@DU?$char_traits@D@std@@@std@@QAE@XZ 00400000 f   StarfieldDemo.obj
 0001:fffff000       __ehhandler$??1sentry@?$basic_ostream@DU?$char_traits@D@std@@@std@@QAE@XZ 00400000 f   StarfieldDemo.obj
 0001:fffff000       __unwindfunclet$??$?6U?$char_traits@D@std@@@std@@YAAAV?$basic_ostream@DU?$char_traits@D@std@@@0@AAV10@PBD@Z$2 00400000 f   StarfieldDemo.obj
 0001:fffff000       __unwindfunclet$??0sentry@?$basic_ostream@DU?$char_traits@D@std@@@std@@QAE@AAV12@@Z$0 00400000 f   StarfieldDemo.obj
 0002:fffbd000       __unwindtable$??0sentry@?$basic_ostream@DU?$char_traits@D@std@@@std@@QAE@AAV12@@Z 00400000     StarfieldDemo.obj
 0000:00000000       _volmd                     00400000     StarfieldDemo.obj
 0000:00000000       _volmd                     00400000     StarfieldDemo.obj
 0000:00000000       _volmd                     00400000     StarfieldDemo.obj
 0000:00000000       _volmd                     00400000     StarfieldDemo.obj
 0000:00000000       _volmd                     00400000     StarfieldDemo.obj
 0002:fffbd000       __catchsym$??$?6U?$char_traits@D@std@@@std@@YAAAV?$basic_ostream@DU?$char_traits@D@std@@@0@AAV10@PBD@Z$3 00400000     State.obj
 0002:fffbd000       __ehfuncinfo$??1_Sentry_base@?$basic_ostream@DU?$char_traits@D@std@@@std@@QAE@XZ 00400000     State.obj
 0002:fffbd000       __ehfuncinfo$??1sentry@?$basic_ostream@DU?$char_traits@D@std@@@std@@QAE@XZ 00400000     State.obj
 0001:fffff000       __ehhandler$??1_Sentry_base@?$basic_ostream@DU?$char_traits@D@std@@@std@@QAE@XZ 00400000 f   State.obj
 0001:fffff000       __ehhandler$??1sentry@?$basic_ostream@DU?$char_traits@D@std@@@std@@QAE@XZ 00400000 f   State.obj
 0001:fffff000       __unwindfunclet$??$?6U?$char_traits@D@std@@@std@@YAAAV?$basic_ostream@DU?$char_traits@D@std@@@0@AAV10@PBD@Z$2 00400000 f   State.obj
 0001:fffff000       __unwindfunclet$??0sentry@?$basic_ostream@DU?$char_traits@D@std@@@std@@QAE@AAV12@@Z$0 00400000 f   State.obj
 0002:fffbd000       __unwindtable$??0sentry@?$basic_ostream@DU?$char_traits@D@std@@@std@@QAE@AAV12@@Z 00400000     State.obj
 0000:00000000       _volmd                     00400000     State.obj
 0000:00000000       _volmd                     00400000     State.obj
 0000:00000000       _volmd                     00400000     State.obj
 0000:00000000       _volmd                     00400000     State.obj
 0002:fffbd000       __catchsym$??$?6U?$char_traits@D@std@@@std@@YAAAV?$basic_ostream@DU?$char_traits@D@std@@@0@AAV10@PBD@Z$3 00400000     ZoomingDemo.obj
 0002:fffbd000       __catchsym$??$_Insert_string@DU?$char_traits@D@std@@I@std@@YAAAV?$basic_ostream@DU?$char_traits@D@std@@@0@AAV10@QBDI@Z$3 00400000     ZoomingDemo.obj
 0002:fffbd000       __catchsym$??$_Resize_reallocate@U_Value_init_tag@std@@@?$vector@PAVDisplayableObject@@V?$allocator@PAVDisplayableObject@@@std@@@std@@AAEXIABU_Value_init_tag@1@@Z$2 00400000     ZoomingDemo.obj
 0002:fffbd000       __ehfuncinfo$??$_Deallocate@$07$0A@@std@@YAXPAXI@Z 00400000     ZoomingDemo.obj
 0002:fffbd000       __ehfuncinfo$??$_Deallocate_plain@V?$allocator@U_Container_proxy@std@@@std@@@std@@YAXAAV?$allocator@U_Container_proxy@std@@@0@QAU_Container_proxy@0@@Z 00400000     ZoomingDemo.obj
 0002:fffbd000       __ehfuncinfo$??$_Freenode0@V?$allocator@U?$_Tree_node@U?$pair@$$CBV?$basic_string@DU?$char_traits@D@std@@V?$allocator@D@2@@std@@V?$weak_ptr@VRawImageData@@@2@@std@@PAX@std@@@std@@@?$_Tree_node@U?$pair@$$CBV?$basic_string@DU?$char_traits@D@std@@V?$allocator@D@2@@std@@V?$weak_ptr@VRawImageData@@@2@@std@@PAX@std@@SAXAAV?$allocator@U?$_Tree_node@U?$pair@$$CBV?$basic_string@DU?$char_traits@D@std@@V?$allocator@D@2@@std@@V?$weak_ptr@VRawImageData@@@2@@std@@PAX@std@@@1@PAU01@@Z 00400000     ZoomingDemo.obj
 0002:fffbd000       __ehfuncinfo$??$_Freenode@V?$allocator@U?$_Tree_node@U?$pair@$$CBV?$basic_string@DU?$char_traits@D@std@@V?$allocator@D@2@@std@@V?$weak_ptr@VRawImageData@@@2@@std@@PAX@std@@@std@@@?$_Tree_node@U?$pair@$$CBV?$basic_string@DU?$char_traits@D@std@@V?$allocator@D@2@@std@@V?$weak_ptr@VRawImageData@@@2@@std@@PAX@std@@SAXAAV?$allocator@U?$_Tree_node@U?$pair@$$CBV?$basic_string@DU?$char_traits@D@std@@V?$allocator@D@2@@std@@V?$weak_ptr@VRawImageData@@@2@@std@@PAX@std@@@1@PAU01@@Z 00400000     ZoomingDemo.obj
 0002:fffbd000       __ehfuncinfo$??0?$basic_string@DU?$char_traits@D@std@@V?$allocator@D@2@@std@@QAE@$$QAV01@@Z 00400000     ZoomingDemo.obj
 0002:fffbd000       __ehfuncinfo$??1?$_Alloc_construct_ptr@V?$allocator@U?$_Tree_node@U?$pair@$$CBV?$basic_string@DU?$char_traits@D@std@@V?$allocator@D@2@@std@@V?$shared_ptr@VRawImageData@@@2@@std@@PAX@std@@@std@@@std@@QAE@XZ 00400000     ZoomingDemo.obj
 0002:fffbd000       __ehfuncinfo$??1?$_Alloc_construct_ptr@V?$allocator@U?$_Tree_node@U?$pair@$$CBV?$basic_string@DU?$char_traits@D@std@@V?$allocator@D@2@@std@@V?$weak_ptr@VRawImageData@@@2@@std@@PAX@std@@@std@@@std@@QAE@XZ 00400000     ZoomingDemo.obj
 0002:fffbd000       __ehfuncinfo$??1?$_Tree_temp_node@V?$allocator@U?$_Tree_node@U?$pair@$$CBV?$basic_string@DU?$char_traits@D@std@@V?$allocator@D@2@@std@@V?$shared_ptr@VRawImageData@@@2@@std@@PAX@std@@@std@@@std@@QAE@XZ 00400000     ZoomingDemo.obj
 0002:fffbd000       __ehfuncinfo$??1?$_Tree_temp_node@V?$allocator@U?$_Tree_node@U?$pair@$$CBV?$basic_string@DU?$char_traits@D@std@@V?$allocator@D@2@@std@@V?$weak_ptr@VRawImageData@@@2@@std@@PAX@std@@@std@@@std@@QAE@XZ 00400000     ZoomingDemo.obj
 0002:fffbd000       __ehfuncinfo$??1RawImageData@@QAE@XZ 00400000     ZoomingDemo.obj
 0002:fffbd000       __ehfuncinfo$??1_Sentry_base@?$basic_ostream@DU?$char_traits@D@std@@@std@@QAE@XZ 00400000     ZoomingDemo.obj
 0002:fffbd000       __ehfuncinfo$??1sentry@?$basic_ostream@DU?$char_traits@D@std@@@std@@QAE@XZ 00400000     ZoomingDemo.obj
 0002:fffbd000       __ehfuncinfo$?_Take_contents@?$basic_string@DU?$char_traits@D@std@@V?$allocator@D@2@@std@@AAEXAAV12@@Z 00400000     ZoomingDemo.obj
 0002:fffbd000       __ehfuncinfo$?_Tidy_deallocate@?$basic_string@DU?$char_traits@D@std@@V?$allocator@D@2@@std@@AAEXXZ 00400000     ZoomingDemo.obj
 0002:fffbd000       __ehfuncinfo$?getImagePtrbyURL@ImageManager@@QAE?AV?$shared_ptr@VRawImageData@@@std@@V?$basic_string@DU?$char_traits@D@std@@V?$allocator@D@2@@3@_N1@Z 00400000     ZoomingDemo.obj
 0001:fffff000       __ehhandler$??$_Deallocate@$07$0A@@std@@YAXPAXI@Z 00400000 f   ZoomingDemo.obj
 0001:fffff000       __ehhandler$??$_Deallocate_plain@V?$allocator@U_Container_proxy@std@@@std@@@std@@YAXAAV?$allocator@U_Container_proxy@std@@@0@QAU_Container_proxy@0@@Z 00400000 f   ZoomingDemo.obj
 0001:fffff000       __ehhandler$??$_Freenode0@V?$allocator@U?$_Tree_node@U?$pair@$$CBV?$basic_string@DU?$char_traits@D@std@@V?$allocator@D@2@@std@@V?$weak_ptr@VRawImageData@@@2@@std@@PAX@std@@@std@@@?$_Tree_node@U?$pair@$$CBV?$basic_string@DU?$char_traits@D@std@@V?$allocator@D@2@@std@@V?$weak_ptr@VRawImageData@@@2@@std@@PAX@std@@SAXAAV?$allocator@U?$_Tree_node@U?$pair@$$CBV?$basic_string@DU?$char_traits@D@std@@V?$allocator@D@2@@std@@V?$weak_ptr@VRawImageData@@@2@@std@@PAX@std@@@1@PAU01@@Z 00400000 f   ZoomingDemo.obj
 0001:fffff000       __ehhandler$??$_Freenode@V?$allocator@U?$_Tree_node@U?$pair@$$CBV?$basic_string@DU?$char_traits@D@std@@V?$allocator@D@2@@std@@V?$weak_ptr@VRawImageData@@@2@@std@@PAX@std@@@std@@@?$_Tree_node@U?$pair@$$CBV?$basic_string@DU?$char_traits@D@std@@V?$allocator@D@2@@std@@V?$weak_ptr@VRawImageData@@@2@@std@@PAX@std@@SAXAAV?$allocator@U?$_Tree_node@U?$pair@$$CBV?$basic_string@DU?$char_traits@D@std@@V?$allocator@D@2@@std@@V?$weak_ptr@VRawImageData@@@2@@std@@PAX@std@@@1@PAU01@@Z 00400000 f   ZoomingDemo.obj
 0001:fffff000       __ehhandler$??$_Resize_reallocate@U_Value_init_tag@std@@@?$vector@PAVDisplayableObject@@V?$allocator@PAVDisplayableObject@@@std@@@std@@AAEXIABU_Value_init_tag@1@@Z 00400000 f   ZoomingDemo.obj
 0001:fffff000       __ehhandler$??0?$basic_string@DU?$char_traits@D@std@@V?$allocator@D@2@@std@@QAE@$$QAV01@@Z 00400000 f   ZoomingDemo.obj
 0001:fffff000       __ehhandler$??1?$_Alloc_construct_ptr@V?$allocator@U?$_Tree_node@U?$pair@$$CBV?$basic_string@DU?$char_traits@D@std@@V?$allocator@D@2@@std@@V?$shared_ptr@VRawImageData@@@2@@std@@PAX@std@@@std@@@std@@QAE@XZ 00400000 f   ZoomingDemo.obj
 0001:fffff000       __ehhandler$??1?$_Alloc_construct_ptr@V?$allocator@U?$_Tree_node@U?$pair@$$CBV?$basic_string@DU?$char_traits@D@std@@V?$allocator@D@2@@std@@V?$weak_ptr@VRawImageData@@@2@@std@@PAX@std@@@std@@@std@@QAE@XZ 00400000 f   ZoomingDemo.obj
 0001:fffff000       __ehhandler$??1?$_Tree_temp_node@V?$allocator@U?$_Tree_node@U?$pair@$$CBV?$basic_string@DU?$char_traits@D@std@@V?$allocator@D@2@@std@@V?$shared_ptr@VRawImageData@@@2@@std@@PAX@std@@@std@@@std@@QAE@XZ 00400000 f   ZoomingDemo.obj
 0001:fffff000       __ehhandler$??1?$_Tree_temp_node@V?$allocator@U?$_Tree_node@U?$pair@$$CBV?$basic_string@DU?$char_traits@D@std@@V?$allocator@D@2@@std@@V?$weak_ptr@VRawImageData@@@2@@std@@PAX@std@@@std@@@std@@QAE@XZ 00400000 f   ZoomingDemo.obj
 0001:fffff000       __ehhandler$??1RawImageData@@QAE@XZ 00400000 f   ZoomingDemo.obj
 0001:fffff000       __ehhandler$??1_Sentry_base@?$basic_ostream@DU?$char_traits@D@std@@@std@@QAE@XZ 00400000 f   ZoomingDemo.obj
 0001:fffff000       __ehhandler$??1sentry@?$basic_ostream@DU?$char_traits@D@std@@@std@@QAE@XZ 00400000 f   ZoomingDemo.obj
 0001:fffff000       __ehhandler$?_Take_contents@?$basic_string@DU?$char_traits@D@std@@V?$allocator@D@2@@std@@AAEXAAV12@@Z 00400000 f   ZoomingDemo.obj
 0001:fffff000       __ehhandler$?_Tidy_deallocate@?$basic_string@DU?$char_traits@D@std@@V?$allocator@D@2@@std@@AAEXXZ 00400000 f   ZoomingDemo.obj
 0001:fffff000       __unwindfunclet$??$?0U?$pair@V?$basic_string@DU?$char_traits@D@std@@V?$allocator@D@2@@std@@V?$shared_ptr@VRawImageData@@@2@@std@@@?$_Tree_temp_node@V?$allocator@U?$_Tree_node@U?$pair@$$CBV?$basic_string@DU?$char_traits@D@std@@V?$allocator@D@2@@std@@V?$shared_ptr@VRawImageData@@@2@@std@@PAX@std@@@std@@@std@@QAE@AAV?$allocator@U?$_Tree_node@U?$pair@$$CBV?$basic_string@DU?$char_traits@D@std@@V?$allocator@D@2@@std@@V?$shared_ptr@VRawImageData@@@2@@std@@PAX@std@@@1@PAU?$_Tree_node@U?$pair@$$CBV?$basic_string@DU?$char_traits@D@std@@V?$allocator@D@2@@std@@V?$shared_ptr@VRawImageData@@@2@@std@@PAX@1@$$QAU?$pair@V?$basic_string@DU?$char_traits@D@std@@V?$allocator@D@2@@std@@V?$shared_ptr@VRawImageData@@@2@@1@@Z$0 00400000 f   ZoomingDemo.obj
 0001:fffff000       __unwindfunclet$??$?0U?$pair@V?$basic_string@DU?$char_traits@D@std@@V?$allocator@D@2@@std@@V?$weak_ptr@VRawImageData@@@2@@std@@@?$_Tree_temp_node@V?$allocator@U?$_Tree_node@U?$pair@$$CBV?$basic_string@DU?$char_traits@D@std@@V?$allocator@D@2@@std@@V?$weak_ptr@VRawImageData@@@2@@std@@PAX@std@@@std@@@std@@QAE@AAV?$allocator@U?$_Tree_node@U?$pair@$$CBV?$basic_string@DU?$char_traits@D@std@@V?$allocator@D@2@@std@@V?$weak_ptr@VRawImageData@@@2@@std@@PAX@std@@@1@PAU?$_Tree_node@U?$pair@$$CBV?$basic_string@DU?$char_traits@D@std@@V?$allocator@D@2@@std@@V?$weak_ptr@VRawImageData@@@2@@std@@PAX@1@$$QAU?$pair@V?$basic_string@DU?$char_traits@D@std@@V?$allocator@D@2@@std@@V?$weak_ptr@VRawImageData@@@2@@1@@Z$0 00400000 f   ZoomingDemo.obj
 0001:fffff000       __unwindfunclet$??$?0VRawImageData@@$0A@@?$shared_ptr@VRawImageData@@@std@@QAE@PAVRawImageData@@@Z$0 00400000 f   ZoomingDemo.obj
 0001:fffff000       __unwindfunclet$??$?6U?$char_traits@D@std@@@std@@YAAAV?$basic_ostream@DU?$char_traits@D@std@@@0@AAV10@PBD@Z$2 00400000 f   ZoomingDemo.obj
 0001:fffff000       __unwindfunclet$??$_Construct@$00PBD@?$basic_string@DU?$char_traits@D@std@@V?$allocator@D@2@@std@@AAEXQBDI@Z$0 00400000 f   ZoomingDemo.obj
 0001:fffff000       __unwindfunclet$??$_Construct@$01PBD@?$basic_string@DU?$char_traits@D@std@@V?$allocator@D@2@@std@@AAEXQBDI@Z$0 00400000 f   ZoomingDemo.obj
 0001:fffff000       __unwindfunclet$??$_Insert_string@DU?$char_traits@D@std@@I@std@@YAAAV?$basic_ostream@DU?$char_traits@D@std@@@0@AAV10@QBDI@Z$2 00400000 f   ZoomingDemo.obj
 0001:fffff000       __unwindfunclet$??$_Uninitialized_move@PAPAVDisplayableObject@@V?$allocator@PAVDisplayableObject@@@std@@@std@@YAPAPAVDisplayableObject@@QAPAV1@0PAPAV1@AAV?$allocator@PAVDisplayableObject@@@0@@Z$0 00400000 f   ZoomingDemo.obj
 0001:fffff000       __unwindfunclet$??$_Uninitialized_value_construct_n@V?$allocator@PAVDisplayableObject@@@std@@@std@@YAPAPAVDisplayableObject@@PAPAV1@IAAV?$allocator@PAVDisplayableObject@@@0@@Z$0 00400000 f   ZoomingDemo.obj
 0001:fffff000       __unwindfunclet$??0?$_Tree_temp_node_alloc@V?$allocator@U?$_Tree_node@U?$pair@$$CBV?$basic_string@DU?$char_traits@D@std@@V?$allocator@D@2@@std@@V?$shared_ptr@VRawImageData@@@2@@std@@PAX@std@@@std@@@std@@QAE@AAV?$allocator@U?$_Tree_node@U?$pair@$$CBV?$basic_string@DU?$char_traits@D@std@@V?$allocator@D@2@@std@@V?$shared_ptr@VRawImageData@@@2@@std@@PAX@std@@@1@@Z$0 00400000 f   ZoomingDemo.obj
 0001:fffff000       __unwindfunclet$??0?$_Tree_temp_node_alloc@V?$allocator@U?$_Tree_node@U?$pair@$$CBV?$basic_string@DU?$char_traits@D@std@@V?$allocator@D@2@@std@@V?$weak_ptr@VRawImageData@@@2@@std@@PAX@std@@@std@@@std@@QAE@AAV?$allocator@U?$_Tree_node@U?$pair@$$CBV?$basic_string@DU?$char_traits@D@std@@V?$allocator@D@2@@std@@V?$weak_ptr@VRawImageData@@@2@@std@@PAX@std@@@1@@Z$0 00400000 f   ZoomingDemo.obj
 0001:fffff000       __unwindfunclet$??0?$basic_string@DU?$char_traits@D@std@@V?$allocator@D@2@@std@@QAE@ABV01@@Z$0 00400000 f   ZoomingDemo.obj
 0001:fffff000       __unwindfunclet$??0?$basic_string@DU?$char_traits@D@std@@V?$allocator@D@2@@std@@QAE@QBD@Z$0 00400000 f   ZoomingDemo.obj
 0001:fffff000       __unwindfunclet$??0DragableImageObject@@QAE@HHPAVBaseEngine@@V?$basic_string@DU?$char_traits@D@std@@V?$allocator@D@2@@std@@_N2@Z$0 00400000 f   ZoomingDemo.obj
 0001:fffff000       __unwindfunclet$??0DragableObject@@QAE@HHPAVBaseEngine@@HH_N1@Z$0 00400000 f   ZoomingDemo.obj
 0001:fffff000       __unwindfunclet$??0ImageManager@@QAE@XZ$0 00400000 f   ZoomingDemo.obj
 0001:fffff000       __unwindfunclet$??0RawImageData@@QAE@V?$basic_string@DU?$char_traits@D@std@@V?$allocator@D@2@@std@@@Z$0 00400000 f   ZoomingDemo.obj
 0001:fffff000       __unwindfunclet$??0sentry@?$basic_ostream@DU?$char_traits@D@std@@@std@@QAE@AAV12@@Z$0 00400000 f   ZoomingDemo.obj
 0001:fffff000       __unwindfunclet$?_Alloc_sentinel_and_proxy@?$_Tree@V?$_Tmap_traits@V?$basic_string@DU?$char_traits@D@std@@V?$allocator@D@2@@std@@V?$shared_ptr@VRawImageData@@@2@U?$less@V?$basic_string@DU?$char_traits@D@std@@V?$allocator@D@2@@std@@@2@V?$allocator@U?$pair@$$CBV?$basic_string@DU?$char_traits@D@std@@V?$allocator@D@2@@std@@V?$shared_ptr@VRawImageData@@@2@@std@@@2@$0A@@std@@@std@@IAEXXZ$0 00400000 f   ZoomingDemo.obj
 0001:fffff000       __unwindfunclet$?_Alloc_sentinel_and_proxy@?$_Tree@V?$_Tmap_traits@V?$basic_string@DU?$char_traits@D@std@@V?$allocator@D@2@@std@@V?$weak_ptr@VRawImageData@@@2@U?$less@V?$basic_string@DU?$char_traits@D@std@@V?$allocator@D@2@@std@@@2@V?$allocator@U?$pair@$$CBV?$basic_string@DU?$char_traits@D@std@@V?$allocator@D@2@@std@@V?$weak_ptr@VRawImageData@@@2@@std@@@2@$0A@@std@@@std@@IAEXXZ$0 00400000 f   ZoomingDemo.obj
 0001:fffff000       __unwindfunclet$?_Orphan_range_locked@?$vector@PAVDisplayableObject@@V?$allocator@PAVDisplayableObject@@@std@@@std@@ABEXPAPAVDisplayableObject@@0@Z$0 00400000 f   ZoomingDemo.obj
 0001:fffff000       __unwindfunclet$?get@ImageManager@@SAPAV1@XZ$0 00400000 f   ZoomingDemo.obj
 0001:fffff000       __unwindfunclet$?getImagePtrbyURL@ImageManager@@QAE?AV?$shared_ptr@VRawImageData@@@std@@V?$basic_string@DU?$char_traits@D@std@@V?$allocator@D@2@@3@_N1@Z$0 00400000 f   ZoomingDemo.obj
 0001:fffff000       __unwindfunclet$?getImagebyURL@ImageManager@@QAE?AVSimpleImage@@V?$basic_string@DU?$char_traits@D@std@@V?$allocator@D@2@@std@@_N1@Z$0 00400000 f   ZoomingDemo.obj
 0001:fffff000       __unwindfunclet$?loadAsNew@ImageManager@@QAE?AV?$shared_ptr@VRawImageData@@@std@@V?$basic_string@DU?$char_traits@D@std@@V?$allocator@D@2@@3@@Z$0 00400000 f   ZoomingDemo.obj
 0001:fffff000       __unwindfunclet$?loadImage@RawImageData@@QAE_NV?$basic_string@DU?$char_traits@D@std@@V?$allocator@D@2@@std@@HHHHH_N@Z$0 00400000 f   ZoomingDemo.obj
 0002:fffbd000       __unwindtable$??$?0U?$pair@V?$basic_string@DU?$char_traits@D@std@@V?$allocator@D@2@@std@@V?$shared_ptr@VRawImageData@@@2@@std@@@?$_Tree_temp_node@V?$allocator@U?$_Tree_node@U?$pair@$$CBV?$basic_string@DU?$char_traits@D@std@@V?$allocator@D@2@@std@@V?$shared_ptr@VRawImageData@@@2@@std@@PAX@std@@@std@@@std@@QAE@AAV?$allocator@U?$_Tree_node@U?$pair@$$CBV?$basic_string@DU?$char_traits@D@std@@V?$allocator@D@2@@std@@V?$shared_ptr@VRawImageData@@@2@@std@@PAX@std@@@1@PAU?$_Tree_node@U?$pair@$$CBV?$basic_string@DU?$char_traits@D@std@@V?$allocator@D@2@@std@@V?$shared_ptr@VRawImageData@@@2@@std@@PAX@1@$$QAU?$pair@V?$basic_string@DU?$char_traits@D@std@@V?$allocator@D@2@@std@@V?$shared_ptr@VRawImageData@@@2@@1@@Z 00400000     ZoomingDemo.obj
 0002:fffbd000       __unwindtable$??$?0U?$pair@V?$basic_string@DU?$char_traits@D@std@@V?$allocator@D@2@@std@@V?$weak_ptr@VRawImageData@@@2@@std@@@?$_Tree_temp_node@V?$allocator@U?$_Tree_node@U?$pair@$$CBV?$basic_string@DU?$char_traits@D@std@@V?$allocator@D@2@@std@@V?$weak_ptr@VRawImageData@@@2@@std@@PAX@std@@@std@@@std@@QAE@AAV?$allocator@U?$_Tree_node@U?$pair@$$CBV?$basic_string@DU?$char_traits@D@std@@V?$allocator@D@2@@std@@V?$weak_ptr@VRawImageData@@@2@@std@@PAX@std@@@1@PAU?$_Tree_node@U?$pair@$$CBV?$basic_string@DU?$char_traits@D@std@@V?$allocator@D@2@@std@@V?$weak_ptr@VRawImageData@@@2@@std@@PAX@1@$$QAU?$pair@V?$basic_string@DU?$char_traits@D@std@@V?$allocator@D@2@@std@@V?$weak_ptr@VRawImageData@@@2@@1@@Z 00400000     ZoomingDemo.obj
 0002:fffbd000       __unwindtable$??$?0VRawImageData@@$0A@@?$shared_ptr@VRawImageData@@@std@@QAE@PAVRawImageData@@@Z 00400000     ZoomingDemo.obj
 0002:fffbd000       __unwindtable$??$_Construct@$00PBD@?$basic_string@DU?$char_traits@D@std@@V?$allocator@D@2@@std@@AAEXQBDI@Z 00400000     ZoomingDemo.obj
 0002:fffbd000       __unwindtable$??$_Construct@$01PBD@?$basic_string@DU?$char_traits@D@std@@V?$allocator@D@2@@std@@AAEXQBDI@Z 00400000     ZoomingDemo.obj
 0002:fffbd000       __unwindtable$??$_Uninitialized_move@PAPAVDisplayableObject@@V?$allocator@PAVDisplayableObject@@@std@@@std@@YAPAPAVDisplayableObject@@QAPAV1@0PAPAV1@AAV?$allocator@PAVDisplayableObject@@@0@@Z 00400000     ZoomingDemo.obj
 0002:fffbd000       __unwindtable$??$_Uninitialized_value_construct_n@V?$allocator@PAVDisplayableObject@@@std@@@std@@YAPAPAVDisplayableObject@@PAPAV1@IAAV?$allocator@PAVDisplayableObject@@@0@@Z 00400000     ZoomingDemo.obj
 0002:fffbd000       __unwindtable$??0?$_Tree_temp_node_alloc@V?$allocator@U?$_Tree_node@U?$pair@$$CBV?$basic_string@DU?$char_traits@D@std@@V?$allocator@D@2@@std@@V?$shared_ptr@VRawImageData@@@2@@std@@PAX@std@@@std@@@std@@QAE@AAV?$allocator@U?$_Tree_node@U?$pair@$$CBV?$basic_string@DU?$char_traits@D@std@@V?$allocator@D@2@@std@@V?$shared_ptr@VRawImageData@@@2@@std@@PAX@std@@@1@@Z 00400000     ZoomingDemo.obj
 0002:fffbd000       __unwindtable$??0?$_Tree_temp_node_alloc@V?$allocator@U?$_Tree_node@U?$pair@$$CBV?$basic_string@DU?$char_traits@D@std@@V?$allocator@D@2@@std@@V?$weak_ptr@VRawImageData@@@2@@std@@PAX@std@@@std@@@std@@QAE@AAV?$allocator@U?$_Tree_node@U?$pair@$$CBV?$basic_string@DU?$char_traits@D@std@@V?$allocator@D@2@@std@@V?$weak_ptr@VRawImageData@@@2@@std@@PAX@std@@@1@@Z 00400000     ZoomingDemo.obj
 0002:fffbd000       __unwindtable$??0?$basic_string@DU?$char_traits@D@std@@V?$allocator@D@2@@std@@QAE@ABV01@@Z 00400000     ZoomingDemo.obj
 0002:fffbd000       __unwindtable$??0?$basic_string@DU?$char_traits@D@std@@V?$allocator@D@2@@std@@QAE@QBD@Z 00400000     ZoomingDemo.obj
 0002:fffbd000       __unwindtable$??0DragableImageObject@@QAE@HHPAVBaseEngine@@V?$basic_string@DU?$char_traits@D@std@@V?$allocator@D@2@@std@@_N2@Z 00400000     ZoomingDemo.obj
 0002:fffbd000       __unwindtable$??0DragableObject@@QAE@HHPAVBaseEngine@@HH_N1@Z 00400000     ZoomingDemo.obj
 0002:fffbd000       __unwindtable$??0ImageManager@@QAE@XZ 00400000     ZoomingDemo.obj
 0002:fffbd000       __unwindtable$??0RawImageData@@QAE@V?$basic_string@DU?$char_traits@D@std@@V?$allocator@D@2@@std@@@Z 00400000     ZoomingDemo.obj
 0002:fffbd000       __unwindtable$??0sentry@?$basic_ostream@DU?$char_traits@D@std@@@std@@QAE@AAV12@@Z 00400000     ZoomingDemo.obj
 0002:fffbd000       __unwindtable$?_Alloc_sentinel_and_proxy@?$_Tree@V?$_Tmap_traits@V?$basic_string@DU?$char_traits@D@std@@V?$allocator@D@2@@std@@V?$shared_ptr@VRawImageData@@@2@U?$less@V?$basic_string@DU?$char_traits@D@std@@V?$allocator@D@2@@std@@@2@V?$allocator@U?$pair@$$CBV?$basic_string@DU?$char_traits@D@std@@V?$allocator@D@2@@std@@V?$shared_ptr@VRawImageData@@@2@@std@@@2@$0A@@std@@@std@@IAEXXZ 00400000     ZoomingDemo.obj
 0002:fffbd000       __unwindtable$?_Alloc_sentinel_and_proxy@?$_Tree@V?$_Tmap_traits@V?$basic_string@DU?$char_traits@D@std@@V?$allocator@D@2@@std@@V?$weak_ptr@VRawImageData@@@2@U?$less@V?$basic_string@DU?$char_traits@D@std@@V?$allocator@D@2@@std@@@2@V?$allocator@U?$pair@$$CBV?$basic_string@DU?$char_traits@D@std@@V?$allocator@D@2@@std@@V?$weak_ptr@VRawImageData@@@2@@std@@@2@$0A@@std@@@std@@IAEXXZ 00400000     ZoomingDemo.obj
 0002:fffbd000       __unwindtable$?_Orphan_range_locked@?$vector@PAVDisplayableObject@@V?$allocator@PAVDisplayableObject@@@std@@@std@@ABEXPAPAVDisplayableObject@@0@Z 00400000     ZoomingDemo.obj
 0002:fffbd000       __unwindtable$?get@ImageManager@@SAPAV1@XZ 00400000     ZoomingDemo.obj
 0002:fffbd000       __unwindtable$?getImagebyURL@ImageManager@@QAE?AVSimpleImage@@V?$basic_string@DU?$char_traits@D@std@@V?$allocator@D@2@@std@@_N1@Z 00400000     ZoomingDemo.obj
 0002:fffbd000       __unwindtable$?loadAsNew@ImageManager@@QAE?AV?$shared_ptr@VRawImageData@@@std@@V?$basic_string@DU?$char_traits@D@std@@V?$allocator@D@2@@3@@Z 00400000     ZoomingDemo.obj
 0002:fffbd000       __unwindtable$?loadImage@RawImageData@@QAE_NV?$basic_string@DU?$char_traits@D@std@@V?$allocator@D@2@@std@@HHHHH_N@Z 00400000     ZoomingDemo.obj
 0000:00000000       _volmd                     00400000     ZoomingDemo.obj
 0000:00000000       _volmd                     00400000     ZoomingDemo.obj
 0000:00000000       _volmd                     00400000     ZoomingDemo.obj
 0000:00000000       _volmd                     00400000     ZoomingDemo.obj
 0000:00000000       _volmd                     00400000     ZoomingDemo.obj
 0000:00000000       _volmd                     00400000     ZoomingDemo.obj
 0000:00000000       _volmd                     00400000     ZoomingDemo.obj
 0000:00000000       _volmd                     00400000     ZoomingDemo.obj
 0000:00000000       _volmd                     00400000     ZoomingDemo.obj
 0000:00000000       _volmd                     00400000     ZoomingDemo.obj
 0000:00000000       _volmd                     00400000     ZoomingDemo.obj
 0000:00000000       _volmd                     00400000     ZoomingDemo.obj
 0000:00000000       _volmd                     00400000     ZoomingDemo.obj
 0000:00000000       _volmd                     00400000     ZoomingDemo.obj
 0000:00000000       _volmd                     00400000     ZoomingDemo.obj
 0000:00000000       _volmd                     00400000     ZoomingDemo.obj
 0000:00000000       _volmd                     00400000     ZoomingDemo.obj
 0000:00000000       _volmd                     00400000     ZoomingDemo.obj
 0000:00000000       _volmd                     00400000     ZoomingDemo.obj
 0000:00000000       _volmd                     00400000     ZoomingDemo.obj
 0000:00000000       _volmd                     00400000     ZoomingDemo.obj
 0000:00000000       _volmd                     00400000     ZoomingDemo.obj
 0000:00000000       _volmd                     00400000     ZoomingDemo.obj
 0000:00000000       _volmd                     00400000     ZoomingDemo.obj
 0000:00000000       _volmd                     00400000     ZoomingDemo.obj
 0000:00000000       _volmd                     00400000     ZoomingDemo.obj
 0000:00000000       _volmd                     00400000     ZoomingDemo.obj
 0000:00000000       _volmd                     00400000     ZoomingDemo.obj
 0000:00000000       _volmd                     00400000     ZoomingDemo.obj
 0000:00000000       _volmd                     00400000     ZoomingDemo.obj
 0000:00000000       _volmd                     00400000     ZoomingDemo.obj
 0000:00000000       _volmd                     00400000     ZoomingDemo.obj
 0000:00000000       _volmd                     00400000     ZoomingDemo.obj
 0000:00000000       _volmd                     00400000     ZoomingDemo.obj
 0000:00000000       _volmd                     00400000     ZoomingDemo.obj
 0000:00000000       _volmd                     00400000     ZoomingDemo.obj
 0000:00000000       _volmd                     00400000     ZoomingDemo.obj
 0000:00000000       _volmd                     00400000     ZoomingDemo.obj
 0000:00000000       _volmd                     00400000     ZoomingDemo.obj
 0000:00000000       _volmd                     00400000     ZoomingDemo.obj
 0000:00000000       _volmd                     00400000     ZoomingDemo.obj
 0000:00000000       _volmd                     00400000     ZoomingDemo.obj
 0000:00000000       _volmd                     00400000     ZoomingDemo.obj
 0000:00000000       _volmd                     00400000     ZoomingDemo.obj
 0000:00000000       _volmd                     00400000     ZoomingDemo.obj
 0002:fffbd000       __catchsym$??$?6U?$char_traits@D@std@@@std@@YAAAV?$basic_ostream@DU?$char_traits@D@std@@@0@AAV10@PBD@Z$3 00400000     mainfunction.obj
 0002:fffbd000       __ehfuncinfo$??$_Deallocate@$07$0A@@std@@YAXPAXI@Z 00400000     mainfunction.obj
 0002:fffbd000       __ehfuncinfo$??$_Deallocate_plain@V?$allocator@U_Container_proxy@std@@@std@@@std@@YAXAAV?$allocator@U_Container_proxy@std@@@0@QAU_Container_proxy@0@@Z 00400000     mainfunction.obj
 0002:fffbd000       __ehfuncinfo$??$_Freenode0@V?$allocator@U?$_Tree_node@U?$pair@$$CBV?$basic_string@DU?$char_traits@D@std@@V?$allocator@D@2@@std@@V?$weak_ptr@VRawImageData@@@2@@std@@PAX@std@@@std@@@?$_Tree_node@U?$pair@$$CBV?$basic_string@DU?$char_traits@D@std@@V?$allocator@D@2@@std@@V?$weak_ptr@VRawImageData@@@2@@std@@PAX@std@@SAXAAV?$allocator@U?$_Tree_node@U?$pair@$$CBV?$basic_string@DU?$char_traits@D@std@@V?$allocator@D@2@@std@@V?$weak_ptr@VRawImageData@@@2@@std@@PAX@std@@@1@PAU01@@Z 00400000     mainfunction.obj
 0002:fffbd000       __ehfuncinfo$??$_Freenode@V?$allocator@U?$_Tree_node@U?$pair@$$CBV?$basic_string@DU?$char_traits@D@std@@V?$allocator@D@2@@std@@V?$weak_ptr@VRawImageData@@@2@@std@@PAX@std@@@std@@@?$_Tree_node@U?$pair@$$CBV?$basic_string@DU?$char_traits@D@std@@V?$allocator@D@2@@std@@V?$weak_ptr@VRawImageData@@@2@@std@@PAX@std@@SAXAAV?$allocator@U?$_Tree_node@U?$pair@$$CBV?$basic_string@DU?$char_traits@D@std@@V?$allocator@D@2@@std@@V?$weak_ptr@VRawImageData@@@2@@std@@PAX@std@@@1@PAU01@@Z 00400000     mainfunction.obj
 0002:fffbd000       __ehfuncinfo$??1_Sentry_base@?$basic_ostream@DU?$char_traits@D@std@@@std@@QAE@XZ 00400000     mainfunction.obj
 0002:fffbd000       __ehfuncinfo$??1sentry@?$basic_ostream@DU?$char_traits@D@std@@@std@@QAE@XZ 00400000     mainfunction.obj
 0002:fffbd000       __ehfuncinfo$?_Tidy_deallocate@?$basic_string@DU?$char_traits@D@std@@V?$allocator@D@2@@std@@AAEXXZ 00400000     mainfunction.obj
 0001:fffff000       __ehhandler$??$_Deallocate@$07$0A@@std@@YAXPAXI@Z 00400000 f   mainfunction.obj
 0001:fffff000       __ehhandler$??$_Deallocate_plain@V?$allocator@U_Container_proxy@std@@@std@@@std@@YAXAAV?$allocator@U_Container_proxy@std@@@0@QAU_Container_proxy@0@@Z 00400000 f   mainfunction.obj
 0001:fffff000       __ehhandler$??$_Freenode0@V?$allocator@U?$_Tree_node@U?$pair@$$CBV?$basic_string@DU?$char_traits@D@std@@V?$allocator@D@2@@std@@V?$weak_ptr@VRawImageData@@@2@@std@@PAX@std@@@std@@@?$_Tree_node@U?$pair@$$CBV?$basic_string@DU?$char_traits@D@std@@V?$allocator@D@2@@std@@V?$weak_ptr@VRawImageData@@@2@@std@@PAX@std@@SAXAAV?$allocator@U?$_Tree_node@U?$pair@$$CBV?$basic_string@DU?$char_traits@D@std@@V?$allocator@D@2@@std@@V?$weak_ptr@VRawImageData@@@2@@std@@PAX@std@@@1@PAU01@@Z 00400000 f   mainfunction.obj
 0001:fffff000       __ehhandler$??$_Freenode@V?$allocator@U?$_Tree_node@U?$pair@$$CBV?$basic_string@DU?$char_traits@D@std@@V?$allocator@D@2@@std@@V?$weak_ptr@VRawImageData@@@2@@std@@PAX@std@@@std@@@?$_Tree_node@U?$pair@$$CBV?$basic_string@DU?$char_traits@D@std@@V?$allocator@D@2@@std@@V?$weak_ptr@VRawImageData@@@2@@std@@PAX@std@@SAXAAV?$allocator@U?$_Tree_node@U?$pair@$$CBV?$basic_string@DU?$char_traits@D@std@@V?$allocator@D@2@@std@@V?$weak_ptr@VRawImageData@@@2@@std@@PAX@std@@@1@PAU01@@Z 00400000 f   mainfunction.obj
 0001:fffff000       __ehhandler$??1_Sentry_base@?$basic_ostream@DU?$char_traits@D@std@@@std@@QAE@XZ 00400000 f   mainfunction.obj
 0001:fffff000       __ehhandler$??1sentry@?$basic_ostream@DU?$char_traits@D@std@@@std@@QAE@XZ 00400000 f   mainfunction.obj
 0001:fffff000       __ehhandler$?_Tidy_deallocate@?$basic_string@DU?$char_traits@D@std@@V?$allocator@D@2@@std@@AAEXXZ 00400000 f   mainfunction.obj
 0001:fffff000       __unwindfunclet$??$?6U?$char_traits@D@std@@@std@@YAAAV?$basic_ostream@DU?$char_traits@D@std@@@0@AAV10@PBD@Z$2 00400000 f   mainfunction.obj
 0001:fffff000       __unwindfunclet$??0sentry@?$basic_ostream@DU?$char_traits@D@std@@@std@@QAE@AAV12@@Z$0 00400000 f   mainfunction.obj
 0002:fffbd000       __unwindtable$??0sentry@?$basic_ostream@DU?$char_traits@D@std@@@std@@QAE@AAV12@@Z 00400000     mainfunction.obj
 0000:00000000       _volmd                     00400000     mainfunction.obj
 0000:00000000       _volmd                     00400000     mainfunction.obj
 0000:00000000       _volmd                     00400000     mainfunction.obj
 0000:00000000       _volmd                     00400000     mainfunction.obj
 0000:00000000       _volmd                     00400000     mainfunction.obj
 0000:00000000       _volmd                     00400000     mainfunction.obj
 0000:00000000       _volmd                     00400000     mainfunction.obj
 0000:00000000       _volmd                     00400000     mainfunction.obj
 0000:00000000       _volmd                     00400000     mainfunction.obj
 0000:00000000       _volmd                     00400000     mainfunction.obj
 0000:00000000       _volmd                     00400000     mainfunction.obj
 0000:00000000       _volmd                     00400000     mainfunction.obj
 0000:00000000       _volmd                     00400000     mainfunction.obj
 0000:00000000       _volmd                     00400000     mainfunction.obj
 0000:00000000       _volmd                     00400000     mainfunction.obj
 0000:fffa5000       .debug$S                   00400000     SDL2:SDL2.dll
 0000:fffa5000       .debug$S                   00400000     SDL2:SDL2.dll
 0000:fffa5000       .debug$S                   00400000     SDL2:SDL2.dll
 0000:fffa5000       .debug$S                   00400000     SDL2:SDL2.dll
 0000:fffa5000       .debug$S                   00400000     SDL2:SDL2.dll
 0000:fffa5000       .debug$S                   00400000     SDL2:SDL2.dll
 0000:fffa5000       .debug$S                   00400000     SDL2:SDL2.dll
 0000:fffa5000       .debug$S                   00400000     SDL2:SDL2.dll
 0000:fffa5000       .debug$S                   00400000     SDL2:SDL2.dll
 0000:fffa5000       .debug$S                   00400000     SDL2:SDL2.dll
 0000:fffa5000       .debug$S                   00400000     SDL2:SDL2.dll
 0000:fffa5000       .debug$S                   00400000     SDL2:SDL2.dll
 0000:fffa5000       .debug$S                   00400000     SDL2:SDL2.dll
 0000:fffa5000       .debug$S                   00400000     SDL2:SDL2.dll
 0000:fffa5000       .debug$S                   00400000     SDL2:SDL2.dll
 0000:fffa5000       .debug$S                   00400000     SDL2:SDL2.dll
 0000:fffa5000       .debug$S                   00400000     SDL2:SDL2.dll
 0000:fffa5000       .debug$S                   00400000     SDL2:SDL2.dll
 0000:fffa5000       .debug$S                   00400000     SDL2:SDL2.dll
 0000:fffa5000       .debug$S                   00400000     SDL2:SDL2.dll
 0000:fffa5000       .debug$S                   00400000     SDL2:SDL2.dll
 0000:fffa5000       .debug$S                   00400000     SDL2:SDL2.dll
 0000:fffa5000       .debug$S                   00400000     SDL2_image:SDL2_image.dll
 0000:fffa5000       .debug$S                   00400000     SDL2_ttf:SDL2_ttf.dll
 0000:fffa5000       .debug$S                   00400000     SDL2_ttf:SDL2_ttf.dll
 0000:fffa5000       .debug$S                   00400000     SDL2_ttf:SDL2_ttf.dll
 0000:fffa5000       .debug$S                   00400000     SDL2_ttf:SDL2_ttf.dll
 0000:fffa5000       .debug$S                   00400000     SDL2_ttf:SDL2_ttf.dll
 0000:fffa5000       .debug$S                   00400000     ucrtd:ucrtbased.dll
 0000:fffa5000       .debug$S                   00400000     ucrtd:ucrtbased.dll
 0000:fffa5000       .debug$S                   00400000     ucrtd:ucrtbased.dll
 0000:fffa5000       .debug$S                   00400000     ucrtd:ucrtbased.dll
 0000:fffa5000       .debug$S                   00400000     ucrtd:ucrtbased.dll
 0000:fffa5000       .debug$S                   00400000     ucrtd:ucrtbased.dll
 0000:fffa5000       .debug$S                   00400000     ucrtd:ucrtbased.dll
 0000:fffa5000       .debug$S                   00400000     ucrtd:ucrtbased.dll
 0000:fffa5000       .debug$S                   00400000     ucrtd:ucrtbased.dll
 0000:fffa5000       .debug$S                   00400000     ucrtd:ucrtbased.dll
 0000:fffa5000       .debug$S                   00400000     ucrtd:ucrtbased.dll
 0000:fffa5000       .debug$S                   00400000     ucrtd:ucrtbased.dll
 0000:fffa5000       .debug$S                   00400000     ucrtd:ucrtbased.dll
 0000:fffa5000       .debug$S                   00400000     ucrtd:ucrtbased.dll
 0000:fffa5000       .debug$S                   00400000     ucrtd:ucrtbased.dll
 0000:fffa5000       .debug$S                   00400000     ucrtd:ucrtbased.dll
 0000:fffa5000       .debug$S                   00400000     ucrtd:ucrtbased.dll
 0000:fffa5000       .debug$S                   00400000     ucrtd:ucrtbased.dll
 0000:fffa5000       .debug$S                   00400000     ucrtd:ucrtbased.dll
 0000:fffa5000       .debug$S                   00400000     ucrtd:ucrtbased.dll
 0000:fffa5000       .debug$S                   00400000     ucrtd:ucrtbased.dll
 0000:fffa5000       .debug$S                   00400000     ucrtd:ucrtbased.dll
 0000:fffa5000       .debug$S                   00400000     ucrtd:ucrtbased.dll
 0000:fffa5000       .debug$S                   00400000     ucrtd:ucrtbased.dll
 0000:fffa5000       .debug$S                   00400000     ucrtd:ucrtbased.dll
 0000:fffa5000       .debug$S                   00400000     ucrtd:ucrtbased.dll
 0000:fffa5000       .debug$S                   00400000     ucrtd:ucrtbased.dll
 0000:fffa5000       .debug$S                   00400000     ucrtd:ucrtbased.dll
 0000:fffa5000       .debug$S                   00400000     ucrtd:ucrtbased.dll
 0000:fffa5000       .debug$S                   00400000     ucrtd:ucrtbased.dll
 0000:fffa5000       .debug$S                   00400000     ucrtd:ucrtbased.dll
 0000:fffa5000       .debug$S                   00400000     ucrtd:ucrtbased.dll
 0000:fffa5000       .debug$S                   00400000     ucrtd:ucrtbased.dll
 0000:fffa5000       .debug$S                   00400000     ucrtd:ucrtbased.dll
 0000:fffa5000       .debug$S                   00400000     ucrtd:ucrtbased.dll
 0000:fffa5000       .debug$S                   00400000     ucrtd:ucrtbased.dll
 0000:fffa5000       .debug$S                   00400000     ucrtd:ucrtbased.dll
 0000:fffa5000       .debug$S                   00400000     ucrtd:ucrtbased.dll
 0000:fffa5000       .debug$S                   00400000     ucrtd:ucrtbased.dll
 0000:fffa5000       .debug$S                   00400000     ucrtd:ucrtbased.dll
 0000:fffa5000       .debug$S                   00400000     ucrtd:ucrtbased.dll
 0000:fffa5000       .debug$S                   00400000     ucrtd:ucrtbased.dll
 0000:fffa5000       .debug$S                   00400000     ucrtd:ucrtbased.dll
 0000:fffa5000       .debug$S                   00400000     ucrtd:ucrtbased.dll
 0000:fffa5000       .debug$S                   00400000     ucrtd:ucrtbased.dll
 0000:fffa5000       .debug$S                   00400000     ucrtd:ucrtbased.dll
 0000:fffa5000       .debug$S                   00400000     ucrtd:ucrtbased.dll
 0000:fffa5000       .debug$S                   00400000     ucrtd:ucrtbased.dll
 0000:fffa5000       .debug$S                   00400000     ucrtd:ucrtbased.dll
 0000:fffa5000       .debug$S                   00400000     ucrtd:ucrtbased.dll
 0000:fffa5000       .debug$S                   00400000     ucrtd:ucrtbased.dll
 0000:fffa5000       .debug$S                   00400000     ucrtd:ucrtbased.dll
 0000:fffa5000       .debug$S                   00400000     ucrtd:ucrtbased.dll
 0000:fffa5000       .debug$S                   00400000     ucrtd:ucrtbased.dll
 0000:fffa5000       .debug$S                   00400000     ucrtd:ucrtbased.dll
 0000:fffa5000       .debug$S                   00400000     ucrtd:ucrtbased.dll
 0000:fffa5000       .debug$S                   00400000     ucrtd:ucrtbased.dll
 0000:fffa5000       .debug$S                   00400000     ucrtd:ucrtbased.dll
 0000:fffa5000       .debug$S                   00400000     ucrtd:ucrtbased.dll
 0000:fffa5000       .debug$S                   00400000     ucrtd:ucrtbased.dll
 0000:fffa5000       .debug$S                   00400000     ucrtd:ucrtbased.dll
 0000:fffa5000       .debug$S                   00400000     ucrtd:ucrtbased.dll
 0000:fffa5000       .debug$S                   00400000     kernel32:KERNEL32.dll
 0000:fffa5000       .debug$S                   00400000     kernel32:KERNEL32.dll
 0000:fffa5000       .debug$S                   00400000     kernel32:KERNEL32.dll
 0000:fffa5000       .debug$S                   00400000     kernel32:KERNEL32.dll
 0000:fffa5000       .debug$S                   00400000     kernel32:KERNEL32.dll
 0000:fffa5000       .debug$S                   00400000     kernel32:KERNEL32.dll
 0000:fffa5000       .debug$S                   00400000     kernel32:KERNEL32.dll
 0000:fffa5000       .debug$S                   00400000     kernel32:KERNEL32.dll
 0000:fffa5000       .debug$S                   00400000     kernel32:KERNEL32.dll
 0000:fffa5000       .debug$S                   00400000     kernel32:KERNEL32.dll
 0000:fffa5000       .debug$S                   00400000     kernel32:KERNEL32.dll
 0000:fffa5000       .debug$S                   00400000     kernel32:KERNEL32.dll
 0000:fffa5000       .debug$S                   00400000     kernel32:KERNEL32.dll
 0000:fffa5000       .debug$S                   00400000     kernel32:KERNEL32.dll
 0000:fffa5000       .debug$S                   00400000     kernel32:KERNEL32.dll
 0000:fffa5000       .debug$S                   00400000     kernel32:KERNEL32.dll
 0000:fffa5000       .debug$S                   00400000     kernel32:KERNEL32.dll
 0000:fffa7000       __guard_fids___except_handler4 00400000     MSVCRTD:chandler4gs.obj
 0000:00000000       _volmd                     00400000     MSVCRTD:cpu_disp.obj
 0000:fffa7000       __guard_fids_?pre_c_initialization@@YAHXZ 00400000     MSVCRTD:exe_main.obj
 0000:fffa7000       __guard_fids__             00400000     MSVCRTD:exe_main.obj
 0000:00000000       _volmd                     00400000     MSVCRTD:gs_report.obj
 0000:fffa7000       __guard_fids__             00400000     MSVCRTD:guard_support.obj
 0000:fffa7000       __guard_fids__             00400000     MSVCRTD:guard_support.obj
 0000:fffa7000       __guard_fids___guard_icall_checks_enforced 00400000     MSVCRTD:guard_support.obj
 0000:00000000       _volmd                     00400000     MSVCRTD:guard_support.obj
 0000:00000000       _volmd                     00400000     MSVCRTD:guard_support.obj
 0000:fffa7000       __guard_fids__             00400000     MSVCRTD:std_type_info_static.obj
 0000:fffa7000       __guard_fids__             00400000     MSVCRTD:throw_bad_alloc.obj
 0000:fffa7000       __guard_fids__             00400000     MSVCRTD:throw_bad_alloc.obj
 0000:fffa7000       __guard_fids__             00400000     MSVCRTD:throw_bad_alloc.obj
 0000:fffa7000       __guard_fids__             00400000     MSVCRTD:throw_bad_alloc.obj
 0000:fffa7000       __guard_fids__             00400000     MSVCRTD:throw_bad_alloc.obj
 0000:fffa7000       __guard_fids__             00400000     MSVCRTD:throw_bad_alloc.obj
 0000:fffa7000       __guard_fids__             00400000     MSVCRTD:throw_bad_alloc.obj
 0000:fffa7000       __guard_fids__             00400000     MSVCRTD:throw_bad_alloc.obj
 0000:fffa7000       __guard_fids____scrt_set_unhandled_exception_filter 00400000     MSVCRTD:utility_desktop.obj
 0000:fffa7000       __guard_fids_??__F_Fac_tidy_reg@std@@YAXXZ 00400000     msvcprtd:locale0_implib.obj
 0000:fffa7000       __guard_fids__             00400000     msvcprtd:locale0_implib.obj
 0000:00000000       _volmd                     00400000     msvcprtd:locale0_implib.obj
 0000:00000000       _volmd                     00400000     msvcprtd:vector_algorithms.obj
 0000:00000000       _volmd                     00400000     msvcprtd:vector_algorithms.obj
 0000:00000000       _volmd                     00400000     msvcprtd:vector_algorithms.obj
 0000:00000000       _volmd                     00400000     msvcprtd:vector_algorithms.obj
 0000:00000000       _volmd                     00400000     msvcprtd:vector_algorithms.obj
 0000:00000000       _volmd                     00400000     msvcprtd:vector_algorithms.obj
 0000:00000000       _volmd                     00400000     msvcprtd:vector_algorithms.obj
 0000:00000000       _volmd                     00400000     msvcprtd:vector_algorithms.obj
 0000:00000000       _volmd                     00400000     msvcprtd:vector_algorithms.obj
 0000:00000000       _volmd                     00400000     msvcprtd:vector_algorithms.obj
 0000:00000000       _volmd                     00400000     msvcprtd:vector_algorithms.obj
 0000:00000000       _volmd                     00400000     msvcprtd:vector_algorithms.obj
 0000:00000000       _volmd                     00400000     msvcprtd:vector_algorithms.obj
 0000:00000000       _volmd                     00400000     msvcprtd:vector_algorithms.obj
 0000:00000000       _volmd                     00400000     msvcprtd:vector_algorithms.obj
 0000:00000000       _volmd                     00400000     msvcprtd:vector_algorithms.obj
 0000:00000000       _volmd                     00400000     msvcprtd:vector_algorithms.obj
 0000:00000000       _volmd                     00400000     msvcprtd:vector_algorithms.obj
 0000:00000000       _volmd                     00400000     msvcprtd:vector_algorithms.obj
 0000:00000000       _volmd                     00400000     msvcprtd:vector_algorithms.obj
 0000:00000000       _volmd                     00400000     msvcprtd:vector_algorithms.obj
 0000:00000000       _volmd                     00400000     msvcprtd:vector_algorithms.obj
 0000:00000000       _volmd                     00400000     msvcprtd:vector_algorithms.obj
 0000:00000000       _volmd                     00400000     msvcprtd:vector_algorithms.obj
 0000:00000000       _volmd                     00400000     msvcprtd:vector_algorithms.obj
 0000:00000000       _volmd                     00400000     msvcprtd:vector_algorithms.obj
 0000:00000000       _volmd                     00400000     msvcprtd:vector_algorithms.obj
 0000:00000000       _volmd                     00400000     msvcprtd:vector_algorithms.obj
 0000:00000000       _volmd                     00400000     msvcprtd:vector_algorithms.obj
 0000:00000000       _volmd                     00400000     msvcprtd:vector_algorithms.obj
 0000:00000000       _volmd                     00400000     msvcprtd:vector_algorithms.obj
 0000:00000000       _volmd                     00400000     msvcprtd:vector_algorithms.obj
 0000:fffa5000       .debug$S                   00400000     msvcprtd:MSVCP140D.dll
 0000:fffa5000       .debug$S                   00400000     msvcprtd:MSVCP140D.dll
 0000:fffa5000       .debug$S                   00400000     msvcprtd:MSVCP140D.dll
 0000:fffa5000       .debug$S                   00400000     msvcprtd:MSVCP140D.dll
 0000:fffa5000       .debug$S                   00400000     msvcprtd:MSVCP140D.dll
 0000:fffa5000       .debug$S                   00400000     msvcprtd:MSVCP140D.dll
 0000:fffa5000       .debug$S                   00400000     msvcprtd:MSVCP140D.dll
 0000:fffa5000       .debug$S                   00400000     msvcprtd:MSVCP140D.dll
 0000:fffa5000       .debug$S                   00400000     msvcprtd:MSVCP140D.dll
 0000:fffa5000       .debug$S                   00400000     msvcprtd:MSVCP140D.dll
 0000:fffa5000       .debug$S                   00400000     msvcprtd:MSVCP140D.dll
 0000:fffa5000       .debug$S                   00400000     msvcprtd:MSVCP140D.dll
 0000:fffa5000       .debug$S                   00400000     msvcprtd:MSVCP140D.dll
 0000:fffa5000       .debug$S                   00400000     msvcprtd:MSVCP140D.dll
 0000:fffa5000       .debug$S                   00400000     msvcprtd:MSVCP140D.dll
 0000:fffa5000       .debug$S                   00400000     msvcprtd:MSVCP140D.dll
 0000:fffa5000       .debug$S                   00400000     msvcprtd:MSVCP140D.dll
 0000:fffa5000       .debug$S                   00400000     msvcprtd:MSVCP140D.dll
 0000:fffa5000       .debug$S                   00400000     msvcprtd:MSVCP140D.dll
 0000:fffa5000       .debug$S                   00400000     msvcprtd:MSVCP140D.dll
 0000:fffa5000       .debug$S                   00400000     msvcprtd:MSVCP140D.dll
 0000:fffa5000       .debug$S                   00400000     msvcprtd:MSVCP140D.dll
 0000:fffa5000       .debug$S                   00400000     msvcprtd:MSVCP140D.dll
 0000:fffa5000       .debug$S                   00400000     msvcprtd:MSVCP140D.dll
 0000:fffa5000       .debug$S                   00400000     msvcprtd:MSVCP140D.dll
 0000:fffa5000       .debug$S                   00400000     msvcprtd:MSVCP140D.dll
 0000:fffa5000       .debug$S                   00400000     msvcprtd:MSVCP140D.dll
 0000:fffa5000       .debug$S                   00400000     msvcprtd:MSVCP140D.dll
 0000:fffa5000       .debug$S                   00400000     msvcprtd:MSVCP140D.dll
 0000:fffa5000       .debug$S                   00400000     msvcprtd:MSVCP140D.dll
 0000:fffa5000       .debug$S                   00400000     msvcprtd:MSVCP140D.dll
 0000:fffa5000       .debug$S                   00400000     msvcprtd:MSVCP140D.dll
 0000:fffa5000       .debug$S                   00400000     msvcprtd:MSVCP140D.dll
 0000:fffa5000       .debug$S                   00400000     msvcprtd:MSVCP140D.dll
 0000:fffa5000       .debug$S                   00400000     msvcprtd:MSVCP140D.dll
 0000:fffa5000       .debug$S                   00400000     msvcprtd:MSVCP140D.dll
 0000:fffa5000       .debug$S                   00400000     msvcprtd:MSVCP140D.dll
 0000:fffa5000       .debug$S                   00400000     msvcprtd:MSVCP140D.dll
 0000:fffa5000       .debug$S                   00400000     msvcprtd:MSVCP140D.dll
 0000:fffa5000       .debug$S                   00400000     msvcprtd:MSVCP140D.dll
 0000:fffa5000       .debug$S                   00400000     msvcprtd:MSVCP140D.dll
 0000:fffa5000       .debug$S                   00400000     msvcprtd:MSVCP140D.dll
 0000:fffa5000       .debug$S                   00400000     msvcprtd:MSVCP140D.dll
 0000:fffa5000       .debug$S                   00400000     msvcprtd:MSVCP140D.dll
 0000:fffa5000       .debug$S                   00400000     msvcprtd:MSVCP140D.dll
 0000:fffa5000       .debug$S                   00400000     msvcprtd:MSVCP140D.dll
 0000:fffa5000       .debug$S                   00400000     msvcprtd:MSVCP140D.dll
 0000:fffa5000       .debug$S                   00400000     msvcprtd:MSVCP140D.dll
 0000:fffa5000       .debug$S                   00400000     msvcprtd:MSVCP140D.dll
 0000:fffa5000       .debug$S                   00400000     msvcprtd:MSVCP140D.dll
 0000:fffa5000       .debug$S                   00400000     msvcprtd:MSVCP140D.dll
 0000:fffa5000       .debug$S                   00400000     msvcprtd:MSVCP140D.dll
 0000:fffa5000       .debug$S                   00400000     msvcprtd:MSVCP140D.dll
 0000:fffa5000       .debug$S                   00400000     msvcprtd:MSVCP140D.dll
 0000:fffa5000       .debug$S                   00400000     msvcprtd:MSVCP140D.dll
 0000:fffa5000       .debug$S                   00400000     msvcprtd:MSVCP140D.dll
 0000:fffa5000       .debug$S                   00400000     msvcprtd:MSVCP140D.dll
 0000:fffa5000       .debug$S                   00400000     msvcprtd:MSVCP140D.dll
 0000:fffa5000       .debug$S                   00400000     msvcprtd:MSVCP140D.dll
 0000:fffa5000       .debug$S                   00400000     msvcprtd:MSVCP140D.dll
 0000:fffa5000       .debug$S                   00400000     msvcprtd:MSVCP140D.dll
 0000:fffa5000       .debug$S                   00400000     msvcprtd:MSVCP140D.dll
 0000:fffa5000       .debug$S                   00400000     msvcprtd:MSVCP140D.dll
 0000:fffa5000       .debug$S                   00400000     msvcprtd:MSVCP140D.dll
 0000:fffa5000       .debug$S                   00400000     msvcprtd:MSVCP140D.dll
 0000:fffa5000       .debug$S                   00400000     vcruntimed:VCRUNTIME140D.dll
 0000:fffa5000       .debug$S                   00400000     vcruntimed:VCRUNTIME140D.dll
 0000:fffa5000       .debug$S                   00400000     vcruntimed:VCRUNTIME140D.dll
 0000:fffa5000       .debug$S                   00400000     vcruntimed:VCRUNTIME140D.dll
 0000:fffa5000       .debug$S                   00400000     vcruntimed:VCRUNTIME140D.dll
 0000:fffa5000       .debug$S                   00400000     vcruntimed:VCRUNTIME140D.dll
 0000:fffa5000       .debug$S                   00400000     vcruntimed:VCRUNTIME140D.dll
 0000:fffa5000       .debug$S                   00400000     vcruntimed:VCRUNTIME140D.dll
 0000:fffa5000       .debug$S                   00400000     vcruntimed:VCRUNTIME140D.dll
 0000:fffa5000       .debug$S                   00400000     vcruntimed:VCRUNTIME140D.dll
 0000:fffa5000       .debug$S                   00400000     vcruntimed:VCRUNTIME140D.dll
 0000:fffa5000       .debug$S                   00400000     vcruntimed:VCRUNTIME140D.dll
 0000:fffa5000       .debug$S                   00400000     vcruntimed:VCRUNTIME140D.dll
 0000:fffa7004       __guard_fids__             00400004     MSVCRTD:exe_main.obj
 0002:fffbd008       __ehfuncinfo$??$_Uninitialized_value_construct_n@V?$allocator@PAVDisplayableObject@@@std@@@std@@YAPAPAVDisplayableObject@@PAPAV1@IAAV?$allocator@PAVDisplayableObject@@@0@@Z 00400008     BaseEngine.obj
 0002:fffbd008       __ehfuncinfo$??0sentry@?$basic_ostream@DU?$char_traits@D@std@@@std@@QAE@AAV12@@Z 00400008     BouncingBall.obj
 0002:fffbd008       __ehfuncinfo$??$_Uninitialized_move@PAPAVDisplayableObject@@V?$allocator@PAVDisplayableObject@@@std@@@std@@YAPAPAVDisplayableObject@@QAPAV1@0PAPAV1@AAV?$allocator@PAVDisplayableObject@@@0@@Z 00400008     BouncingBallMain.obj
 0002:fffbd008       __ehfuncinfo$??$_Uninitialized_value_construct_n@V?$allocator@PAVDisplayableObject@@@std@@@std@@YAPAPAVDisplayableObject@@PAPAV1@IAAV?$allocator@PAVDisplayableObject@@@0@@Z 00400008     BouncingBallMain.obj
 0002:fffbd008       __ehfuncinfo$??0sentry@?$basic_ostream@DU?$char_traits@D@std@@@std@@QAE@AAV12@@Z 00400008     BouncingBallMain.obj
 0002:fffbd008       __ehfuncinfo$?_Orphan_range_locked@?$vector@PAVDisplayableObject@@V?$allocator@PAVDisplayableObject@@@std@@@std@@ABEXPAPAVDisplayableObject@@0@Z 00400008     BouncingBallMain.obj
 0002:fffbd008       __ehfuncinfo$??0sentry@?$basic_ostream@DU?$char_traits@D@std@@@std@@QAE@AAV12@@Z 00400008     DisplayableObject.obj
 0002:fffbd008       __ehfuncinfo$??$?0U?$pair@V?$basic_string@DU?$char_traits@D@std@@V?$allocator@D@2@@std@@V?$shared_ptr@VRawImageData@@@2@@std@@@?$_Tree_temp_node@V?$allocator@U?$_Tree_node@U?$pair@$$CBV?$basic_string@DU?$char_traits@D@std@@V?$allocator@D@2@@std@@V?$shared_ptr@VRawImageData@@@2@@std@@PAX@std@@@std@@@std@@QAE@AAV?$allocator@U?$_Tree_node@U?$pair@$$CBV?$basic_string@DU?$char_traits@D@std@@V?$allocator@D@2@@std@@V?$shared_ptr@VRawImageData@@@2@@std@@PAX@std@@@1@PAU?$_Tree_node@U?$pair@$$CBV?$basic_string@DU?$char_traits@D@std@@V?$allocator@D@2@@std@@V?$shared_ptr@VRawImageData@@@2@@std@@PAX@1@$$QAU?$pair@V?$basic_string@DU?$char_traits@D@std@@V?$allocator@D@2@@std@@V?$shared_ptr@VRawImageData@@@2@@1@@Z 00400008     DraggingDemo.obj
 0002:fffbd008       __ehfuncinfo$??$?0U?$pair@V?$basic_string@DU?$char_traits@D@std@@V?$allocator@D@2@@std@@V?$weak_ptr@VRawImageData@@@2@@std@@@?$_Tree_temp_node@V?$allocator@U?$_Tree_node@U?$pair@$$CBV?$basic_string@DU?$char_traits@D@std@@V?$allocator@D@2@@std@@V?$weak_ptr@VRawImageData@@@2@@std@@PAX@std@@@std@@@std@@QAE@AAV?$allocator@U?$_Tree_node@U?$pair@$$CBV?$basic_string@DU?$char_traits@D@std@@V?$allocator@D@2@@std@@V?$weak_ptr@VRawImageData@@@2@@std@@PAX@std@@@1@PAU?$_Tree_node@U?$pair@$$CBV?$basic_string@DU?$char_traits@D@std@@V?$allocator@D@2@@std@@V?$weak_ptr@VRawImageData@@@2@@std@@PAX@1@$$QAU?$pair@V?$basic_string@DU?$char_traits@D@std@@V?$allocator@D@2@@std@@V?$weak_ptr@VRawImageData@@@2@@1@@Z 00400008     DraggingDemo.obj
 0002:fffbd008       __ehfuncinfo$??$_Construct@$00PBD@?$basic_string@DU?$char_traits@D@std@@V?$allocator@D@2@@std@@AAEXQBDI@Z 00400008     DraggingDemo.obj
 0002:fffbd008       __ehfuncinfo$??$_Construct@$01PBD@?$basic_string@DU?$char_traits@D@std@@V?$allocator@D@2@@std@@AAEXQBDI@Z 00400008     DraggingDemo.obj
 0002:fffbd008       __ehfuncinfo$??0?$_Tree_temp_node_alloc@V?$allocator@U?$_Tree_node@U?$pair@$$CBV?$basic_string@DU?$char_traits@D@std@@V?$allocator@D@2@@std@@V?$shared_ptr@VRawImageData@@@2@@std@@PAX@std@@@std@@@std@@QAE@AAV?$allocator@U?$_Tree_node@U?$pair@$$CBV?$basic_string@DU?$char_traits@D@std@@V?$allocator@D@2@@std@@V?$shared_ptr@VRawImageData@@@2@@std@@PAX@std@@@1@@Z 00400008     DraggingDemo.obj
 0002:fffbd008       __ehfuncinfo$??0?$_Tree_temp_node_alloc@V?$allocator@U?$_Tree_node@U?$pair@$$CBV?$basic_string@DU?$char_traits@D@std@@V?$allocator@D@2@@std@@V?$weak_ptr@VRawImageData@@@2@@std@@PAX@std@@@std@@@std@@QAE@AAV?$allocator@U?$_Tree_node@U?$pair@$$CBV?$basic_string@DU?$char_traits@D@std@@V?$allocator@D@2@@std@@V?$weak_ptr@VRawImageData@@@2@@std@@PAX@std@@@1@@Z 00400008     DraggingDemo.obj
 0002:fffbd008       __ehfuncinfo$??0?$basic_string@DU?$char_traits@D@std@@V?$allocator@D@2@@std@@QAE@ABV01@@Z 00400008     DraggingDemo.obj
 0002:fffbd008       __ehfuncinfo$??0?$basic_string@DU?$char_traits@D@std@@V?$allocator@D@2@@std@@QAE@QBD@Z 00400008     DraggingDemo.obj
 0002:fffbd008       __ehfuncinfo$??0ImageManager@@QAE@XZ 00400008     DraggingDemo.obj
 0002:fffbd008       __ehfuncinfo$??0RawImageData@@QAE@V?$basic_string@DU?$char_traits@D@std@@V?$allocator@D@2@@std@@@Z 00400008     DraggingDemo.obj
 0002:fffbd008       __ehfuncinfo$??0sentry@?$basic_ostream@DU?$char_traits@D@std@@@std@@QAE@AAV12@@Z 00400008     DraggingDemo.obj
 0002:fffbd008       __ehfuncinfo$?_Alloc_sentinel_and_proxy@?$_Tree@V?$_Tmap_traits@V?$basic_string@DU?$char_traits@D@std@@V?$allocator@D@2@@std@@V?$shared_ptr@VRawImageData@@@2@U?$less@V?$basic_string@DU?$char_traits@D@std@@V?$allocator@D@2@@std@@@2@V?$allocator@U?$pair@$$CBV?$basic_string@DU?$char_traits@D@std@@V?$allocator@D@2@@std@@V?$shared_ptr@VRawImageData@@@2@@std@@@2@$0A@@std@@@std@@IAEXXZ 00400008     DraggingDemo.obj
 0002:fffbd008       __ehfuncinfo$?_Alloc_sentinel_and_proxy@?$_Tree@V?$_Tmap_traits@V?$basic_string@DU?$char_traits@D@std@@V?$allocator@D@2@@std@@V?$weak_ptr@VRawImageData@@@2@U?$less@V?$basic_string@DU?$char_traits@D@std@@V?$allocator@D@2@@std@@@2@V?$allocator@U?$pair@$$CBV?$basic_string@DU?$char_traits@D@std@@V?$allocator@D@2@@std@@V?$weak_ptr@VRawImageData@@@2@@std@@@2@$0A@@std@@@std@@IAEXXZ 00400008     DraggingDemo.obj
 0002:fffbd008       __ehfuncinfo$?_Orphan_range_locked@?$vector@PAVDisplayableObject@@V?$allocator@PAVDisplayableObject@@@std@@@std@@ABEXPAPAVDisplayableObject@@0@Z 00400008     DraggingDemo.obj
 0002:fffbd008       __ehfuncinfo$?get@ImageManager@@SAPAV1@XZ 00400008     DraggingDemo.obj
 0002:fffbd008       __ehfuncinfo$?getImagebyURL@ImageManager@@QAE?AVSimpleImage@@V?$basic_string@DU?$char_traits@D@std@@V?$allocator@D@2@@std@@_N1@Z 00400008     DraggingDemo.obj
 0002:fffbd008       __ehfuncinfo$?loadImage@RawImageData@@QAE_NV?$basic_string@DU?$char_traits@D@std@@V?$allocator@D@2@@std@@HHHHH_N@Z 00400008     DraggingDemo.obj
 0001:fffff008       __unwindfunclet$??$?0VRawImageData@@$0A@@?$shared_ptr@VRawImageData@@@std@@QAE@PAVRawImageData@@@Z$1 00400008 f   DraggingDemo.obj
 0001:fffff008       __unwindfunclet$?getImagePtrbyURL@ImageManager@@QAE?AV?$shared_ptr@VRawImageData@@@std@@V?$basic_string@DU?$char_traits@D@std@@V?$allocator@D@2@@3@_N1@Z$1 00400008 f   DraggingDemo.obj
 0001:fffff008       __unwindfunclet$?loadAsNew@ImageManager@@QAE?AV?$shared_ptr@VRawImageData@@@std@@V?$basic_string@DU?$char_traits@D@std@@V?$allocator@D@2@@3@@Z$1 00400008 f   DraggingDemo.obj
 0002:fffbd008       __ehfuncinfo$??0sentry@?$basic_ostream@DU?$char_traits@D@std@@@std@@QAE@AAV12@@Z 00400008     DrawingSurface.obj
 0002:fffbd008       __ehfuncinfo$??0sentry@?$basic_ostream@DU?$char_traits@D@std@@@std@@QAE@AAV12@@Z 00400008     FlashingDemo.obj
 0002:fffbd008       __ehfuncinfo$??$?0U?$pair@V?$basic_string@DU?$char_traits@D@std@@V?$allocator@D@2@@std@@V?$shared_ptr@VRawImageData@@@2@@std@@@?$_Tree_temp_node@V?$allocator@U?$_Tree_node@U?$pair@$$CBV?$basic_string@DU?$char_traits@D@std@@V?$allocator@D@2@@std@@V?$shared_ptr@VRawImageData@@@2@@std@@PAX@std@@@std@@@std@@QAE@AAV?$allocator@U?$_Tree_node@U?$pair@$$CBV?$basic_string@DU?$char_traits@D@std@@V?$allocator@D@2@@std@@V?$shared_ptr@VRawImageData@@@2@@std@@PAX@std@@@1@PAU?$_Tree_node@U?$pair@$$CBV?$basic_string@DU?$char_traits@D@std@@V?$allocator@D@2@@std@@V?$shared_ptr@VRawImageData@@@2@@std@@PAX@1@$$QAU?$pair@V?$basic_string@DU?$char_traits@D@std@@V?$allocator@D@2@@std@@V?$shared_ptr@VRawImageData@@@2@@1@@Z 00400008     ImageMappingDemo.obj
 0002:fffbd008       __ehfuncinfo$??$?0U?$pair@V?$basic_string@DU?$char_traits@D@std@@V?$allocator@D@2@@std@@V?$weak_ptr@VRawImageData@@@2@@std@@@?$_Tree_temp_node@V?$allocator@U?$_Tree_node@U?$pair@$$CBV?$basic_string@DU?$char_traits@D@std@@V?$allocator@D@2@@std@@V?$weak_ptr@VRawImageData@@@2@@std@@PAX@std@@@std@@@std@@QAE@AAV?$allocator@U?$_Tree_node@U?$pair@$$CBV?$basic_string@DU?$char_traits@D@std@@V?$allocator@D@2@@std@@V?$weak_ptr@VRawImageData@@@2@@std@@PAX@std@@@1@PAU?$_Tree_node@U?$pair@$$CBV?$basic_string@DU?$char_traits@D@std@@V?$allocator@D@2@@std@@V?$weak_ptr@VRawImageData@@@2@@std@@PAX@1@$$QAU?$pair@V?$basic_string@DU?$char_traits@D@std@@V?$allocator@D@2@@std@@V?$weak_ptr@VRawImageData@@@2@@1@@Z 00400008     ImageMappingDemo.obj
 0002:fffbd008       __ehfuncinfo$??$_Construct@$00PBD@?$basic_string@DU?$char_traits@D@std@@V?$allocator@D@2@@std@@AAEXQBDI@Z 00400008     ImageMappingDemo.obj
 0002:fffbd008       __ehfuncinfo$??$_Construct@$01PBD@?$basic_string@DU?$char_traits@D@std@@V?$allocator@D@2@@std@@AAEXQBDI@Z 00400008     ImageMappingDemo.obj
 0002:fffbd008       __ehfuncinfo$??$_Uninitialized_move@PAPAVDisplayableObject@@V?$allocator@PAVDisplayableObject@@@std@@@std@@YAPAPAVDisplayableObject@@QAPAV1@0PAPAV1@AAV?$allocator@PAVDisplayableObject@@@0@@Z 00400008     ImageMappingDemo.obj
 0002:fffbd008       __ehfuncinfo$??$_Uninitialized_value_construct_n@V?$allocator@PAVDisplayableObject@@@std@@@std@@YAPAPAVDisplayableObject@@PAPAV1@IAAV?$allocator@PAVDisplayableObject@@@0@@Z 00400008     ImageMappingDemo.obj
 0002:fffbd008       __ehfuncinfo$??0?$_Tree_temp_node_alloc@V?$allocator@U?$_Tree_node@U?$pair@$$CBV?$basic_string@DU?$char_traits@D@std@@V?$allocator@D@2@@std@@V?$shared_ptr@VRawImageData@@@2@@std@@PAX@std@@@std@@@std@@QAE@AAV?$allocator@U?$_Tree_node@U?$pair@$$CBV?$basic_string@DU?$char_traits@D@std@@V?$allocator@D@2@@std@@V?$shared_ptr@VRawImageData@@@2@@std@@PAX@std@@@1@@Z 00400008     ImageMappingDemo.obj
 0002:fffbd008       __ehfuncinfo$??0?$_Tree_temp_node_alloc@V?$allocator@U?$_Tree_node@U?$pair@$$CBV?$basic_string@DU?$char_traits@D@std@@V?$allocator@D@2@@std@@V?$weak_ptr@VRawImageData@@@2@@std@@PAX@std@@@std@@@std@@QAE@AAV?$allocator@U?$_Tree_node@U?$pair@$$CBV?$basic_string@DU?$char_traits@D@std@@V?$allocator@D@2@@std@@V?$weak_ptr@VRawImageData@@@2@@std@@PAX@std@@@1@@Z 00400008     ImageMappingDemo.obj
 0002:fffbd008       __ehfuncinfo$??0?$basic_string@DU?$char_traits@D@std@@V?$allocator@D@2@@std@@QAE@ABV01@@Z 00400008     ImageMappingDemo.obj
 0002:fffbd008       __ehfuncinfo$??0?$basic_string@DU?$char_traits@D@std@@V?$allocator@D@2@@std@@QAE@QBD@Z 00400008     ImageMappingDemo.obj
 0002:fffbd008       __ehfuncinfo$??0ImageManager@@QAE@XZ 00400008     ImageMappingDemo.obj
 0002:fffbd008       __ehfuncinfo$??0RawImageData@@QAE@V?$basic_string@DU?$char_traits@D@std@@V?$allocator@D@2@@std@@@Z 00400008     ImageMappingDemo.obj
 0002:fffbd008       __ehfuncinfo$??0sentry@?$basic_ostream@DU?$char_traits@D@std@@@std@@QAE@AAV12@@Z 00400008     ImageMappingDemo.obj
 0002:fffbd008       __ehfuncinfo$?_Alloc_sentinel_and_proxy@?$_Tree@V?$_Tmap_traits@V?$basic_string@DU?$char_traits@D@std@@V?$allocator@D@2@@std@@V?$shared_ptr@VRawImageData@@@2@U?$less@V?$basic_string@DU?$char_traits@D@std@@V?$allocator@D@2@@std@@@2@V?$allocator@U?$pair@$$CBV?$basic_string@DU?$char_traits@D@std@@V?$allocator@D@2@@std@@V?$shared_ptr@VRawImageData@@@2@@std@@@2@$0A@@std@@@std@@IAEXXZ 00400008     ImageMappingDemo.obj
 0002:fffbd008       __ehfuncinfo$?_Alloc_sentinel_and_proxy@?$_Tree@V?$_Tmap_traits@V?$basic_string@DU?$char_traits@D@std@@V?$allocator@D@2@@std@@V?$weak_ptr@VRawImageData@@@2@U?$less@V?$basic_string@DU?$char_traits@D@std@@V?$allocator@D@2@@std@@@2@V?$allocator@U?$pair@$$CBV?$basic_string@DU?$char_traits@D@std@@V?$allocator@D@2@@std@@V?$weak_ptr@VRawImageData@@@2@@std@@@2@$0A@@std@@@std@@IAEXXZ 00400008     ImageMappingDemo.obj
 0002:fffbd008       __ehfuncinfo$?_Orphan_range_locked@?$vector@PAVDisplayableObject@@V?$allocator@PAVDisplayableObject@@@std@@@std@@ABEXPAPAVDisplayableObject@@0@Z 00400008     ImageMappingDemo.obj
 0002:fffbd008       __ehfuncinfo$?get@ImageManager@@SAPAV1@XZ 00400008     ImageMappingDemo.obj
 0002:fffbd008       __ehfuncinfo$?getImagebyURL@ImageManager@@QAE?AVSimpleImage@@V?$basic_string@DU?$char_traits@D@std@@V?$allocator@D@2@@std@@_N1@Z 00400008     ImageMappingDemo.obj
 0002:fffbd008       __ehfuncinfo$?loadImage@RawImageData@@QAE_NV?$basic_string@DU?$char_traits@D@std@@V?$allocator@D@2@@std@@HHHHH_N@Z 00400008     ImageMappingDemo.obj
 0001:fffff008       __unwindfunclet$??$?0VRawImageData@@$0A@@?$shared_ptr@VRawImageData@@@std@@QAE@PAVRawImageData@@@Z$1 00400008 f   ImageMappingDemo.obj
 0001:fffff008       __unwindfunclet$??0DragableImageObject@@QAE@HHPAVBaseEngine@@V?$basic_string@DU?$char_traits@D@std@@V?$allocator@D@2@@std@@_N2@Z$1 00400008 f   ImageMappingDemo.obj
 0001:fffff008       __unwindfunclet$?getImagePtrbyURL@ImageManager@@QAE?AV?$shared_ptr@VRawImageData@@@std@@V?$basic_string@DU?$char_traits@D@std@@V?$allocator@D@2@@3@_N1@Z$1 00400008 f   ImageMappingDemo.obj
 0001:fffff008       __unwindfunclet$?loadAsNew@ImageManager@@QAE?AV?$shared_ptr@VRawImageData@@@std@@V?$basic_string@DU?$char_traits@D@std@@V?$allocator@D@2@@3@@Z$1 00400008 f   ImageMappingDemo.obj
 0002:fffbd008       __ehfuncinfo$??$_Uninitialized_move@PAPAVDisplayableObject@@V?$allocator@PAVDisplayableObject@@@std@@@std@@YAPAPAVDisplayableObject@@QAPAV1@0PAPAV1@AAV?$allocator@PAVDisplayableObject@@@0@@Z 00400008     MazeDemoMain.obj
 0002:fffbd008       __ehfuncinfo$??$_Uninitialized_value_construct_n@V?$allocator@PAVDisplayableObject@@@std@@@std@@YAPAPAVDisplayableObject@@PAPAV1@IAAV?$allocator@PAVDisplayableObject@@@0@@Z 00400008     MazeDemoMain.obj
 0002:fffbd008       __ehfuncinfo$?_Orphan_range_locked@?$vector@PAVDisplayableObject@@V?$allocator@PAVDisplayableObject@@@std@@@std@@ABEXPAPAVDisplayableObject@@0@Z 00400008     MazeDemoMain.obj
 0002:fffbd008       __ehfuncinfo$?setAllObjectsVisible@DisplayableObjectContainer@@QBEX_N@Z 00400008     MazeDemoMain.obj
 0002:fffbd008       __ehfuncinfo$??$?0U?$pair@V?$basic_string@DU?$char_traits@D@std@@V?$allocator@D@2@@std@@V?$shared_ptr@VRawImageData@@@2@@std@@@?$_Tree_temp_node@V?$allocator@U?$_Tree_node@U?$pair@$$CBV?$basic_string@DU?$char_traits@D@std@@V?$allocator@D@2@@std@@V?$shared_ptr@VRawImageData@@@2@@std@@PAX@std@@@std@@@std@@QAE@AAV?$allocator@U?$_Tree_node@U?$pair@$$CBV?$basic_string@DU?$char_traits@D@std@@V?$allocator@D@2@@std@@V?$shared_ptr@VRawImageData@@@2@@std@@PAX@std@@@1@PAU?$_Tree_node@U?$pair@$$CBV?$basic_string@DU?$char_traits@D@std@@V?$allocator@D@2@@std@@V?$shared_ptr@VRawImageData@@@2@@std@@PAX@1@$$QAU?$pair@V?$basic_string@DU?$char_traits@D@std@@V?$allocator@D@2@@std@@V?$shared_ptr@VRawImageData@@@2@@1@@Z 00400008     Psyew3Engine.obj
 0002:fffbd008       __ehfuncinfo$??$?0U?$pair@V?$basic_string@DU?$char_traits@D@std@@V?$allocator@D@2@@std@@V?$weak_ptr@VRawImageData@@@2@@std@@@?$_Tree_temp_node@V?$allocator@U?$_Tree_node@U?$pair@$$CBV?$basic_string@DU?$char_traits@D@std@@V?$allocator@D@2@@std@@V?$weak_ptr@VRawImageData@@@2@@std@@PAX@std@@@std@@@std@@QAE@AAV?$allocator@U?$_Tree_node@U?$pair@$$CBV?$basic_string@DU?$char_traits@D@std@@V?$allocator@D@2@@std@@V?$weak_ptr@VRawImageData@@@2@@std@@PAX@std@@@1@PAU?$_Tree_node@U?$pair@$$CBV?$basic_string@DU?$char_traits@D@std@@V?$allocator@D@2@@std@@V?$weak_ptr@VRawImageData@@@2@@std@@PAX@1@$$QAU?$pair@V?$basic_string@DU?$char_traits@D@std@@V?$allocator@D@2@@std@@V?$weak_ptr@VRawImageData@@@2@@1@@Z 00400008     Psyew3Engine.obj
 0002:fffbd008       __ehfuncinfo$??$_Construct@$00PBD@?$basic_string@DU?$char_traits@D@std@@V?$allocator@D@2@@std@@AAEXQBDI@Z 00400008     Psyew3Engine.obj
 0002:fffbd008       __ehfuncinfo$??$_Construct@$01PBD@?$basic_string@DU?$char_traits@D@std@@V?$allocator@D@2@@std@@AAEXQBDI@Z 00400008     Psyew3Engine.obj
 0002:fffbd008       __ehfuncinfo$??$_Uninitialized_move@PAPAVDisplayableObject@@V?$allocator@PAVDisplayableObject@@@std@@@std@@YAPAPAVDisplayableObject@@QAPAV1@0PAPAV1@AAV?$allocator@PAVDisplayableObject@@@0@@Z 00400008     Psyew3Engine.obj
 0002:fffbd008       __ehfuncinfo$??$_Uninitialized_value_construct_n@V?$allocator@PAVDisplayableObject@@@std@@@std@@YAPAPAVDisplayableObject@@PAPAV1@IAAV?$allocator@PAVDisplayableObject@@@0@@Z 00400008     Psyew3Engine.obj
 0002:fffbd008       __ehfuncinfo$??0?$_Tree_temp_node_alloc@V?$allocator@U?$_Tree_node@U?$pair@$$CBV?$basic_string@DU?$char_traits@D@std@@V?$allocator@D@2@@std@@V?$shared_ptr@VRawImageData@@@2@@std@@PAX@std@@@std@@@std@@QAE@AAV?$allocator@U?$_Tree_node@U?$pair@$$CBV?$basic_string@DU?$char_traits@D@std@@V?$allocator@D@2@@std@@V?$shared_ptr@VRawImageData@@@2@@std@@PAX@std@@@1@@Z 00400008     Psyew3Engine.obj
 0002:fffbd008       __ehfuncinfo$??0?$_Tree_temp_node_alloc@V?$allocator@U?$_Tree_node@U?$pair@$$CBV?$basic_string@DU?$char_traits@D@std@@V?$allocator@D@2@@std@@V?$weak_ptr@VRawImageData@@@2@@std@@PAX@std@@@std@@@std@@QAE@AAV?$allocator@U?$_Tree_node@U?$pair@$$CBV?$basic_string@DU?$char_traits@D@std@@V?$allocator@D@2@@std@@V?$weak_ptr@VRawImageData@@@2@@std@@PAX@std@@@1@@Z 00400008     Psyew3Engine.obj
 0002:fffbd008       __ehfuncinfo$??0?$basic_string@DU?$char_traits@D@std@@V?$allocator@D@2@@std@@QAE@ABV01@@Z 00400008     Psyew3Engine.obj
 0002:fffbd008       __ehfuncinfo$??0?$basic_string@DU?$char_traits@D@std@@V?$allocator@D@2@@std@@QAE@QBD@Z 00400008     Psyew3Engine.obj
 0002:fffbd008       __ehfuncinfo$??0ImageManager@@QAE@XZ 00400008     Psyew3Engine.obj
 0002:fffbd008       __ehfuncinfo$??0RawImageData@@QAE@V?$basic_string@DU?$char_traits@D@std@@V?$allocator@D@2@@std@@@Z 00400008     Psyew3Engine.obj
 0002:fffbd008       __ehfuncinfo$??0sentry@?$basic_ostream@DU?$char_traits@D@std@@@std@@QAE@AAV12@@Z 00400008     Psyew3Engine.obj
 0002:fffbd008       __ehfuncinfo$?_Alloc_sentinel_and_proxy@?$_Tree@V?$_Tmap_traits@V?$basic_string@DU?$char_traits@D@std@@V?$allocator@D@2@@std@@V?$shared_ptr@VRawImageData@@@2@U?$less@V?$basic_string@DU?$char_traits@D@std@@V?$allocator@D@2@@std@@@2@V?$allocator@U?$pair@$$CBV?$basic_string@DU?$char_traits@D@std@@V?$allocator@D@2@@std@@V?$shared_ptr@VRawImageData@@@2@@std@@@2@$0A@@std@@@std@@IAEXXZ 00400008     Psyew3Engine.obj
 0002:fffbd008       __ehfuncinfo$?_Alloc_sentinel_and_proxy@?$_Tree@V?$_Tmap_traits@V?$basic_string@DU?$char_traits@D@std@@V?$allocator@D@2@@std@@V?$weak_ptr@VRawImageData@@@2@U?$less@V?$basic_string@DU?$char_traits@D@std@@V?$allocator@D@2@@std@@@2@V?$allocator@U?$pair@$$CBV?$basic_string@DU?$char_traits@D@std@@V?$allocator@D@2@@std@@V?$weak_ptr@VRawImageData@@@2@@std@@@2@$0A@@std@@@std@@IAEXXZ 00400008     Psyew3Engine.obj
 0002:fffbd008       __ehfuncinfo$?_Orphan_range_locked@?$vector@PAVDisplayableObject@@V?$allocator@PAVDisplayableObject@@@std@@@std@@ABEXPAPAVDisplayableObject@@0@Z 00400008     Psyew3Engine.obj
 0002:fffbd008       __ehfuncinfo$?get@ImageManager@@SAPAV1@XZ 00400008     Psyew3Engine.obj
 0002:fffbd008       __ehfuncinfo$?getImagebyURL@ImageManager@@QAE?AVSimpleImage@@V?$basic_string@DU?$char_traits@D@std@@V?$allocator@D@2@@std@@_N1@Z 00400008     Psyew3Engine.obj
 0002:fffbd008       __ehfuncinfo$?loadImage@RawImageData@@QAE_NV?$basic_string@DU?$char_traits@D@std@@V?$allocator@D@2@@std@@HHHHH_N@Z 00400008     Psyew3Engine.obj
 0002:fffbd008       __ehfuncinfo$?setAllObjectsVisible@DisplayableObjectContainer@@QBEX_N@Z 00400008     Psyew3Engine.obj
 0001:fffff008       __unwindfunclet$??$?0VRawImageData@@$0A@@?$shared_ptr@VRawImageData@@@std@@QAE@PAVRawImageData@@@Z$1 00400008 f   Psyew3Engine.obj
 0001:fffff008       __unwindfunclet$?getImagePtrbyURL@ImageManager@@QAE?AV?$shared_ptr@VRawImageData@@@std@@V?$basic_string@DU?$char_traits@D@std@@V?$allocator@D@2@@3@_N1@Z$1 00400008 f   Psyew3Engine.obj
 0001:fffff008       __unwindfunclet$?loadAsNew@ImageManager@@QAE?AV?$shared_ptr@VRawImageData@@@std@@V?$basic_string@DU?$char_traits@D@std@@V?$allocator@D@2@@3@@Z$1 00400008 f   Psyew3Engine.obj
 0002:fffbd008       __ehfuncinfo$??$_Uninitialized_move@PAPAVDisplayableObject@@V?$allocator@PAVDisplayableObject@@@std@@@std@@YAPAPAVDisplayableObject@@QAPAV1@0PAPAV1@AAV?$allocator@PAVDisplayableObject@@@0@@Z 00400008     SimpleDemo.obj
 0002:fffbd008       __ehfuncinfo$??$_Uninitialized_value_construct_n@V?$allocator@PAVDisplayableObject@@@std@@@std@@YAPAPAVDisplayableObject@@PAPAV1@IAAV?$allocator@PAVDisplayableObject@@@0@@Z 00400008     SimpleDemo.obj
 0002:fffbd008       __ehfuncinfo$??0sentry@?$basic_ostream@DU?$char_traits@D@std@@@std@@QAE@AAV12@@Z 00400008     SimpleDemo.obj
 0002:fffbd008       __ehfuncinfo$?_Orphan_range_locked@?$vector@PAVDisplayableObject@@V?$allocator@PAVDisplayableObject@@@std@@@std@@ABEXPAPAVDisplayableObject@@0@Z 00400008     SimpleDemo.obj
 0002:fffbd008       __ehfuncinfo$??0sentry@?$basic_ostream@DU?$char_traits@D@std@@@std@@QAE@AAV12@@Z 00400008     SimpleImage.obj
 0002:fffbd008       __ehfuncinfo$??0sentry@?$basic_ostream@DU?$char_traits@D@std@@@std@@QAE@AAV12@@Z 00400008     StarfieldDemo.obj
 0002:fffbd008       __ehfuncinfo$??0sentry@?$basic_ostream@DU?$char_traits@D@std@@@std@@QAE@AAV12@@Z 00400008     State.obj
 0002:fffbd008       __ehfuncinfo$??$?0U?$pair@V?$basic_string@DU?$char_traits@D@std@@V?$allocator@D@2@@std@@V?$shared_ptr@VRawImageData@@@2@@std@@@?$_Tree_temp_node@V?$allocator@U?$_Tree_node@U?$pair@$$CBV?$basic_string@DU?$char_traits@D@std@@V?$allocator@D@2@@std@@V?$shared_ptr@VRawImageData@@@2@@std@@PAX@std@@@std@@@std@@QAE@AAV?$allocator@U?$_Tree_node@U?$pair@$$CBV?$basic_string@DU?$char_traits@D@std@@V?$allocator@D@2@@std@@V?$shared_ptr@VRawImageData@@@2@@std@@PAX@std@@@1@PAU?$_Tree_node@U?$pair@$$CBV?$basic_string@DU?$char_traits@D@std@@V?$allocator@D@2@@std@@V?$shared_ptr@VRawImageData@@@2@@std@@PAX@1@$$QAU?$pair@V?$basic_string@DU?$char_traits@D@std@@V?$allocator@D@2@@std@@V?$shared_ptr@VRawImageData@@@2@@1@@Z 00400008     ZoomingDemo.obj
 0002:fffbd008       __ehfuncinfo$??$?0U?$pair@V?$basic_string@DU?$char_traits@D@std@@V?$allocator@D@2@@std@@V?$weak_ptr@VRawImageData@@@2@@std@@@?$_Tree_temp_node@V?$allocator@U?$_Tree_node@U?$pair@$$CBV?$basic_string@DU?$char_traits@D@std@@V?$allocator@D@2@@std@@V?$weak_ptr@VRawImageData@@@2@@std@@PAX@std@@@std@@@std@@QAE@AAV?$allocator@U?$_Tree_node@U?$pair@$$CBV?$basic_string@DU?$char_traits@D@std@@V?$allocator@D@2@@std@@V?$weak_ptr@VRawImageData@@@2@@std@@PAX@std@@@1@PAU?$_Tree_node@U?$pair@$$CBV?$basic_string@DU?$char_traits@D@std@@V?$allocator@D@2@@std@@V?$weak_ptr@VRawImageData@@@2@@std@@PAX@1@$$QAU?$pair@V?$basic_string@DU?$char_traits@D@std@@V?$allocator@D@2@@std@@V?$weak_ptr@VRawImageData@@@2@@1@@Z 00400008     ZoomingDemo.obj
 0002:fffbd008       __ehfuncinfo$??$_Construct@$00PBD@?$basic_string@DU?$char_traits@D@std@@V?$allocator@D@2@@std@@AAEXQBDI@Z 00400008     ZoomingDemo.obj
 0002:fffbd008       __ehfuncinfo$??$_Construct@$01PBD@?$basic_string@DU?$char_traits@D@std@@V?$allocator@D@2@@std@@AAEXQBDI@Z 00400008     ZoomingDemo.obj
 0002:fffbd008       __ehfuncinfo$??$_Uninitialized_move@PAPAVDisplayableObject@@V?$allocator@PAVDisplayableObject@@@std@@@std@@YAPAPAVDisplayableObject@@QAPAV1@0PAPAV1@AAV?$allocator@PAVDisplayableObject@@@0@@Z 00400008     ZoomingDemo.obj
 0002:fffbd008       __ehfuncinfo$??$_Uninitialized_value_construct_n@V?$allocator@PAVDisplayableObject@@@std@@@std@@YAPAPAVDisplayableObject@@PAPAV1@IAAV?$allocator@PAVDisplayableObject@@@0@@Z 00400008     ZoomingDemo.obj
 0002:fffbd008       __ehfuncinfo$??0?$_Tree_temp_node_alloc@V?$allocator@U?$_Tree_node@U?$pair@$$CBV?$basic_string@DU?$char_traits@D@std@@V?$allocator@D@2@@std@@V?$shared_ptr@VRawImageData@@@2@@std@@PAX@std@@@std@@@std@@QAE@AAV?$allocator@U?$_Tree_node@U?$pair@$$CBV?$basic_string@DU?$char_traits@D@std@@V?$allocator@D@2@@std@@V?$shared_ptr@VRawImageData@@@2@@std@@PAX@std@@@1@@Z 00400008     ZoomingDemo.obj
 0002:fffbd008       __ehfuncinfo$??0?$_Tree_temp_node_alloc@V?$allocator@U?$_Tree_node@U?$pair@$$CBV?$basic_string@DU?$char_traits@D@std@@V?$allocator@D@2@@std@@V?$weak_ptr@VRawImageData@@@2@@std@@PAX@std@@@std@@@std@@QAE@AAV?$allocator@U?$_Tree_node@U?$pair@$$CBV?$basic_string@DU?$char_traits@D@std@@V?$allocator@D@2@@std@@V?$weak_ptr@VRawImageData@@@2@@std@@PAX@std@@@1@@Z 00400008     ZoomingDemo.obj
 0002:fffbd008       __ehfuncinfo$??0?$basic_string@DU?$char_traits@D@std@@V?$allocator@D@2@@std@@QAE@ABV01@@Z 00400008     ZoomingDemo.obj
 0002:fffbd008       __ehfuncinfo$??0?$basic_string@DU?$char_traits@D@std@@V?$allocator@D@2@@std@@QAE@QBD@Z 00400008     ZoomingDemo.obj
 0002:fffbd008       __ehfuncinfo$??0DragableObject@@QAE@HHPAVBaseEngine@@HH_N1@Z 00400008     ZoomingDemo.obj
 0002:fffbd008       __ehfuncinfo$??0ImageManager@@QAE@XZ 00400008     ZoomingDemo.obj
 0002:fffbd008       __ehfuncinfo$??0RawImageData@@QAE@V?$basic_string@DU?$char_traits@D@std@@V?$allocator@D@2@@std@@@Z 00400008     ZoomingDemo.obj
 0002:fffbd008       __ehfuncinfo$??0sentry@?$basic_ostream@DU?$char_traits@D@std@@@std@@QAE@AAV12@@Z 00400008     ZoomingDemo.obj
 0002:fffbd008       __ehfuncinfo$?_Alloc_sentinel_and_proxy@?$_Tree@V?$_Tmap_traits@V?$basic_string@DU?$char_traits@D@std@@V?$allocator@D@2@@std@@V?$shared_ptr@VRawImageData@@@2@U?$less@V?$basic_string@DU?$char_traits@D@std@@V?$allocator@D@2@@std@@@2@V?$allocator@U?$pair@$$CBV?$basic_string@DU?$char_traits@D@std@@V?$allocator@D@2@@std@@V?$shared_ptr@VRawImageData@@@2@@std@@@2@$0A@@std@@@std@@IAEXXZ 00400008     ZoomingDemo.obj
 0002:fffbd008       __ehfuncinfo$?_Alloc_sentinel_and_proxy@?$_Tree@V?$_Tmap_traits@V?$basic_string@DU?$char_traits@D@std@@V?$allocator@D@2@@std@@V?$weak_ptr@VRawImageData@@@2@U?$less@V?$basic_string@DU?$char_traits@D@std@@V?$allocator@D@2@@std@@@2@V?$allocator@U?$pair@$$CBV?$basic_string@DU?$char_traits@D@std@@V?$allocator@D@2@@std@@V?$weak_ptr@VRawImageData@@@2@@std@@@2@$0A@@std@@@std@@IAEXXZ 00400008     ZoomingDemo.obj
 0002:fffbd008       __ehfuncinfo$?_Orphan_range_locked@?$vector@PAVDisplayableObject@@V?$allocator@PAVDisplayableObject@@@std@@@std@@ABEXPAPAVDisplayableObject@@0@Z 00400008     ZoomingDemo.obj
 0002:fffbd008       __ehfuncinfo$?get@ImageManager@@SAPAV1@XZ 00400008     ZoomingDemo.obj
 0002:fffbd008       __ehfuncinfo$?getImagebyURL@ImageManager@@QAE?AVSimpleImage@@V?$basic_string@DU?$char_traits@D@std@@V?$allocator@D@2@@std@@_N1@Z 00400008     ZoomingDemo.obj
 0002:fffbd008       __ehfuncinfo$?loadImage@RawImageData@@QAE_NV?$basic_string@DU?$char_traits@D@std@@V?$allocator@D@2@@std@@HHHHH_N@Z 00400008     ZoomingDemo.obj
 0001:fffff008       __unwindfunclet$??$?0VRawImageData@@$0A@@?$shared_ptr@VRawImageData@@@std@@QAE@PAVRawImageData@@@Z$1 00400008 f   ZoomingDemo.obj
 0001:fffff008       __unwindfunclet$??0DragableImageObject@@QAE@HHPAVBaseEngine@@V?$basic_string@DU?$char_traits@D@std@@V?$allocator@D@2@@std@@_N2@Z$1 00400008 f   ZoomingDemo.obj
 0001:fffff008       __unwindfunclet$?getImagePtrbyURL@ImageManager@@QAE?AV?$shared_ptr@VRawImageData@@@std@@V?$basic_string@DU?$char_traits@D@std@@V?$allocator@D@2@@3@_N1@Z$1 00400008 f   ZoomingDemo.obj
 0001:fffff008       __unwindfunclet$?loadAsNew@ImageManager@@QAE?AV?$shared_ptr@VRawImageData@@@std@@V?$basic_string@DU?$char_traits@D@std@@V?$allocator@D@2@@3@@Z$1 00400008 f   ZoomingDemo.obj
 0002:fffbd008       __ehfuncinfo$??0sentry@?$basic_ostream@DU?$char_traits@D@std@@@std@@QAE@AAV12@@Z 00400008     mainfunction.obj
 0000:fffa7008       __guard_fids__             00400008     MSVCRTD:exe_main.obj
 0000:0000000c       _volmd                     0040000c     BaseEngine.obj
 0000:0000000c       _volmd                     0040000c     BouncingBall.obj
 0000:0000000c       _volmd                     0040000c     MazeDemoMain.obj
 0000:0000000c       _volmd                     0040000c     Psyew3Engine.obj
 0000:0000000c       _volmd                     0040000c     Rock.obj
 0000:0000000c       _volmd                     0040000c     SimpleDemo.obj
 0000:0000000c       _volmd                     0040000c     ZoomingDemo.obj
 0001:fffff00d       __ehhandler$??$_Uninitialized_value_construct_n@V?$allocator@PAVDisplayableObject@@@std@@@std@@YAPAPAVDisplayableObject@@PAPAV1@IAAV?$allocator@PAVDisplayableObject@@@0@@Z 0040000d f   BaseEngine.obj
 0001:fffff00d       __ehhandler$??$?6U?$char_traits@D@std@@@std@@YAAAV?$basic_ostream@DU?$char_traits@D@std@@@0@AAV10@PBD@Z 0040000d f   BouncingBall.obj
 0001:fffff00d       __ehhandler$??0sentry@?$basic_ostream@DU?$char_traits@D@std@@@std@@QAE@AAV12@@Z 0040000d f   BouncingBall.obj
 0001:fffff00d       __ehhandler$??$?6U?$char_traits@D@std@@@std@@YAAAV?$basic_ostream@DU?$char_traits@D@std@@@0@AAV10@PBD@Z 0040000d f   BouncingBallMain.obj
 0001:fffff00d       __ehhandler$??$_Uninitialized_move@PAPAVDisplayableObject@@V?$allocator@PAVDisplayableObject@@@std@@@std@@YAPAPAVDisplayableObject@@QAPAV1@0PAPAV1@AAV?$allocator@PAVDisplayableObject@@@0@@Z 0040000d f   BouncingBallMain.obj
 0001:fffff00d       __ehhandler$??$_Uninitialized_value_construct_n@V?$allocator@PAVDisplayableObject@@@std@@@std@@YAPAPAVDisplayableObject@@PAPAV1@IAAV?$allocator@PAVDisplayableObject@@@0@@Z 0040000d f   BouncingBallMain.obj
 0001:fffff00d       __ehhandler$??0sentry@?$basic_ostream@DU?$char_traits@D@std@@@std@@QAE@AAV12@@Z 0040000d f   BouncingBallMain.obj
 0001:fffff00d       __ehhandler$??$?6U?$char_traits@D@std@@@std@@YAAAV?$basic_ostream@DU?$char_traits@D@std@@@0@AAV10@PBD@Z 0040000d f   DisplayableObject.obj
 0001:fffff00d       __ehhandler$??0sentry@?$basic_ostream@DU?$char_traits@D@std@@@std@@QAE@AAV12@@Z 0040000d f   DisplayableObject.obj
 0001:fffff00d       __ehhandler$??$?0U?$pair@V?$basic_string@DU?$char_traits@D@std@@V?$allocator@D@2@@std@@V?$shared_ptr@VRawImageData@@@2@@std@@@?$_Tree_temp_node@V?$allocator@U?$_Tree_node@U?$pair@$$CBV?$basic_string@DU?$char_traits@D@std@@V?$allocator@D@2@@std@@V?$shared_ptr@VRawImageData@@@2@@std@@PAX@std@@@std@@@std@@QAE@AAV?$allocator@U?$_Tree_node@U?$pair@$$CBV?$basic_string@DU?$char_traits@D@std@@V?$allocator@D@2@@std@@V?$shared_ptr@VRawImageData@@@2@@std@@PAX@std@@@1@PAU?$_Tree_node@U?$pair@$$CBV?$basic_string@DU?$char_traits@D@std@@V?$allocator@D@2@@std@@V?$shared_ptr@VRawImageData@@@2@@std@@PAX@1@$$QAU?$pair@V?$basic_string@DU?$char_traits@D@std@@V?$allocator@D@2@@std@@V?$shared_ptr@VRawImageData@@@2@@1@@Z 0040000d f   DraggingDemo.obj
 0001:fffff00d       __ehhandler$??$?0U?$pair@V?$basic_string@DU?$char_traits@D@std@@V?$allocator@D@2@@std@@V?$weak_ptr@VRawImageData@@@2@@std@@@?$_Tree_temp_node@V?$allocator@U?$_Tree_node@U?$pair@$$CBV?$basic_string@DU?$char_traits@D@std@@V?$allocator@D@2@@std@@V?$weak_ptr@VRawImageData@@@2@@std@@PAX@std@@@std@@@std@@QAE@AAV?$allocator@U?$_Tree_node@U?$pair@$$CBV?$basic_string@DU?$char_traits@D@std@@V?$allocator@D@2@@std@@V?$weak_ptr@VRawImageData@@@2@@std@@PAX@std@@@1@PAU?$_Tree_node@U?$pair@$$CBV?$basic_string@DU?$char_traits@D@std@@V?$allocator@D@2@@std@@V?$weak_ptr@VRawImageData@@@2@@std@@PAX@1@$$QAU?$pair@V?$basic_string@DU?$char_traits@D@std@@V?$allocator@D@2@@std@@V?$weak_ptr@VRawImageData@@@2@@1@@Z 0040000d f   DraggingDemo.obj
 0001:fffff00d       __ehhandler$??$?6U?$char_traits@D@std@@@std@@YAAAV?$basic_ostream@DU?$char_traits@D@std@@@0@AAV10@PBD@Z 0040000d f   DraggingDemo.obj
 0001:fffff00d       __ehhandler$??$_Construct@$00PBD@?$basic_string@DU?$char_traits@D@std@@V?$allocator@D@2@@std@@AAEXQBDI@Z 0040000d f   DraggingDemo.obj
 0001:fffff00d       __ehhandler$??$_Construct@$01PBD@?$basic_string@DU?$char_traits@D@std@@V?$allocator@D@2@@std@@AAEXQBDI@Z 0040000d f   DraggingDemo.obj
 0001:fffff00d       __ehhandler$??$_Insert_string@DU?$char_traits@D@std@@I@std@@YAAAV?$basic_ostream@DU?$char_traits@D@std@@@0@AAV10@QBDI@Z 0040000d f   DraggingDemo.obj
 0001:fffff00d       __ehhandler$??0?$_Tree_temp_node_alloc@V?$allocator@U?$_Tree_node@U?$pair@$$CBV?$basic_string@DU?$char_traits@D@std@@V?$allocator@D@2@@std@@V?$shared_ptr@VRawImageData@@@2@@std@@PAX@std@@@std@@@std@@QAE@AAV?$allocator@U?$_Tree_node@U?$pair@$$CBV?$basic_string@DU?$char_traits@D@std@@V?$allocator@D@2@@std@@V?$shared_ptr@VRawImageData@@@2@@std@@PAX@std@@@1@@Z 0040000d f   DraggingDemo.obj
 0001:fffff00d       __ehhandler$??0?$_Tree_temp_node_alloc@V?$allocator@U?$_Tree_node@U?$pair@$$CBV?$basic_string@DU?$char_traits@D@std@@V?$allocator@D@2@@std@@V?$weak_ptr@VRawImageData@@@2@@std@@PAX@std@@@std@@@std@@QAE@AAV?$allocator@U?$_Tree_node@U?$pair@$$CBV?$basic_string@DU?$char_traits@D@std@@V?$allocator@D@2@@std@@V?$weak_ptr@VRawImageData@@@2@@std@@PAX@std@@@1@@Z 0040000d f   DraggingDemo.obj
 0001:fffff00d       __ehhandler$??0?$basic_string@DU?$char_traits@D@std@@V?$allocator@D@2@@std@@QAE@ABV01@@Z 0040000d f   DraggingDemo.obj
 0001:fffff00d       __ehhandler$??0?$basic_string@DU?$char_traits@D@std@@V?$allocator@D@2@@std@@QAE@QBD@Z 0040000d f   DraggingDemo.obj
 0001:fffff00d       __ehhandler$??0ImageManager@@QAE@XZ 0040000d f   DraggingDemo.obj
 0001:fffff00d       __ehhandler$??0RawImageData@@QAE@V?$basic_string@DU?$char_traits@D@std@@V?$allocator@D@2@@std@@@Z 0040000d f   DraggingDemo.obj
 0001:fffff00d       __ehhandler$??0sentry@?$basic_ostream@DU?$char_traits@D@std@@@std@@QAE@AAV12@@Z 0040000d f   DraggingDemo.obj
 0001:fffff00d       __ehhandler$?_Alloc_sentinel_and_proxy@?$_Tree@V?$_Tmap_traits@V?$basic_string@DU?$char_traits@D@std@@V?$allocator@D@2@@std@@V?$shared_ptr@VRawImageData@@@2@U?$less@V?$basic_string@DU?$char_traits@D@std@@V?$allocator@D@2@@std@@@2@V?$allocator@U?$pair@$$CBV?$basic_string@DU?$char_traits@D@std@@V?$allocator@D@2@@std@@V?$shared_ptr@VRawImageData@@@2@@std@@@2@$0A@@std@@@std@@IAEXXZ 0040000d f   DraggingDemo.obj
 0001:fffff00d       __ehhandler$?_Alloc_sentinel_and_proxy@?$_Tree@V?$_Tmap_traits@V?$basic_string@DU?$char_traits@D@std@@V?$allocator@D@2@@std@@V?$weak_ptr@VRawImageData@@@2@U?$less@V?$basic_string@DU?$char_traits@D@std@@V?$allocator@D@2@@std@@@2@V?$allocator@U?$pair@$$CBV?$basic_string@DU?$char_traits@D@std@@V?$allocator@D@2@@std@@V?$weak_ptr@VRawImageData@@@2@@std@@@2@$0A@@std@@@std@@IAEXXZ 0040000d f   DraggingDemo.obj
 0001:fffff00d       __ehhandler$?getImagebyURL@ImageManager@@QAE?AVSimpleImage@@V?$basic_string@DU?$char_traits@D@std@@V?$allocator@D@2@@std@@_N1@Z 0040000d f   DraggingDemo.obj
 0001:fffff00d       __ehhandler$?loadImage@RawImageData@@QAE_NV?$basic_string@DU?$char_traits@D@std@@V?$allocator@D@2@@std@@HHHHH_N@Z 0040000d f   DraggingDemo.obj
 0001:fffff00d       __ehhandler$??$?6U?$char_traits@D@std@@@std@@YAAAV?$basic_ostream@DU?$char_traits@D@std@@@0@AAV10@PBD@Z 0040000d f   DrawingSurface.obj
 0001:fffff00d       __ehhandler$??0sentry@?$basic_ostream@DU?$char_traits@D@std@@@std@@QAE@AAV12@@Z 0040000d f   DrawingSurface.obj
 0001:fffff00d       __ehhandler$??$?6U?$char_traits@D@std@@@std@@YAAAV?$basic_ostream@DU?$char_traits@D@std@@@0@AAV10@PBD@Z 0040000d f   FlashingDemo.obj
 0001:fffff00d       __ehhandler$??0sentry@?$basic_ostream@DU?$char_traits@D@std@@@std@@QAE@AAV12@@Z 0040000d f   FlashingDemo.obj
 0001:fffff00d       __ehhandler$??$?0U?$pair@V?$basic_string@DU?$char_traits@D@std@@V?$allocator@D@2@@std@@V?$shared_ptr@VRawImageData@@@2@@std@@@?$_Tree_temp_node@V?$allocator@U?$_Tree_node@U?$pair@$$CBV?$basic_string@DU?$char_traits@D@std@@V?$allocator@D@2@@std@@V?$shared_ptr@VRawImageData@@@2@@std@@PAX@std@@@std@@@std@@QAE@AAV?$allocator@U?$_Tree_node@U?$pair@$$CBV?$basic_string@DU?$char_traits@D@std@@V?$allocator@D@2@@std@@V?$shared_ptr@VRawImageData@@@2@@std@@PAX@std@@@1@PAU?$_Tree_node@U?$pair@$$CBV?$basic_string@DU?$char_traits@D@std@@V?$allocator@D@2@@std@@V?$shared_ptr@VRawImageData@@@2@@std@@PAX@1@$$QAU?$pair@V?$basic_string@DU?$char_traits@D@std@@V?$allocator@D@2@@std@@V?$shared_ptr@VRawImageData@@@2@@1@@Z 0040000d f   ImageMappingDemo.obj
 0001:fffff00d       __ehhandler$??$?0U?$pair@V?$basic_string@DU?$char_traits@D@std@@V?$allocator@D@2@@std@@V?$weak_ptr@VRawImageData@@@2@@std@@@?$_Tree_temp_node@V?$allocator@U?$_Tree_node@U?$pair@$$CBV?$basic_string@DU?$char_traits@D@std@@V?$allocator@D@2@@std@@V?$weak_ptr@VRawImageData@@@2@@std@@PAX@std@@@std@@@std@@QAE@AAV?$allocator@U?$_Tree_node@U?$pair@$$CBV?$basic_string@DU?$char_traits@D@std@@V?$allocator@D@2@@std@@V?$weak_ptr@VRawImageData@@@2@@std@@PAX@std@@@1@PAU?$_Tree_node@U?$pair@$$CBV?$basic_string@DU?$char_traits@D@std@@V?$allocator@D@2@@std@@V?$weak_ptr@VRawImageData@@@2@@std@@PAX@1@$$QAU?$pair@V?$basic_string@DU?$char_traits@D@std@@V?$allocator@D@2@@std@@V?$weak_ptr@VRawImageData@@@2@@1@@Z 0040000d f   ImageMappingDemo.obj
 0001:fffff00d       __ehhandler$??$?6U?$char_traits@D@std@@@std@@YAAAV?$basic_ostream@DU?$char_traits@D@std@@@0@AAV10@PBD@Z 0040000d f   ImageMappingDemo.obj
 0001:fffff00d       __ehhandler$??$_Construct@$00PBD@?$basic_string@DU?$char_traits@D@std@@V?$allocator@D@2@@std@@AAEXQBDI@Z 0040000d f   ImageMappingDemo.obj
 0001:fffff00d       __ehhandler$??$_Construct@$01PBD@?$basic_string@DU?$char_traits@D@std@@V?$allocator@D@2@@std@@AAEXQBDI@Z 0040000d f   ImageMappingDemo.obj
 0001:fffff00d       __ehhandler$??$_Insert_string@DU?$char_traits@D@std@@I@std@@YAAAV?$basic_ostream@DU?$char_traits@D@std@@@0@AAV10@QBDI@Z 0040000d f   ImageMappingDemo.obj
 0001:fffff00d       __ehhandler$??$_Uninitialized_move@PAPAVDisplayableObject@@V?$allocator@PAVDisplayableObject@@@std@@@std@@YAPAPAVDisplayableObject@@QAPAV1@0PAPAV1@AAV?$allocator@PAVDisplayableObject@@@0@@Z 0040000d f   ImageMappingDemo.obj
 0001:fffff00d       __ehhandler$??$_Uninitialized_value_construct_n@V?$allocator@PAVDisplayableObject@@@std@@@std@@YAPAPAVDisplayableObject@@PAPAV1@IAAV?$allocator@PAVDisplayableObject@@@0@@Z 0040000d f   ImageMappingDemo.obj
 0001:fffff00d       __ehhandler$??0?$_Tree_temp_node_alloc@V?$allocator@U?$_Tree_node@U?$pair@$$CBV?$basic_string@DU?$char_traits@D@std@@V?$allocator@D@2@@std@@V?$shared_ptr@VRawImageData@@@2@@std@@PAX@std@@@std@@@std@@QAE@AAV?$allocator@U?$_Tree_node@U?$pair@$$CBV?$basic_string@DU?$char_traits@D@std@@V?$allocator@D@2@@std@@V?$shared_ptr@VRawImageData@@@2@@std@@PAX@std@@@1@@Z 0040000d f   ImageMappingDemo.obj
 0001:fffff00d       __ehhandler$??0?$_Tree_temp_node_alloc@V?$allocator@U?$_Tree_node@U?$pair@$$CBV?$basic_string@DU?$char_traits@D@std@@V?$allocator@D@2@@std@@V?$weak_ptr@VRawImageData@@@2@@std@@PAX@std@@@std@@@std@@QAE@AAV?$allocator@U?$_Tree_node@U?$pair@$$CBV?$basic_string@DU?$char_traits@D@std@@V?$allocator@D@2@@std@@V?$weak_ptr@VRawImageData@@@2@@std@@PAX@std@@@1@@Z 0040000d f   ImageMappingDemo.obj
 0001:fffff00d       __ehhandler$??0?$basic_string@DU?$char_traits@D@std@@V?$allocator@D@2@@std@@QAE@ABV01@@Z 0040000d f   ImageMappingDemo.obj
 0001:fffff00d       __ehhandler$??0?$basic_string@DU?$char_traits@D@std@@V?$allocator@D@2@@std@@QAE@QBD@Z 0040000d f   ImageMappingDemo.obj
 0001:fffff00d       __ehhandler$??0ImageManager@@QAE@XZ 0040000d f   ImageMappingDemo.obj
 0001:fffff00d       __ehhandler$??0RawImageData@@QAE@V?$basic_string@DU?$char_traits@D@std@@V?$allocator@D@2@@std@@@Z 0040000d f   ImageMappingDemo.obj
 0001:fffff00d       __ehhandler$??0sentry@?$basic_ostream@DU?$char_traits@D@std@@@std@@QAE@AAV12@@Z 0040000d f   ImageMappingDemo.obj
 0001:fffff00d       __ehhandler$?_Alloc_sentinel_and_proxy@?$_Tree@V?$_Tmap_traits@V?$basic_string@DU?$char_traits@D@std@@V?$allocator@D@2@@std@@V?$shared_ptr@VRawImageData@@@2@U?$less@V?$basic_string@DU?$char_traits@D@std@@V?$allocator@D@2@@std@@@2@V?$allocator@U?$pair@$$CBV?$basic_string@DU?$char_traits@D@std@@V?$allocator@D@2@@std@@V?$shared_ptr@VRawImageData@@@2@@std@@@2@$0A@@std@@@std@@IAEXXZ 0040000d f   ImageMappingDemo.obj
 0001:fffff00d       __ehhandler$?_Alloc_sentinel_and_proxy@?$_Tree@V?$_Tmap_traits@V?$basic_string@DU?$char_traits@D@std@@V?$allocator@D@2@@std@@V?$weak_ptr@VRawImageData@@@2@U?$less@V?$basic_string@DU?$char_traits@D@std@@V?$allocator@D@2@@std@@@2@V?$allocator@U?$pair@$$CBV?$basic_string@DU?$char_traits@D@std@@V?$allocator@D@2@@std@@V?$weak_ptr@VRawImageData@@@2@@std@@@2@$0A@@std@@@std@@IAEXXZ 0040000d f   ImageMappingDemo.obj
 0001:fffff00d       __ehhandler$?getImagebyURL@ImageManager@@QAE?AVSimpleImage@@V?$basic_string@DU?$char_traits@D@std@@V?$allocator@D@2@@std@@_N1@Z 0040000d f   ImageMappingDemo.obj
 0001:fffff00d       __ehhandler$?loadImage@RawImageData@@QAE_NV?$basic_string@DU?$char_traits@D@std@@V?$allocator@D@2@@std@@HHHHH_N@Z 0040000d f   ImageMappingDemo.obj
 0001:fffff00d       __ehhandler$??$_Uninitialized_move@PAPAVDisplayableObject@@V?$allocator@PAVDisplayableObject@@@std@@@std@@YAPAPAVDisplayableObject@@QAPAV1@0PAPAV1@AAV?$allocator@PAVDisplayableObject@@@0@@Z 0040000d f   MazeDemoMain.obj
 0001:fffff00d       __ehhandler$??$_Uninitialized_value_construct_n@V?$allocator@PAVDisplayableObject@@@std@@@std@@YAPAPAVDisplayableObject@@PAPAV1@IAAV?$allocator@PAVDisplayableObject@@@0@@Z 0040000d f   MazeDemoMain.obj
 0001:fffff00d       __ehhandler$?setAllObjectsVisible@DisplayableObjectContainer@@QBEX_N@Z 0040000d f   MazeDemoMain.obj
 0001:fffff00d       __ehhandler$??$?0U?$pair@V?$basic_string@DU?$char_traits@D@std@@V?$allocator@D@2@@std@@V?$shared_ptr@VRawImageData@@@2@@std@@@?$_Tree_temp_node@V?$allocator@U?$_Tree_node@U?$pair@$$CBV?$basic_string@DU?$char_traits@D@std@@V?$allocator@D@2@@std@@V?$shared_ptr@VRawImageData@@@2@@std@@PAX@std@@@std@@@std@@QAE@AAV?$allocator@U?$_Tree_node@U?$pair@$$CBV?$basic_string@DU?$char_traits@D@std@@V?$allocator@D@2@@std@@V?$shared_ptr@VRawImageData@@@2@@std@@PAX@std@@@1@PAU?$_Tree_node@U?$pair@$$CBV?$basic_string@DU?$char_traits@D@std@@V?$allocator@D@2@@std@@V?$shared_ptr@VRawImageData@@@2@@std@@PAX@1@$$QAU?$pair@V?$basic_string@DU?$char_traits@D@std@@V?$allocator@D@2@@std@@V?$shared_ptr@VRawImageData@@@2@@1@@Z 0040000d f   Psyew3Engine.obj
 0001:fffff00d       __ehhandler$??$?0U?$pair@V?$basic_string@DU?$char_traits@D@std@@V?$allocator@D@2@@std@@V?$weak_ptr@VRawImageData@@@2@@std@@@?$_Tree_temp_node@V?$allocator@U?$_Tree_node@U?$pair@$$CBV?$basic_string@DU?$char_traits@D@std@@V?$allocator@D@2@@std@@V?$weak_ptr@VRawImageData@@@2@@std@@PAX@std@@@std@@@std@@QAE@AAV?$allocator@U?$_Tree_node@U?$pair@$$CBV?$basic_string@DU?$char_traits@D@std@@V?$allocator@D@2@@std@@V?$weak_ptr@VRawImageData@@@2@@std@@PAX@std@@@1@PAU?$_Tree_node@U?$pair@$$CBV?$basic_string@DU?$char_traits@D@std@@V?$allocator@D@2@@std@@V?$weak_ptr@VRawImageData@@@2@@std@@PAX@1@$$QAU?$pair@V?$basic_string@DU?$char_traits@D@std@@V?$allocator@D@2@@std@@V?$weak_ptr@VRawImageData@@@2@@1@@Z 0040000d f   Psyew3Engine.obj
 0001:fffff00d       __ehhandler$??$?6U?$char_traits@D@std@@@std@@YAAAV?$basic_ostream@DU?$char_traits@D@std@@@0@AAV10@PBD@Z 0040000d f   Psyew3Engine.obj
 0001:fffff00d       __ehhandler$??$_Construct@$00PBD@?$basic_string@DU?$char_traits@D@std@@V?$allocator@D@2@@std@@AAEXQBDI@Z 0040000d f   Psyew3Engine.obj
 0001:fffff00d       __ehhandler$??$_Construct@$01PBD@?$basic_string@DU?$char_traits@D@std@@V?$allocator@D@2@@std@@AAEXQBDI@Z 0040000d f   Psyew3Engine.obj
 0001:fffff00d       __ehhandler$??$_Insert_string@DU?$char_traits@D@std@@I@std@@YAAAV?$basic_ostream@DU?$char_traits@D@std@@@0@AAV10@QBDI@Z 0040000d f   Psyew3Engine.obj
 0001:fffff00d       __ehhandler$??$_Uninitialized_move@PAPAVDisplayableObject@@V?$allocator@PAVDisplayableObject@@@std@@@std@@YAPAPAVDisplayableObject@@QAPAV1@0PAPAV1@AAV?$allocator@PAVDisplayableObject@@@0@@Z 0040000d f   Psyew3Engine.obj
 0001:fffff00d       __ehhandler$??$_Uninitialized_value_construct_n@V?$allocator@PAVDisplayableObject@@@std@@@std@@YAPAPAVDisplayableObject@@PAPAV1@IAAV?$allocator@PAVDisplayableObject@@@0@@Z 0040000d f   Psyew3Engine.obj
 0001:fffff00d       __ehhandler$??0?$_Tree_temp_node_alloc@V?$allocator@U?$_Tree_node@U?$pair@$$CBV?$basic_string@DU?$char_traits@D@std@@V?$allocator@D@2@@std@@V?$shared_ptr@VRawImageData@@@2@@std@@PAX@std@@@std@@@std@@QAE@AAV?$allocator@U?$_Tree_node@U?$pair@$$CBV?$basic_string@DU?$char_traits@D@std@@V?$allocator@D@2@@std@@V?$shared_ptr@VRawImageData@@@2@@std@@PAX@std@@@1@@Z 0040000d f   Psyew3Engine.obj
 0001:fffff00d       __ehhandler$??0?$_Tree_temp_node_alloc@V?$allocator@U?$_Tree_node@U?$pair@$$CBV?$basic_string@DU?$char_traits@D@std@@V?$allocator@D@2@@std@@V?$weak_ptr@VRawImageData@@@2@@std@@PAX@std@@@std@@@std@@QAE@AAV?$allocator@U?$_Tree_node@U?$pair@$$CBV?$basic_string@DU?$char_traits@D@std@@V?$allocator@D@2@@std@@V?$weak_ptr@VRawImageData@@@2@@std@@PAX@std@@@1@@Z 0040000d f   Psyew3Engine.obj
 0001:fffff00d       __ehhandler$??0?$basic_string@DU?$char_traits@D@std@@V?$allocator@D@2@@std@@QAE@ABV01@@Z 0040000d f   Psyew3Engine.obj
 0001:fffff00d       __ehhandler$??0?$basic_string@DU?$char_traits@D@std@@V?$allocator@D@2@@std@@QAE@QBD@Z 0040000d f   Psyew3Engine.obj
 0001:fffff00d       __ehhandler$??0ImageManager@@QAE@XZ 0040000d f   Psyew3Engine.obj
 0001:fffff00d       __ehhandler$??0RawImageData@@QAE@V?$basic_string@DU?$char_traits@D@std@@V?$allocator@D@2@@std@@@Z 0040000d f   Psyew3Engine.obj
 0001:fffff00d       __ehhandler$??0sentry@?$basic_ostream@DU?$char_traits@D@std@@@std@@QAE@AAV12@@Z 0040000d f   Psyew3Engine.obj
 0001:fffff00d       __ehhandler$?_Alloc_sentinel_and_proxy@?$_Tree@V?$_Tmap_traits@V?$basic_string@DU?$char_traits@D@std@@V?$allocator@D@2@@std@@V?$shared_ptr@VRawImageData@@@2@U?$less@V?$basic_string@DU?$char_traits@D@std@@V?$allocator@D@2@@std@@@2@V?$allocator@U?$pair@$$CBV?$basic_string@DU?$char_traits@D@std@@V?$allocator@D@2@@std@@V?$shared_ptr@VRawImageData@@@2@@std@@@2@$0A@@std@@@std@@IAEXXZ 0040000d f   Psyew3Engine.obj
 0001:fffff00d       __ehhandler$?_Alloc_sentinel_and_proxy@?$_Tree@V?$_Tmap_traits@V?$basic_string@DU?$char_traits@D@std@@V?$allocator@D@2@@std@@V?$weak_ptr@VRawImageData@@@2@U?$less@V?$basic_string@DU?$char_traits@D@std@@V?$allocator@D@2@@std@@@2@V?$allocator@U?$pair@$$CBV?$basic_string@DU?$char_traits@D@std@@V?$allocator@D@2@@std@@V?$weak_ptr@VRawImageData@@@2@@std@@@2@$0A@@std@@@std@@IAEXXZ 0040000d f   Psyew3Engine.obj
 0001:fffff00d       __ehhandler$?getImagebyURL@ImageManager@@QAE?AVSimpleImage@@V?$basic_string@DU?$char_traits@D@std@@V?$allocator@D@2@@std@@_N1@Z 0040000d f   Psyew3Engine.obj
 0001:fffff00d       __ehhandler$?loadImage@RawImageData@@QAE_NV?$basic_string@DU?$char_traits@D@std@@V?$allocator@D@2@@std@@HHHHH_N@Z 0040000d f   Psyew3Engine.obj
 0001:fffff00d       __ehhandler$?setAllObjectsVisible@DisplayableObjectContainer@@QBEX_N@Z 0040000d f   Psyew3Engine.obj
 0001:fffff00d       __ehhandler$??$?6U?$char_traits@D@std@@@std@@YAAAV?$basic_ostream@DU?$char_traits@D@std@@@0@AAV10@PBD@Z 0040000d f   SimpleDemo.obj
 0001:fffff00d       __ehhandler$??$_Uninitialized_move@PAPAVDisplayableObject@@V?$allocator@PAVDisplayableObject@@@std@@@std@@YAPAPAVDisplayableObject@@QAPAV1@0PAPAV1@AAV?$allocator@PAVDisplayableObject@@@0@@Z 0040000d f   SimpleDemo.obj
 0001:fffff00d       __ehhandler$??$_Uninitialized_value_construct_n@V?$allocator@PAVDisplayableObject@@@std@@@std@@YAPAPAVDisplayableObject@@PAPAV1@IAAV?$allocator@PAVDisplayableObject@@@0@@Z 0040000d f   SimpleDemo.obj
 0001:fffff00d       __ehhandler$??0sentry@?$basic_ostream@DU?$char_traits@D@std@@@std@@QAE@AAV12@@Z 0040000d f   SimpleDemo.obj
 0001:fffff00d       __ehhandler$??$?6U?$char_traits@D@std@@@std@@YAAAV?$basic_ostream@DU?$char_traits@D@std@@@0@AAV10@PBD@Z 0040000d f   SimpleImage.obj
 0001:fffff00d       __ehhandler$??0sentry@?$basic_ostream@DU?$char_traits@D@std@@@std@@QAE@AAV12@@Z 0040000d f   SimpleImage.obj
 0001:fffff00d       __ehhandler$??$?6U?$char_traits@D@std@@@std@@YAAAV?$basic_ostream@DU?$char_traits@D@std@@@0@AAV10@PBD@Z 0040000d f   StarfieldDemo.obj
 0001:fffff00d       __ehhandler$??0sentry@?$basic_ostream@DU?$char_traits@D@std@@@std@@QAE@AAV12@@Z 0040000d f   StarfieldDemo.obj
 0001:fffff00d       __ehhandler$??$?6U?$char_traits@D@std@@@std@@YAAAV?$basic_ostream@DU?$char_traits@D@std@@@0@AAV10@PBD@Z 0040000d f   State.obj
 0001:fffff00d       __ehhandler$??0sentry@?$basic_ostream@DU?$char_traits@D@std@@@std@@QAE@AAV12@@Z 0040000d f   State.obj
 0001:fffff00d       __ehhandler$??$?0U?$pair@V?$basic_string@DU?$char_traits@D@std@@V?$allocator@D@2@@std@@V?$shared_ptr@VRawImageData@@@2@@std@@@?$_Tree_temp_node@V?$allocator@U?$_Tree_node@U?$pair@$$CBV?$basic_string@DU?$char_traits@D@std@@V?$allocator@D@2@@std@@V?$shared_ptr@VRawImageData@@@2@@std@@PAX@std@@@std@@@std@@QAE@AAV?$allocator@U?$_Tree_node@U?$pair@$$CBV?$basic_string@DU?$char_traits@D@std@@V?$allocator@D@2@@std@@V?$shared_ptr@VRawImageData@@@2@@std@@PAX@std@@@1@PAU?$_Tree_node@U?$pair@$$CBV?$basic_string@DU?$char_traits@D@std@@V?$allocator@D@2@@std@@V?$shared_ptr@VRawImageData@@@2@@std@@PAX@1@$$QAU?$pair@V?$basic_string@DU?$char_traits@D@std@@V?$allocator@D@2@@std@@V?$shared_ptr@VRawImageData@@@2@@1@@Z 0040000d f   ZoomingDemo.obj
 0001:fffff00d       __ehhandler$??$?0U?$pair@V?$basic_string@DU?$char_traits@D@std@@V?$allocator@D@2@@std@@V?$weak_ptr@VRawImageData@@@2@@std@@@?$_Tree_temp_node@V?$allocator@U?$_Tree_node@U?$pair@$$CBV?$basic_string@DU?$char_traits@D@std@@V?$allocator@D@2@@std@@V?$weak_ptr@VRawImageData@@@2@@std@@PAX@std@@@std@@@std@@QAE@AAV?$allocator@U?$_Tree_node@U?$pair@$$CBV?$basic_string@DU?$char_traits@D@std@@V?$allocator@D@2@@std@@V?$weak_ptr@VRawImageData@@@2@@std@@PAX@std@@@1@PAU?$_Tree_node@U?$pair@$$CBV?$basic_string@DU?$char_traits@D@std@@V?$allocator@D@2@@std@@V?$weak_ptr@VRawImageData@@@2@@std@@PAX@1@$$QAU?$pair@V?$basic_string@DU?$char_traits@D@std@@V?$allocator@D@2@@std@@V?$weak_ptr@VRawImageData@@@2@@1@@Z 0040000d f   ZoomingDemo.obj
 0001:fffff00d       __ehhandler$??$?6U?$char_traits@D@std@@@std@@YAAAV?$basic_ostream@DU?$char_traits@D@std@@@0@AAV10@PBD@Z 0040000d f   ZoomingDemo.obj
 0001:fffff00d       __ehhandler$??$_Construct@$00PBD@?$basic_string@DU?$char_traits@D@std@@V?$allocator@D@2@@std@@AAEXQBDI@Z 0040000d f   ZoomingDemo.obj
 0001:fffff00d       __ehhandler$??$_Construct@$01PBD@?$basic_string@DU?$char_traits@D@std@@V?$allocator@D@2@@std@@AAEXQBDI@Z 0040000d f   ZoomingDemo.obj
 0001:fffff00d       __ehhandler$??$_Insert_string@DU?$char_traits@D@std@@I@std@@YAAAV?$basic_ostream@DU?$char_traits@D@std@@@0@AAV10@QBDI@Z 0040000d f   ZoomingDemo.obj
 0001:fffff00d       __ehhandler$??$_Uninitialized_move@PAPAVDisplayableObject@@V?$allocator@PAVDisplayableObject@@@std@@@std@@YAPAPAVDisplayableObject@@QAPAV1@0PAPAV1@AAV?$allocator@PAVDisplayableObject@@@0@@Z 0040000d f   ZoomingDemo.obj
 0001:fffff00d       __ehhandler$??$_Uninitialized_value_construct_n@V?$allocator@PAVDisplayableObject@@@std@@@std@@YAPAPAVDisplayableObject@@PAPAV1@IAAV?$allocator@PAVDisplayableObject@@@0@@Z 0040000d f   ZoomingDemo.obj
 0001:fffff00d       __ehhandler$??0?$_Tree_temp_node_alloc@V?$allocator@U?$_Tree_node@U?$pair@$$CBV?$basic_string@DU?$char_traits@D@std@@V?$allocator@D@2@@std@@V?$shared_ptr@VRawImageData@@@2@@std@@PAX@std@@@std@@@std@@QAE@AAV?$allocator@U?$_Tree_node@U?$pair@$$CBV?$basic_string@DU?$char_traits@D@std@@V?$allocator@D@2@@std@@V?$shared_ptr@VRawImageData@@@2@@std@@PAX@std@@@1@@Z 0040000d f   ZoomingDemo.obj
 0001:fffff00d       __ehhandler$??0?$_Tree_temp_node_alloc@V?$allocator@U?$_Tree_node@U?$pair@$$CBV?$basic_string@DU?$char_traits@D@std@@V?$allocator@D@2@@std@@V?$weak_ptr@VRawImageData@@@2@@std@@PAX@std@@@std@@@std@@QAE@AAV?$allocator@U?$_Tree_node@U?$pair@$$CBV?$basic_string@DU?$char_traits@D@std@@V?$allocator@D@2@@std@@V?$weak_ptr@VRawImageData@@@2@@std@@PAX@std@@@1@@Z 0040000d f   ZoomingDemo.obj
 0001:fffff00d       __ehhandler$??0?$basic_string@DU?$char_traits@D@std@@V?$allocator@D@2@@std@@QAE@ABV01@@Z 0040000d f   ZoomingDemo.obj
 0001:fffff00d       __ehhandler$??0?$basic_string@DU?$char_traits@D@std@@V?$allocator@D@2@@std@@QAE@QBD@Z 0040000d f   ZoomingDemo.obj
 0001:fffff00d       __ehhandler$??0DragableObject@@QAE@HHPAVBaseEngine@@HH_N1@Z 0040000d f   ZoomingDemo.obj
 0001:fffff00d       __ehhandler$??0ImageManager@@QAE@XZ 0040000d f   ZoomingDemo.obj
 0001:fffff00d       __ehhandler$??0RawImageData@@QAE@V?$basic_string@DU?$char_traits@D@std@@V?$allocator@D@2@@std@@@Z 0040000d f   ZoomingDemo.obj
 0001:fffff00d       __ehhandler$??0sentry@?$basic_ostream@DU?$char_traits@D@std@@@std@@QAE@AAV12@@Z 0040000d f   ZoomingDemo.obj
 0001:fffff00d       __ehhandler$?_Alloc_sentinel_and_proxy@?$_Tree@V?$_Tmap_traits@V?$basic_string@DU?$char_traits@D@std@@V?$allocator@D@2@@std@@V?$shared_ptr@VRawImageData@@@2@U?$less@V?$basic_string@DU?$char_traits@D@std@@V?$allocator@D@2@@std@@@2@V?$allocator@U?$pair@$$CBV?$basic_string@DU?$char_traits@D@std@@V?$allocator@D@2@@std@@V?$shared_ptr@VRawImageData@@@2@@std@@@2@$0A@@std@@@std@@IAEXXZ 0040000d f   ZoomingDemo.obj
 0001:fffff00d       __ehhandler$?_Alloc_sentinel_and_proxy@?$_Tree@V?$_Tmap_traits@V?$basic_string@DU?$char_traits@D@std@@V?$allocator@D@2@@std@@V?$weak_ptr@VRawImageData@@@2@U?$less@V?$basic_string@DU?$char_traits@D@std@@V?$allocator@D@2@@std@@@2@V?$allocator@U?$pair@$$CBV?$basic_string@DU?$char_traits@D@std@@V?$allocator@D@2@@std@@V?$weak_ptr@VRawImageData@@@2@@std@@@2@$0A@@std@@@std@@IAEXXZ 0040000d f   ZoomingDemo.obj
 0001:fffff00d       __ehhandler$?getImagebyURL@ImageManager@@QAE?AVSimpleImage@@V?$basic_string@DU?$char_traits@D@std@@V?$allocator@D@2@@std@@_N1@Z 0040000d f   ZoomingDemo.obj
 0001:fffff00d       __ehhandler$?loadImage@RawImageData@@QAE_NV?$basic_string@DU?$char_traits@D@std@@V?$allocator@D@2@@std@@HHHHH_N@Z 0040000d f   ZoomingDemo.obj
 0001:fffff00d       __ehhandler$??$?6U?$char_traits@D@std@@@std@@YAAAV?$basic_ostream@DU?$char_traits@D@std@@@0@AAV10@PBD@Z 0040000d f   mainfunction.obj
 0001:fffff00d       __ehhandler$??0sentry@?$basic_ostream@DU?$char_traits@D@std@@@std@@QAE@AAV12@@Z 0040000d f   mainfunction.obj
 0001:fffff00e       __ehhandler$?_Orphan_range_locked@?$vector@PAVDisplayableObject@@V?$allocator@PAVDisplayableObject@@@std@@@std@@ABEXPAPAVDisplayableObject@@0@Z 0040000e f   BouncingBallMain.obj
 0001:fffff00e       __ehhandler$?_Orphan_range_locked@?$vector@PAVDisplayableObject@@V?$allocator@PAVDisplayableObject@@@std@@@std@@ABEXPAPAVDisplayableObject@@0@Z 0040000e f   DraggingDemo.obj
 0001:fffff00e       __ehhandler$?_Orphan_range_locked@?$vector@PAVDisplayableObject@@V?$allocator@PAVDisplayableObject@@@std@@@std@@ABEXPAPAVDisplayableObject@@0@Z 0040000e f   ImageMappingDemo.obj
 0001:fffff00e       __ehhandler$?_Orphan_range_locked@?$vector@PAVDisplayableObject@@V?$allocator@PAVDisplayableObject@@@std@@@std@@ABEXPAPAVDisplayableObject@@0@Z 0040000e f   MazeDemoMain.obj
 0001:fffff00e       __ehhandler$?_Orphan_range_locked@?$vector@PAVDisplayableObject@@V?$allocator@PAVDisplayableObject@@@std@@@std@@ABEXPAPAVDisplayableObject@@0@Z 0040000e f   Psyew3Engine.obj
 0001:fffff00e       __ehhandler$?_Orphan_range_locked@?$vector@PAVDisplayableObject@@V?$allocator@PAVDisplayableObject@@@std@@@std@@ABEXPAPAVDisplayableObject@@0@Z 0040000e f   SimpleDemo.obj
 0001:fffff00e       __ehhandler$?_Orphan_range_locked@?$vector@PAVDisplayableObject@@V?$allocator@PAVDisplayableObject@@@std@@@std@@ABEXPAPAVDisplayableObject@@0@Z 0040000e f   ZoomingDemo.obj
 0002:fffbd010       __tryblocktable$??$?6U?$char_traits@D@std@@@std@@YAAAV?$basic_ostream@DU?$char_traits@D@std@@@0@AAV10@PBD@Z 00400010     BouncingBall.obj
 0002:fffbd010       __tryblocktable$??$?6U?$char_traits@D@std@@@std@@YAAAV?$basic_ostream@DU?$char_traits@D@std@@@0@AAV10@PBD@Z 00400010     BouncingBallMain.obj
 0002:fffbd010       __unwindtable$??$_Resize_reallocate@U_Value_init_tag@std@@@?$vector@PAVDisplayableObject@@V?$allocator@PAVDisplayableObject@@@std@@@std@@AAEXIABU_Value_init_tag@1@@Z 00400010     BouncingBallMain.obj
 0002:fffbd010       __tryblocktable$??$?6U?$char_traits@D@std@@@std@@YAAAV?$basic_ostream@DU?$char_traits@D@std@@@0@AAV10@PBD@Z 00400010     DisplayableObject.obj
 0002:fffbd010       __ehfuncinfo$??$?0VRawImageData@@$0A@@?$shared_ptr@VRawImageData@@@std@@QAE@PAVRawImageData@@@Z 00400010     DraggingDemo.obj
 0002:fffbd010       __ehfuncinfo$?loadAsNew@ImageManager@@QAE?AV?$shared_ptr@VRawImageData@@@std@@V?$basic_string@DU?$char_traits@D@std@@V?$allocator@D@2@@3@@Z 00400010     DraggingDemo.obj
 0002:fffbd010       __tryblocktable$??$?6U?$char_traits@D@std@@@std@@YAAAV?$basic_ostream@DU?$char_traits@D@std@@@0@AAV10@PBD@Z 00400010     DraggingDemo.obj
 0002:fffbd010       __tryblocktable$??$_Insert_string@DU?$char_traits@D@std@@I@std@@YAAAV?$basic_ostream@DU?$char_traits@D@std@@@0@AAV10@QBDI@Z 00400010     DraggingDemo.obj
 0001:fffff010       __unwindfunclet$?getImagePtrbyURL@ImageManager@@QAE?AV?$shared_ptr@VRawImageData@@@std@@V?$basic_string@DU?$char_traits@D@std@@V?$allocator@D@2@@3@_N1@Z$9 00400010 f   DraggingDemo.obj
 0002:fffbd010       __tryblocktable$??$?6U?$char_traits@D@std@@@std@@YAAAV?$basic_ostream@DU?$char_traits@D@std@@@0@AAV10@PBD@Z 00400010     DrawingSurface.obj
 0000:00000010       _volmd                     00400010     DrawingSurface.obj
 0000:00000010       _volmd                     00400010     End.obj
 0002:fffbd010       __tryblocktable$??$?6U?$char_traits@D@std@@@std@@YAAAV?$basic_ostream@DU?$char_traits@D@std@@@0@AAV10@PBD@Z 00400010     FlashingDemo.obj
 0002:fffbd010       __ehfuncinfo$??$?0VRawImageData@@$0A@@?$shared_ptr@VRawImageData@@@std@@QAE@PAVRawImageData@@@Z 00400010     ImageMappingDemo.obj
 0002:fffbd010       __ehfuncinfo$?loadAsNew@ImageManager@@QAE?AV?$shared_ptr@VRawImageData@@@std@@V?$basic_string@DU?$char_traits@D@std@@V?$allocator@D@2@@3@@Z 00400010     ImageMappingDemo.obj
 0002:fffbd010       __tryblocktable$??$?6U?$char_traits@D@std@@@std@@YAAAV?$basic_ostream@DU?$char_traits@D@std@@@0@AAV10@PBD@Z 00400010     ImageMappingDemo.obj
 0002:fffbd010       __tryblocktable$??$_Insert_string@DU?$char_traits@D@std@@I@std@@YAAAV?$basic_ostream@DU?$char_traits@D@std@@@0@AAV10@QBDI@Z 00400010     ImageMappingDemo.obj
 0001:fffff010       __unwindfunclet$??0DragableImageObject@@QAE@HHPAVBaseEngine@@V?$basic_string@DU?$char_traits@D@std@@V?$allocator@D@2@@std@@_N2@Z$2 00400010 f   ImageMappingDemo.obj
 0001:fffff010       __unwindfunclet$?getImagePtrbyURL@ImageManager@@QAE?AV?$shared_ptr@VRawImageData@@@std@@V?$basic_string@DU?$char_traits@D@std@@V?$allocator@D@2@@3@_N1@Z$9 00400010 f   ImageMappingDemo.obj
 0002:fffbd010       __unwindtable$??$_Resize_reallocate@U_Value_init_tag@std@@@?$vector@PAVDisplayableObject@@V?$allocator@PAVDisplayableObject@@@std@@@std@@AAEXIABU_Value_init_tag@1@@Z 00400010     ImageMappingDemo.obj
 0002:fffbd010       __unwindtable$??$_Resize_reallocate@U_Value_init_tag@std@@@?$vector@PAVDisplayableObject@@V?$allocator@PAVDisplayableObject@@@std@@@std@@AAEXIABU_Value_init_tag@1@@Z 00400010     MazeDemoMain.obj
 0002:fffbd010       __ehfuncinfo$??$?0VRawImageData@@$0A@@?$shared_ptr@VRawImageData@@@std@@QAE@PAVRawImageData@@@Z 00400010     Psyew3Engine.obj
 0002:fffbd010       __ehfuncinfo$?loadAsNew@ImageManager@@QAE?AV?$shared_ptr@VRawImageData@@@std@@V?$basic_string@DU?$char_traits@D@std@@V?$allocator@D@2@@3@@Z 00400010     Psyew3Engine.obj
 0002:fffbd010       __tryblocktable$??$?6U?$char_traits@D@std@@@std@@YAAAV?$basic_ostream@DU?$char_traits@D@std@@@0@AAV10@PBD@Z 00400010     Psyew3Engine.obj
 0002:fffbd010       __tryblocktable$??$_Insert_string@DU?$char_traits@D@std@@I@std@@YAAAV?$basic_ostream@DU?$char_traits@D@std@@@0@AAV10@QBDI@Z 00400010     Psyew3Engine.obj
 0001:fffff010       __unwindfunclet$?getImagePtrbyURL@ImageManager@@QAE?AV?$shared_ptr@VRawImageData@@@std@@V?$basic_string@DU?$char_traits@D@std@@V?$allocator@D@2@@3@_N1@Z$9 00400010 f   Psyew3Engine.obj
 0002:fffbd010       __unwindtable$??$_Resize_reallocate@U_Value_init_tag@std@@@?$vector@PAVDisplayableObject@@V?$allocator@PAVDisplayableObject@@@std@@@std@@AAEXIABU_Value_init_tag@1@@Z 00400010     Psyew3Engine.obj
 0002:fffbd010       __tryblocktable$??$?6U?$char_traits@D@std@@@std@@YAAAV?$basic_ostream@DU?$char_traits@D@std@@@0@AAV10@PBD@Z 00400010     SimpleDemo.obj
 0002:fffbd010       __unwindtable$??$_Emplace_reallocate@ABQAVDisplayableObject@@@?$vector@PAVDisplayableObject@@V?$allocator@PAVDisplayableObject@@@std@@@std@@AAEPAPAVDisplayableObject@@QAPAV2@ABQAV2@@Z 00400010     SimpleDemo.obj
 0002:fffbd010       __unwindtable$??$_Resize_reallocate@U_Value_init_tag@std@@@?$vector@PAVDisplayableObject@@V?$allocator@PAVDisplayableObject@@@std@@@std@@AAEXIABU_Value_init_tag@1@@Z 00400010     SimpleDemo.obj
 0002:fffbd010       __tryblocktable$??$?6U?$char_traits@D@std@@@std@@YAAAV?$basic_ostream@DU?$char_traits@D@std@@@0@AAV10@PBD@Z 00400010     SimpleImage.obj
 0002:fffbd010       __tryblocktable$??$?6U?$char_traits@D@std@@@std@@YAAAV?$basic_ostream@DU?$char_traits@D@std@@@0@AAV10@PBD@Z 00400010     StarfieldDemo.obj
 0002:fffbd010       __tryblocktable$??$?6U?$char_traits@D@std@@@std@@YAAAV?$basic_ostream@DU?$char_traits@D@std@@@0@AAV10@PBD@Z 00400010     State.obj
 0002:fffbd010       __ehfuncinfo$??$?0VRawImageData@@$0A@@?$shared_ptr@VRawImageData@@@std@@QAE@PAVRawImageData@@@Z 00400010     ZoomingDemo.obj
 0002:fffbd010       __ehfuncinfo$?loadAsNew@ImageManager@@QAE?AV?$shared_ptr@VRawImageData@@@std@@V?$basic_string@DU?$char_traits@D@std@@V?$allocator@D@2@@3@@Z 00400010     ZoomingDemo.obj
 0002:fffbd010       __tryblocktable$??$?6U?$char_traits@D@std@@@std@@YAAAV?$basic_ostream@DU?$char_traits@D@std@@@0@AAV10@PBD@Z 00400010     ZoomingDemo.obj
 0002:fffbd010       __tryblocktable$??$_Insert_string@DU?$char_traits@D@std@@I@std@@YAAAV?$basic_ostream@DU?$char_traits@D@std@@@0@AAV10@QBDI@Z 00400010     ZoomingDemo.obj
 0001:fffff010       __unwindfunclet$??0DragableImageObject@@QAE@HHPAVBaseEngine@@V?$basic_string@DU?$char_traits@D@std@@V?$allocator@D@2@@std@@_N2@Z$2 00400010 f   ZoomingDemo.obj
 0001:fffff010       __unwindfunclet$?getImagePtrbyURL@ImageManager@@QAE?AV?$shared_ptr@VRawImageData@@@std@@V?$basic_string@DU?$char_traits@D@std@@V?$allocator@D@2@@3@_N1@Z$9 00400010 f   ZoomingDemo.obj
 0002:fffbd010       __unwindtable$??$_Resize_reallocate@U_Value_init_tag@std@@@?$vector@PAVDisplayableObject@@V?$allocator@PAVDisplayableObject@@@std@@@std@@AAEXIABU_Value_init_tag@1@@Z 00400010     ZoomingDemo.obj
 0002:fffbd010       __tryblocktable$??$?6U?$char_traits@D@std@@@std@@YAAAV?$basic_ostream@DU?$char_traits@D@std@@@0@AAV10@PBD@Z 00400010     mainfunction.obj
 0000:00000010       _volmd                     00400010     mainfunction.obj
 0001:fffff014       __ehhandler$?get@ImageManager@@SAPAV1@XZ 00400014 f   DraggingDemo.obj
 0001:fffff014       __ehhandler$?get@ImageManager@@SAPAV1@XZ 00400014 f   ImageMappingDemo.obj
 0001:fffff014       __ehhandler$?get@ImageManager@@SAPAV1@XZ 00400014 f   Psyew3Engine.obj
 0001:fffff014       __ehhandler$?get@ImageManager@@SAPAV1@XZ 00400014 f   ZoomingDemo.obj
 0000:00000018       _volmd                     00400018     BaseEngine.obj
 0001:fffff018       __unwindfunclet$?getImagePtrbyURL@ImageManager@@QAE?AV?$shared_ptr@VRawImageData@@@std@@V?$basic_string@DU?$char_traits@D@std@@V?$allocator@D@2@@3@_N1@Z$10 00400018 f   DraggingDemo.obj
 0001:fffff018       __unwindfunclet$??0DragableImageObject@@QAE@HHPAVBaseEngine@@V?$basic_string@DU?$char_traits@D@std@@V?$allocator@D@2@@std@@_N2@Z$3 00400018 f   ImageMappingDemo.obj
 0001:fffff018       __unwindfunclet$?getImagePtrbyURL@ImageManager@@QAE?AV?$shared_ptr@VRawImageData@@@std@@V?$basic_string@DU?$char_traits@D@std@@V?$allocator@D@2@@3@_N1@Z$10 00400018 f   ImageMappingDemo.obj
 0000:00000018       _volmd                     00400018     MazeDemoMain.obj
 0001:fffff018       __unwindfunclet$?getImagePtrbyURL@ImageManager@@QAE?AV?$shared_ptr@VRawImageData@@@std@@V?$basic_string@DU?$char_traits@D@std@@V?$allocator@D@2@@3@_N1@Z$10 00400018 f   Psyew3Engine.obj
 0000:00000018       _volmd                     00400018     Psyew3Engine.obj
